
/tmp/ud:     file format elf32-bigmips

SYMBOL TABLE:
00400000 l    d  .reginfo	00000000 .reginfo
00400018 l    d  .text	00000000 .text
00401000 l    d  .bss	00000000 .bss
00000000 l    d  .pdr	00000000 .pdr
00000000 l    d  .wcet_annot	00000000 .wcet_annot
00000000 l    d  .comment	00000000 .comment
00000000 l    d  .debug_aranges	00000000 .debug_aranges
00000000 l    d  .debug_info	00000000 .debug_info
00000000 l    d  .debug_abbrev	00000000 .debug_abbrev
00000000 l    d  .debug_line	00000000 .debug_line
00000000 l    d  .debug_frame	00000000 .debug_frame
00000000 l    d  .debug_str	00000000 .debug_str
00000000 l    d  .debug_loc	00000000 .debug_loc
00000000 l    d  .gnu.attributes	00000000 .gnu.attributes
00000010 l    d  .mdebug.abi32	00000000 .mdebug.abi32
00000000 l    df *ABS*	00000000 ud.c
00401000 g       .text	00000000 _fdata
00401000 g     O .bss	000000c8 b
004010c8 g     O .bss	000000c8 x
00408ff0 g       *ABS*	00000000 _gp
00400018 g       .text	00000000 _ftext
0040027c g     F .text	000006c8 ludcmp
00401000 g       *ABS*	00000000 __bss_start
00400018 g     F .text	00000264 main
00401000 g       *ABS*	00000000 _edata
004038a0 g       *ABS*	00000000 _end
00401190 g     O .bss	00002710 a
00401000 g       *ABS*	00000000 _fbss



Disassembly of section .text:

00400018 <main>:
  400018:	27bdffd0 	addiu	sp,sp,-48
  40001c:	afbf002c 	sw	ra,44(sp)
  400020:	24020032 	li	v0,50
  400024:	afa2001c 	sw	v0,28(sp)
  400028:	24020005 	li	v0,5
  40002c:	afa20020 	sw	v0,32(sp)
  400030:	0810008f 	j	40023c <main+0x224>
  400034:	afa00010 	sw	zero,16(sp)
  400038:	afa00018 	sw	zero,24(sp)
  40003c:	0810007c 	j	4001f0 <main+0x1d8>
  400040:	afa00014 	sw	zero,20(sp)
  400044:	8fa20010 	lw	v0,16(sp)
  400048:	00000000 	nop
  40004c:	24430001 	addiu	v1,v0,1
  400050:	8fa20014 	lw	v0,20(sp)
  400054:	00000000 	nop
  400058:	24420001 	addiu	v0,v0,1
  40005c:	00621821 	addu	v1,v1,v0
  400060:	3c050040 	lui	a1,0x40
  400064:	8fa20010 	lw	v0,16(sp)
  400068:	00000000 	nop
  40006c:	00021040 	sll	v0,v0,0x1
  400070:	00022080 	sll	a0,v0,0x2
  400074:	00441021 	addu	v0,v0,a0
  400078:	00022080 	sll	a0,v0,0x2
  40007c:	00441021 	addu	v0,v0,a0
  400080:	8fa40014 	lw	a0,20(sp)
  400084:	00000000 	nop
  400088:	00441021 	addu	v0,v0,a0
  40008c:	00022080 	sll	a0,v0,0x2
  400090:	24a21190 	addiu	v0,a1,4496
  400094:	00821021 	addu	v0,a0,v0
  400098:	ac430000 	sw	v1,0(v0)
  40009c:	8fa30010 	lw	v1,16(sp)
  4000a0:	8fa20014 	lw	v0,20(sp)
  4000a4:	00000000 	nop
  4000a8:	1462003a 	bne	v1,v0,400194 <main+0x17c>
  4000ac:	00000000 	nop
  4000b0:	3c040040 	lui	a0,0x40
  4000b4:	8fa20010 	lw	v0,16(sp)
  4000b8:	00000000 	nop
  4000bc:	00021040 	sll	v0,v0,0x1
  4000c0:	00021880 	sll	v1,v0,0x2
  4000c4:	00431021 	addu	v0,v0,v1
  4000c8:	00021880 	sll	v1,v0,0x2
  4000cc:	00431021 	addu	v0,v0,v1
  4000d0:	8fa30014 	lw	v1,20(sp)
  4000d4:	00000000 	nop
  4000d8:	00431021 	addu	v0,v0,v1
  4000dc:	00021880 	sll	v1,v0,0x2
  4000e0:	24821190 	addiu	v0,a0,4496
  4000e4:	00621021 	addu	v0,v1,v0
  4000e8:	8c420000 	lw	v0,0(v0)
  4000ec:	00000000 	nop
  4000f0:	44820000 	mtc1	v0,$f0
  4000f4:	00000000 	nop
  4000f8:	46800021 	cvt.d.w	$f0,$f0
  4000fc:	44030000 	mfc1	v1,$f0
  400100:	44020800 	mfc1	v0,$f1
  400104:	44831000 	mtc1	v1,$f2
  400108:	44821800 	mtc1	v0,$f3
  40010c:	44830000 	mtc1	v1,$f0
  400110:	44820800 	mtc1	v0,$f1
  400114:	00000000 	nop
  400118:	46201080 	add.d	$f2,$f2,$f0
  40011c:	44031000 	mfc1	v1,$f2
  400120:	44021800 	mfc1	v0,$f3
  400124:	44830000 	mtc1	v1,$f0
  400128:	44820800 	mtc1	v0,$f1
  40012c:	4446f800 	cfc1	a2,$31
  400130:	4446f800 	cfc1	a2,$31
  400134:	00000000 	nop
  400138:	34c10003 	ori	at,a2,0x3
  40013c:	38210002 	xori	at,at,0x2
  400140:	44c1f800 	ctc1	at,$31
  400144:	00000000 	nop
  400148:	46200024 	cvt.w.d	$f0,$f0
  40014c:	44c6f800 	ctc1	a2,$31
  400150:	00000000 	nop
  400154:	44050000 	mfc1	a1,$f0
  400158:	3c040040 	lui	a0,0x40
  40015c:	8fa20010 	lw	v0,16(sp)
  400160:	00000000 	nop
  400164:	00021040 	sll	v0,v0,0x1
  400168:	00021880 	sll	v1,v0,0x2
  40016c:	00431021 	addu	v0,v0,v1
  400170:	00021880 	sll	v1,v0,0x2
  400174:	00431021 	addu	v0,v0,v1
  400178:	8fa30014 	lw	v1,20(sp)
  40017c:	00000000 	nop
  400180:	00431021 	addu	v0,v0,v1
  400184:	00021880 	sll	v1,v0,0x2
  400188:	24821190 	addiu	v0,a0,4496
  40018c:	00621021 	addu	v0,v1,v0
  400190:	ac450000 	sw	a1,0(v0)
  400194:	3c040040 	lui	a0,0x40
  400198:	8fa20010 	lw	v0,16(sp)
  40019c:	00000000 	nop
  4001a0:	00021040 	sll	v0,v0,0x1
  4001a4:	00021880 	sll	v1,v0,0x2
  4001a8:	00431021 	addu	v0,v0,v1
  4001ac:	00021880 	sll	v1,v0,0x2
  4001b0:	00431021 	addu	v0,v0,v1
  4001b4:	8fa30014 	lw	v1,20(sp)
  4001b8:	00000000 	nop
  4001bc:	00431021 	addu	v0,v0,v1
  4001c0:	00021880 	sll	v1,v0,0x2
  4001c4:	24821190 	addiu	v0,a0,4496
  4001c8:	00621021 	addu	v0,v1,v0
  4001cc:	8c420000 	lw	v0,0(v0)
  4001d0:	8fa30018 	lw	v1,24(sp)
  4001d4:	00000000 	nop
  4001d8:	00621021 	addu	v0,v1,v0
  4001dc:	afa20018 	sw	v0,24(sp)
  4001e0:	8fa20014 	lw	v0,20(sp)
  4001e4:	00000000 	nop
  4001e8:	24420001 	addiu	v0,v0,1
  4001ec:	afa20014 	sw	v0,20(sp)
  4001f0:	8fa30014 	lw	v1,20(sp)
  4001f4:	8fa20020 	lw	v0,32(sp)
  4001f8:	00000000 	nop
  4001fc:	0043102a 	slt	v0,v0,v1
  400200:	1040ff90 	beqz	v0,400044 <main+0x2c>
  400204:	00000000 	nop
  400208:	3c020040 	lui	v0,0x40
  40020c:	8fa30010 	lw	v1,16(sp)
  400210:	00000000 	nop
  400214:	00031880 	sll	v1,v1,0x2
  400218:	24421000 	addiu	v0,v0,4096
  40021c:	00621021 	addu	v0,v1,v0
  400220:	8fa30018 	lw	v1,24(sp)
  400224:	00000000 	nop
  400228:	ac430000 	sw	v1,0(v0)
  40022c:	8fa20010 	lw	v0,16(sp)
  400230:	00000000 	nop
  400234:	24420001 	addiu	v0,v0,1
  400238:	afa20010 	sw	v0,16(sp)
  40023c:	8fa30010 	lw	v1,16(sp)
  400240:	8fa20020 	lw	v0,32(sp)
  400244:	00000000 	nop
  400248:	0043102a 	slt	v0,v0,v1
  40024c:	1040ff7a 	beqz	v0,400038 <main+0x20>
  400250:	00000000 	nop
  400254:	8fa4001c 	lw	a0,28(sp)
  400258:	8fa50020 	lw	a1,32(sp)
  40025c:	0c10009f 	jal	40027c <ludcmp>
  400260:	00000000 	nop
  400264:	afa20024 	sw	v0,36(sp)
  400268:	8fa20024 	lw	v0,36(sp)
  40026c:	8fbf002c 	lw	ra,44(sp)
  400270:	27bd0030 	addiu	sp,sp,48
  400274:	03e00008 	jr	ra
  400278:	00000000 	nop

0040027c <ludcmp>:
  40027c:	27bdfe60 	addiu	sp,sp,-416
  400280:	afa401a0 	sw	a0,416(sp)
  400284:	afa501a4 	sw	a1,420(sp)
  400288:	08100185 	j	400614 <ludcmp+0x398>
  40028c:	afa00000 	sw	zero,0(sp)
  400290:	8fa20000 	lw	v0,0(sp)
  400294:	00000000 	nop
  400298:	24420001 	addiu	v0,v0,1
  40029c:	08100116 	j	400458 <ludcmp+0x1dc>
  4002a0:	afa20004 	sw	v0,4(sp)
  4002a4:	3c040040 	lui	a0,0x40
  4002a8:	8fa20004 	lw	v0,4(sp)
  4002ac:	00000000 	nop
  4002b0:	00021040 	sll	v0,v0,0x1
  4002b4:	00021880 	sll	v1,v0,0x2
  4002b8:	00431021 	addu	v0,v0,v1
  4002bc:	00021880 	sll	v1,v0,0x2
  4002c0:	00431021 	addu	v0,v0,v1
  4002c4:	8fa30000 	lw	v1,0(sp)
  4002c8:	00000000 	nop
  4002cc:	00431021 	addu	v0,v0,v1
  4002d0:	00021880 	sll	v1,v0,0x2
  4002d4:	24821190 	addiu	v0,a0,4496
  4002d8:	00621021 	addu	v0,v1,v0
  4002dc:	8c420000 	lw	v0,0(v0)
  4002e0:	00000000 	nop
  4002e4:	afa2000c 	sw	v0,12(sp)
  4002e8:	8fa20000 	lw	v0,0(sp)
  4002ec:	00000000 	nop
  4002f0:	10400032 	beqz	v0,4003bc <ludcmp+0x140>
  4002f4:	00000000 	nop
  4002f8:	081000e9 	j	4003a4 <ludcmp+0x128>
  4002fc:	afa00008 	sw	zero,8(sp)
  400300:	3c040040 	lui	a0,0x40
  400304:	8fa20004 	lw	v0,4(sp)
  400308:	00000000 	nop
  40030c:	00021040 	sll	v0,v0,0x1
  400310:	00021880 	sll	v1,v0,0x2
  400314:	00431021 	addu	v0,v0,v1
  400318:	00021880 	sll	v1,v0,0x2
  40031c:	00431021 	addu	v0,v0,v1
  400320:	8fa30008 	lw	v1,8(sp)
  400324:	00000000 	nop
  400328:	00431021 	addu	v0,v0,v1
  40032c:	00021880 	sll	v1,v0,0x2
  400330:	24821190 	addiu	v0,a0,4496
  400334:	00621021 	addu	v0,v1,v0
  400338:	8c430000 	lw	v1,0(v0)
  40033c:	3c050040 	lui	a1,0x40
  400340:	8fa20008 	lw	v0,8(sp)
  400344:	00000000 	nop
  400348:	00021040 	sll	v0,v0,0x1
  40034c:	00022080 	sll	a0,v0,0x2
  400350:	00441021 	addu	v0,v0,a0
  400354:	00022080 	sll	a0,v0,0x2
  400358:	00441021 	addu	v0,v0,a0
  40035c:	8fa40000 	lw	a0,0(sp)
  400360:	00000000 	nop
  400364:	00441021 	addu	v0,v0,a0
  400368:	00022080 	sll	a0,v0,0x2
  40036c:	24a21190 	addiu	v0,a1,4496
  400370:	00821021 	addu	v0,a0,v0
  400374:	8c420000 	lw	v0,0(v0)
  400378:	00000000 	nop
  40037c:	00620018 	mult	v1,v0
  400380:	00001012 	mflo	v0
  400384:	8fa3000c 	lw	v1,12(sp)
  400388:	00000000 	nop
  40038c:	00621023 	subu	v0,v1,v0
  400390:	afa2000c 	sw	v0,12(sp)
  400394:	8fa20008 	lw	v0,8(sp)
  400398:	00000000 	nop
  40039c:	24420001 	addiu	v0,v0,1
  4003a0:	afa20008 	sw	v0,8(sp)
  4003a4:	8fa30008 	lw	v1,8(sp)
  4003a8:	8fa20000 	lw	v0,0(sp)
  4003ac:	00000000 	nop
  4003b0:	0062102a 	slt	v0,v1,v0
  4003b4:	1440ffd2 	bnez	v0,400300 <ludcmp+0x84>
  4003b8:	00000000 	nop
  4003bc:	3c040040 	lui	a0,0x40
  4003c0:	8fa20000 	lw	v0,0(sp)
  4003c4:	00000000 	nop
  4003c8:	00401821 	move	v1,v0
  4003cc:	00031080 	sll	v0,v1,0x2
  4003d0:	00401821 	move	v1,v0
  4003d4:	00031080 	sll	v0,v1,0x2
  4003d8:	00431023 	subu	v0,v0,v1
  4003dc:	00021900 	sll	v1,v0,0x4
  4003e0:	00431021 	addu	v0,v0,v1
  4003e4:	24831190 	addiu	v1,a0,4496
  4003e8:	00431021 	addu	v0,v0,v1
  4003ec:	8c420000 	lw	v0,0(v0)
  4003f0:	8fa3000c 	lw	v1,12(sp)
  4003f4:	14400002 	bnez	v0,400400 <ludcmp+0x184>
  4003f8:	0062001a 	div	zero,v1,v0
  4003fc:	0007000d 	break	0x7
  400400:	00001810 	mfhi	v1
  400404:	00001012 	mflo	v0
  400408:	00401821 	move	v1,v0
  40040c:	3c050040 	lui	a1,0x40
  400410:	8fa20004 	lw	v0,4(sp)
  400414:	00000000 	nop
  400418:	00021040 	sll	v0,v0,0x1
  40041c:	00022080 	sll	a0,v0,0x2
  400420:	00441021 	addu	v0,v0,a0
  400424:	00022080 	sll	a0,v0,0x2
  400428:	00441021 	addu	v0,v0,a0
  40042c:	8fa40000 	lw	a0,0(sp)
  400430:	00000000 	nop
  400434:	00441021 	addu	v0,v0,a0
  400438:	00022080 	sll	a0,v0,0x2
  40043c:	24a21190 	addiu	v0,a1,4496
  400440:	00821021 	addu	v0,a0,v0
  400444:	ac430000 	sw	v1,0(v0)
  400448:	8fa20004 	lw	v0,4(sp)
  40044c:	00000000 	nop
  400450:	24420001 	addiu	v0,v0,1
  400454:	afa20004 	sw	v0,4(sp)
  400458:	8fa30004 	lw	v1,4(sp)
  40045c:	8fa201a4 	lw	v0,420(sp)
  400460:	00000000 	nop
  400464:	0043102a 	slt	v0,v0,v1
  400468:	1040ff8e 	beqz	v0,4002a4 <ludcmp+0x28>
  40046c:	00000000 	nop
  400470:	8fa20000 	lw	v0,0(sp)
  400474:	00000000 	nop
  400478:	24420001 	addiu	v0,v0,1
  40047c:	0810017b 	j	4005ec <ludcmp+0x370>
  400480:	afa20004 	sw	v0,4(sp)
  400484:	8fa20000 	lw	v0,0(sp)
  400488:	00000000 	nop
  40048c:	24420001 	addiu	v0,v0,1
  400490:	3c040040 	lui	a0,0x40
  400494:	00021040 	sll	v0,v0,0x1
  400498:	00021880 	sll	v1,v0,0x2
  40049c:	00431021 	addu	v0,v0,v1
  4004a0:	00021880 	sll	v1,v0,0x2
  4004a4:	00431021 	addu	v0,v0,v1
  4004a8:	8fa30004 	lw	v1,4(sp)
  4004ac:	00000000 	nop
  4004b0:	00431021 	addu	v0,v0,v1
  4004b4:	00021880 	sll	v1,v0,0x2
  4004b8:	24821190 	addiu	v0,a0,4496
  4004bc:	00621021 	addu	v0,v1,v0
  4004c0:	8c420000 	lw	v0,0(v0)
  4004c4:	00000000 	nop
  4004c8:	afa2000c 	sw	v0,12(sp)
  4004cc:	0810015f 	j	40057c <ludcmp+0x300>
  4004d0:	afa00008 	sw	zero,8(sp)
  4004d4:	8fa20000 	lw	v0,0(sp)
  4004d8:	00000000 	nop
  4004dc:	24420001 	addiu	v0,v0,1
  4004e0:	3c040040 	lui	a0,0x40
  4004e4:	00021040 	sll	v0,v0,0x1
  4004e8:	00021880 	sll	v1,v0,0x2
  4004ec:	00431021 	addu	v0,v0,v1
  4004f0:	00021880 	sll	v1,v0,0x2
  4004f4:	00431021 	addu	v0,v0,v1
  4004f8:	8fa30008 	lw	v1,8(sp)
  4004fc:	00000000 	nop
  400500:	00431021 	addu	v0,v0,v1
  400504:	00021880 	sll	v1,v0,0x2
  400508:	24821190 	addiu	v0,a0,4496
  40050c:	00621021 	addu	v0,v1,v0
  400510:	8c430000 	lw	v1,0(v0)
  400514:	3c050040 	lui	a1,0x40
  400518:	8fa20008 	lw	v0,8(sp)
  40051c:	00000000 	nop
  400520:	00021040 	sll	v0,v0,0x1
  400524:	00022080 	sll	a0,v0,0x2
  400528:	00441021 	addu	v0,v0,a0
  40052c:	00022080 	sll	a0,v0,0x2
  400530:	00441021 	addu	v0,v0,a0
  400534:	8fa40004 	lw	a0,4(sp)
  400538:	00000000 	nop
  40053c:	00441021 	addu	v0,v0,a0
  400540:	00022080 	sll	a0,v0,0x2
  400544:	24a21190 	addiu	v0,a1,4496
  400548:	00821021 	addu	v0,a0,v0
  40054c:	8c420000 	lw	v0,0(v0)
  400550:	00000000 	nop
  400554:	00620018 	mult	v1,v0
  400558:	00001012 	mflo	v0
  40055c:	8fa3000c 	lw	v1,12(sp)
  400560:	00000000 	nop
  400564:	00621023 	subu	v0,v1,v0
  400568:	afa2000c 	sw	v0,12(sp)
  40056c:	8fa20008 	lw	v0,8(sp)
  400570:	00000000 	nop
  400574:	24420001 	addiu	v0,v0,1
  400578:	afa20008 	sw	v0,8(sp)
  40057c:	8fa30008 	lw	v1,8(sp)
  400580:	8fa20000 	lw	v0,0(sp)
  400584:	00000000 	nop
  400588:	0043102a 	slt	v0,v0,v1
  40058c:	1040ffd1 	beqz	v0,4004d4 <ludcmp+0x258>
  400590:	00000000 	nop
  400594:	8fa20000 	lw	v0,0(sp)
  400598:	00000000 	nop
  40059c:	24420001 	addiu	v0,v0,1
  4005a0:	3c040040 	lui	a0,0x40
  4005a4:	00021040 	sll	v0,v0,0x1
  4005a8:	00021880 	sll	v1,v0,0x2
  4005ac:	00431021 	addu	v0,v0,v1
  4005b0:	00021880 	sll	v1,v0,0x2
  4005b4:	00431021 	addu	v0,v0,v1
  4005b8:	8fa30004 	lw	v1,4(sp)
  4005bc:	00000000 	nop
  4005c0:	00431021 	addu	v0,v0,v1
  4005c4:	00021880 	sll	v1,v0,0x2
  4005c8:	24821190 	addiu	v0,a0,4496
  4005cc:	00621021 	addu	v0,v1,v0
  4005d0:	8fa3000c 	lw	v1,12(sp)
  4005d4:	00000000 	nop
  4005d8:	ac430000 	sw	v1,0(v0)
  4005dc:	8fa20004 	lw	v0,4(sp)
  4005e0:	00000000 	nop
  4005e4:	24420001 	addiu	v0,v0,1
  4005e8:	afa20004 	sw	v0,4(sp)
  4005ec:	8fa30004 	lw	v1,4(sp)
  4005f0:	8fa201a4 	lw	v0,420(sp)
  4005f4:	00000000 	nop
  4005f8:	0043102a 	slt	v0,v0,v1
  4005fc:	1040ffa1 	beqz	v0,400484 <ludcmp+0x208>
  400600:	00000000 	nop
  400604:	8fa20000 	lw	v0,0(sp)
  400608:	00000000 	nop
  40060c:	24420001 	addiu	v0,v0,1
  400610:	afa20000 	sw	v0,0(sp)
  400614:	8fa30000 	lw	v1,0(sp)
  400618:	8fa201a4 	lw	v0,420(sp)
  40061c:	00000000 	nop
  400620:	0062102a 	slt	v0,v1,v0
  400624:	1440ff1a 	bnez	v0,400290 <ludcmp+0x14>
  400628:	00000000 	nop
  40062c:	3c020040 	lui	v0,0x40
  400630:	8c421000 	lw	v0,4096(v0)
  400634:	00000000 	nop
  400638:	afa20010 	sw	v0,16(sp)
  40063c:	24020001 	li	v0,1
  400640:	081001cd 	j	400734 <ludcmp+0x4b8>
  400644:	afa20000 	sw	v0,0(sp)
  400648:	3c020040 	lui	v0,0x40
  40064c:	8fa30000 	lw	v1,0(sp)
  400650:	00000000 	nop
  400654:	00031880 	sll	v1,v1,0x2
  400658:	24421000 	addiu	v0,v0,4096
  40065c:	00621021 	addu	v0,v1,v0
  400660:	8c420000 	lw	v0,0(v0)
  400664:	00000000 	nop
  400668:	afa2000c 	sw	v0,12(sp)
  40066c:	081001bc 	j	4006f0 <ludcmp+0x474>
  400670:	afa00004 	sw	zero,4(sp)
  400674:	3c040040 	lui	a0,0x40
  400678:	8fa20000 	lw	v0,0(sp)
  40067c:	00000000 	nop
  400680:	00021040 	sll	v0,v0,0x1
  400684:	00021880 	sll	v1,v0,0x2
  400688:	00431021 	addu	v0,v0,v1
  40068c:	00021880 	sll	v1,v0,0x2
  400690:	00431021 	addu	v0,v0,v1
  400694:	8fa30004 	lw	v1,4(sp)
  400698:	00000000 	nop
  40069c:	00431021 	addu	v0,v0,v1
  4006a0:	00021880 	sll	v1,v0,0x2
  4006a4:	24821190 	addiu	v0,a0,4496
  4006a8:	00621021 	addu	v0,v1,v0
  4006ac:	8c430000 	lw	v1,0(v0)
  4006b0:	8fa20004 	lw	v0,4(sp)
  4006b4:	00000000 	nop
  4006b8:	00021080 	sll	v0,v0,0x2
  4006bc:	03a21021 	addu	v0,sp,v0
  4006c0:	8c420010 	lw	v0,16(v0)
  4006c4:	00000000 	nop
  4006c8:	00620018 	mult	v1,v0
  4006cc:	00001012 	mflo	v0
  4006d0:	8fa3000c 	lw	v1,12(sp)
  4006d4:	00000000 	nop
  4006d8:	00621023 	subu	v0,v1,v0
  4006dc:	afa2000c 	sw	v0,12(sp)
  4006e0:	8fa20004 	lw	v0,4(sp)
  4006e4:	00000000 	nop
  4006e8:	24420001 	addiu	v0,v0,1
  4006ec:	afa20004 	sw	v0,4(sp)
  4006f0:	8fa30004 	lw	v1,4(sp)
  4006f4:	8fa20000 	lw	v0,0(sp)
  4006f8:	00000000 	nop
  4006fc:	0062102a 	slt	v0,v1,v0
  400700:	1440ffdc 	bnez	v0,400674 <ludcmp+0x3f8>
  400704:	00000000 	nop
  400708:	8fa20000 	lw	v0,0(sp)
  40070c:	00000000 	nop
  400710:	00021080 	sll	v0,v0,0x2
  400714:	03a21021 	addu	v0,sp,v0
  400718:	8fa3000c 	lw	v1,12(sp)
  40071c:	00000000 	nop
  400720:	ac430010 	sw	v1,16(v0)
  400724:	8fa20000 	lw	v0,0(sp)
  400728:	00000000 	nop
  40072c:	24420001 	addiu	v0,v0,1
  400730:	afa20000 	sw	v0,0(sp)
  400734:	8fa30000 	lw	v1,0(sp)
  400738:	8fa201a4 	lw	v0,420(sp)
  40073c:	00000000 	nop
  400740:	0043102a 	slt	v0,v0,v1
  400744:	1040ffc0 	beqz	v0,400648 <ludcmp+0x3cc>
  400748:	00000000 	nop
  40074c:	8fa201a4 	lw	v0,420(sp)
  400750:	00000000 	nop
  400754:	00021080 	sll	v0,v0,0x2
  400758:	03a21021 	addu	v0,sp,v0
  40075c:	8c440010 	lw	a0,16(v0)
  400760:	3c050040 	lui	a1,0x40
  400764:	8fa201a4 	lw	v0,420(sp)
  400768:	00000000 	nop
  40076c:	00401821 	move	v1,v0
  400770:	00031080 	sll	v0,v1,0x2
  400774:	00401821 	move	v1,v0
  400778:	00031080 	sll	v0,v1,0x2
  40077c:	00431023 	subu	v0,v0,v1
  400780:	00021900 	sll	v1,v0,0x4
  400784:	00431021 	addu	v0,v0,v1
  400788:	24a31190 	addiu	v1,a1,4496
  40078c:	00431021 	addu	v0,v0,v1
  400790:	8c420000 	lw	v0,0(v0)
  400794:	00000000 	nop
  400798:	14400002 	bnez	v0,4007a4 <ludcmp+0x528>
  40079c:	0082001a 	div	zero,a0,v0
  4007a0:	0007000d 	break	0x7
  4007a4:	00001810 	mfhi	v1
  4007a8:	00001012 	mflo	v0
  4007ac:	00401821 	move	v1,v0
  4007b0:	3c020040 	lui	v0,0x40
  4007b4:	8fa401a4 	lw	a0,420(sp)
  4007b8:	00000000 	nop
  4007bc:	00042080 	sll	a0,a0,0x2
  4007c0:	244210c8 	addiu	v0,v0,4296
  4007c4:	00821021 	addu	v0,a0,v0
  4007c8:	ac430000 	sw	v1,0(v0)
  4007cc:	8fa201a4 	lw	v0,420(sp)
  4007d0:	00000000 	nop
  4007d4:	2442ffff 	addiu	v0,v0,-1
  4007d8:	0810024a 	j	400928 <ludcmp+0x6ac>
  4007dc:	afa20000 	sw	v0,0(sp)
  4007e0:	8fa20000 	lw	v0,0(sp)
  4007e4:	00000000 	nop
  4007e8:	00021080 	sll	v0,v0,0x2
  4007ec:	03a21021 	addu	v0,sp,v0
  4007f0:	8c420010 	lw	v0,16(v0)
  4007f4:	00000000 	nop
  4007f8:	afa2000c 	sw	v0,12(sp)
  4007fc:	8fa20000 	lw	v0,0(sp)
  400800:	00000000 	nop
  400804:	24420001 	addiu	v0,v0,1
  400808:	08100225 	j	400894 <ludcmp+0x618>
  40080c:	afa20004 	sw	v0,4(sp)
  400810:	3c040040 	lui	a0,0x40
  400814:	8fa20000 	lw	v0,0(sp)
  400818:	00000000 	nop
  40081c:	00021040 	sll	v0,v0,0x1
  400820:	00021880 	sll	v1,v0,0x2
  400824:	00431021 	addu	v0,v0,v1
  400828:	00021880 	sll	v1,v0,0x2
  40082c:	00431021 	addu	v0,v0,v1
  400830:	8fa30004 	lw	v1,4(sp)
  400834:	00000000 	nop
  400838:	00431021 	addu	v0,v0,v1
  40083c:	00021880 	sll	v1,v0,0x2
  400840:	24821190 	addiu	v0,a0,4496
  400844:	00621021 	addu	v0,v1,v0
  400848:	8c430000 	lw	v1,0(v0)
  40084c:	3c020040 	lui	v0,0x40
  400850:	8fa40004 	lw	a0,4(sp)
  400854:	00000000 	nop
  400858:	00042080 	sll	a0,a0,0x2
  40085c:	244210c8 	addiu	v0,v0,4296
  400860:	00821021 	addu	v0,a0,v0
  400864:	8c420000 	lw	v0,0(v0)
  400868:	00000000 	nop
  40086c:	00620018 	mult	v1,v0
  400870:	00001012 	mflo	v0
  400874:	8fa3000c 	lw	v1,12(sp)
  400878:	00000000 	nop
  40087c:	00621023 	subu	v0,v1,v0
  400880:	afa2000c 	sw	v0,12(sp)
  400884:	8fa20004 	lw	v0,4(sp)
  400888:	00000000 	nop
  40088c:	24420001 	addiu	v0,v0,1
  400890:	afa20004 	sw	v0,4(sp)
  400894:	8fa30004 	lw	v1,4(sp)
  400898:	8fa201a4 	lw	v0,420(sp)
  40089c:	00000000 	nop
  4008a0:	0043102a 	slt	v0,v0,v1
  4008a4:	1040ffda 	beqz	v0,400810 <ludcmp+0x594>
  4008a8:	00000000 	nop
  4008ac:	3c040040 	lui	a0,0x40
  4008b0:	8fa20000 	lw	v0,0(sp)
  4008b4:	00000000 	nop
  4008b8:	00401821 	move	v1,v0
  4008bc:	00031080 	sll	v0,v1,0x2
  4008c0:	00401821 	move	v1,v0
  4008c4:	00031080 	sll	v0,v1,0x2
  4008c8:	00431023 	subu	v0,v0,v1
  4008cc:	00021900 	sll	v1,v0,0x4
  4008d0:	00431021 	addu	v0,v0,v1
  4008d4:	24831190 	addiu	v1,a0,4496
  4008d8:	00431021 	addu	v0,v0,v1
  4008dc:	8c420000 	lw	v0,0(v0)
  4008e0:	8fa3000c 	lw	v1,12(sp)
  4008e4:	14400002 	bnez	v0,4008f0 <ludcmp+0x674>
  4008e8:	0062001a 	div	zero,v1,v0
  4008ec:	0007000d 	break	0x7
  4008f0:	00001810 	mfhi	v1
  4008f4:	00001012 	mflo	v0
  4008f8:	00401821 	move	v1,v0
  4008fc:	3c020040 	lui	v0,0x40
  400900:	8fa40000 	lw	a0,0(sp)
  400904:	00000000 	nop
  400908:	00042080 	sll	a0,a0,0x2
  40090c:	244210c8 	addiu	v0,v0,4296
  400910:	00821021 	addu	v0,a0,v0
  400914:	ac430000 	sw	v1,0(v0)
  400918:	8fa20000 	lw	v0,0(sp)
  40091c:	00000000 	nop
  400920:	2442ffff 	addiu	v0,v0,-1
  400924:	afa20000 	sw	v0,0(sp)
  400928:	8fa20000 	lw	v0,0(sp)
  40092c:	00000000 	nop
  400930:	0441ffab 	bgez	v0,4007e0 <ludcmp+0x564>
  400934:	00000000 	nop
  400938:	00001021 	move	v0,zero
  40093c:	03e00008 	jr	ra
  400940:	27bd01a0 	addiu	sp,sp,416
