
/tmp/sqrt:     file format elf32-bigmips

SYMBOL TABLE:
00400000 l    d  .reginfo	00000000 .reginfo
00400018 l    d  .text	00000000 .text
00401328 l    d  .sdata	00000000 .sdata
00000000 l    d  .pdr	00000000 .pdr
00000000 l    d  .wcet_annot	00000000 .wcet_annot
00000000 l    d  .comment	00000000 .comment
00000000 l    d  .debug_aranges	00000000 .debug_aranges
00000000 l    d  .debug_info	00000000 .debug_info
00000000 l    d  .debug_abbrev	00000000 .debug_abbrev
00000000 l    d  .debug_line	00000000 .debug_line
00000000 l    d  .debug_frame	00000000 .debug_frame
00000000 l    d  .debug_str	00000000 .debug_str
00000000 l    d  .debug_loc	00000000 .debug_loc
00000000 l    d  .gnu.attributes	00000000 .gnu.attributes
00000010 l    d  .mdebug.abi32	00000000 .mdebug.abi32
00000000 l    df *ABS*	00000000 sqrt.c
00401324 g       .sdata	00000000 _fdata
00409320 g       *ABS*	00000000 _gp
00400068 g     F .text	0000028c my_sqrt
00400018 g       .text	00000000 _ftext
00400018 g     F .text	00000050 my_fabs
00401340 g       *ABS*	00000000 __bss_start
004002f4 g     F .text	00000030 main
00401340 g       *ABS*	00000000 _edata
00401340 g       *ABS*	00000000 _end
00401340 g       *ABS*	00000000 _fbss



Disassembly of section .text:

00400018 <my_fabs>:
  400018:	e7ac0000 	swc1	$f12,0(sp)
  40001c:	8fa30000 	lw	v1,0(sp)
  400020:	00001021 	move	v0,zero
  400024:	44830000 	mtc1	v1,$f0
  400028:	44821000 	mtc1	v0,$f2
  40002c:	00000000 	nop
  400030:	4602003c 	c.lt.s	$f0,$f2
  400034:	00000000 	nop
  400038:	45000006 	bc1f	400054 <my_fabs+0x3c>
  40003c:	00000000 	nop
  400040:	8fa30000 	lw	v1,0(sp)
  400044:	3c028000 	lui	v0,0x8000
  400048:	00621026 	xor	v0,v1,v0
  40004c:	08100017 	j	40005c <my_fabs+0x44>
  400050:	00000000 	nop
  400054:	8fa20000 	lw	v0,0(sp)
  400058:	00000000 	nop
  40005c:	44820000 	mtc1	v0,$f0
  400060:	03e00008 	jr	ra
  400064:	00000000 	nop

00400068 <my_sqrt>:
  400068:	27bdffc0 	addiu	sp,sp,-64
  40006c:	afbf003c 	sw	ra,60(sp)
  400070:	e7ac0040 	swc1	$f12,64(sp)
  400074:	8fa30040 	lw	v1,64(sp)
  400078:	8f828008 	lw	v0,-32760(gp)
  40007c:	44830000 	mtc1	v1,$f0
  400080:	44821000 	mtc1	v0,$f2
  400084:	00000000 	nop
  400088:	46020003 	div.s	$f0,$f0,$f2
  40008c:	44020000 	mfc1	v0,$f0
  400090:	00000000 	nop
  400094:	afa20010 	sw	v0,16(sp)
  400098:	8f838014 	lw	v1,-32748(gp)
  40009c:	8f828010 	lw	v0,-32752(gp)
  4000a0:	afa30024 	sw	v1,36(sp)
  4000a4:	afa20020 	sw	v0,32(sp)
  4000a8:	afa00018 	sw	zero,24(sp)
  4000ac:	8fa30040 	lw	v1,64(sp)
  4000b0:	00001021 	move	v0,zero
  4000b4:	44830000 	mtc1	v1,$f0
  4000b8:	44821000 	mtc1	v0,$f2
  4000bc:	00000000 	nop
  4000c0:	46020032 	c.eq.s	$f0,$f2
  4000c4:	00000000 	nop
  4000c8:	45000003 	bc1f	4000d8 <my_sqrt+0x70>
  4000cc:	00000000 	nop
  4000d0:	081000b6 	j	4002d8 <my_sqrt+0x270>
  4000d4:	afa00010 	sw	zero,16(sp)
  4000d8:	24020001 	li	v0,1
  4000dc:	081000b1 	j	4002c4 <my_sqrt+0x25c>
  4000e0:	afa20014 	sw	v0,20(sp)
  4000e4:	8fa20018 	lw	v0,24(sp)
  4000e8:	00000000 	nop
  4000ec:	14400071 	bnez	v0,4002b4 <my_sqrt+0x24c>
  4000f0:	00000000 	nop
  4000f4:	8fa30010 	lw	v1,16(sp)
  4000f8:	8fa20010 	lw	v0,16(sp)
  4000fc:	44830000 	mtc1	v1,$f0
  400100:	44821000 	mtc1	v0,$f2
  400104:	00000000 	nop
  400108:	46020002 	mul.s	$f0,$f0,$f2
  40010c:	44020000 	mfc1	v0,$f0
  400110:	8fa30040 	lw	v1,64(sp)
  400114:	00000000 	nop
  400118:	44830000 	mtc1	v1,$f0
  40011c:	44821000 	mtc1	v0,$f2
  400120:	00000000 	nop
  400124:	46020001 	sub.s	$f0,$f0,$f2
  400128:	44020000 	mfc1	v0,$f0
  40012c:	00000000 	nop
  400130:	44820000 	mtc1	v0,$f0
  400134:	00000000 	nop
  400138:	46000021 	cvt.d.s	$f0,$f0
  40013c:	44050000 	mfc1	a1,$f0
  400140:	44040800 	mfc1	a0,$f1
  400144:	8fa20010 	lw	v0,16(sp)
  400148:	00000000 	nop
  40014c:	44821000 	mtc1	v0,$f2
  400150:	00000000 	nop
  400154:	460010a1 	cvt.d.s	$f2,$f2
  400158:	44031000 	mfc1	v1,$f2
  40015c:	44021800 	mfc1	v0,$f3
  400160:	44830000 	mtc1	v1,$f0
  400164:	44820800 	mtc1	v0,$f1
  400168:	44831000 	mtc1	v1,$f2
  40016c:	44821800 	mtc1	v0,$f3
  400170:	00000000 	nop
  400174:	46220000 	add.d	$f0,$f0,$f2
  400178:	44030000 	mfc1	v1,$f0
  40017c:	44020800 	mfc1	v0,$f1
  400180:	44850000 	mtc1	a1,$f0
  400184:	44840800 	mtc1	a0,$f1
  400188:	44831000 	mtc1	v1,$f2
  40018c:	44821800 	mtc1	v0,$f3
  400190:	00000000 	nop
  400194:	46220003 	div.d	$f0,$f0,$f2
  400198:	44030000 	mfc1	v1,$f0
  40019c:	44020800 	mfc1	v0,$f1
  4001a0:	44830000 	mtc1	v1,$f0
  4001a4:	44820800 	mtc1	v0,$f1
  4001a8:	00000000 	nop
  4001ac:	46200020 	cvt.s.d	$f0,$f0
  4001b0:	44020000 	mfc1	v0,$f0
  4001b4:	00000000 	nop
  4001b8:	afa20028 	sw	v0,40(sp)
  4001bc:	8fa30010 	lw	v1,16(sp)
  4001c0:	8fa20028 	lw	v0,40(sp)
  4001c4:	44831000 	mtc1	v1,$f2
  4001c8:	44820000 	mtc1	v0,$f0
  4001cc:	00000000 	nop
  4001d0:	46001080 	add.s	$f2,$f2,$f0
  4001d4:	44021000 	mfc1	v0,$f2
  4001d8:	00000000 	nop
  4001dc:	afa20010 	sw	v0,16(sp)
  4001e0:	8fa30010 	lw	v1,16(sp)
  4001e4:	8fa20010 	lw	v0,16(sp)
  4001e8:	44831000 	mtc1	v1,$f2
  4001ec:	44820000 	mtc1	v0,$f0
  4001f0:	00000000 	nop
  4001f4:	46001082 	mul.s	$f2,$f2,$f0
  4001f8:	44021000 	mfc1	v0,$f2
  4001fc:	8fa30040 	lw	v1,64(sp)
  400200:	00000000 	nop
  400204:	44831000 	mtc1	v1,$f2
  400208:	44820000 	mtc1	v0,$f0
  40020c:	00000000 	nop
  400210:	46001081 	sub.s	$f2,$f2,$f0
  400214:	44021000 	mfc1	v0,$f2
  400218:	00000000 	nop
  40021c:	44821000 	mtc1	v0,$f2
  400220:	00000000 	nop
  400224:	460010a1 	cvt.d.s	$f2,$f2
  400228:	44031000 	mfc1	v1,$f2
  40022c:	44021800 	mfc1	v0,$f3
  400230:	afa30034 	sw	v1,52(sp)
  400234:	afa20030 	sw	v0,48(sp)
  400238:	8fa30034 	lw	v1,52(sp)
  40023c:	8fa20030 	lw	v0,48(sp)
  400240:	44830000 	mtc1	v1,$f0
  400244:	44820800 	mtc1	v0,$f1
  400248:	00000000 	nop
  40024c:	46200020 	cvt.s.d	$f0,$f0
  400250:	44020000 	mfc1	v0,$f0
  400254:	00000000 	nop
  400258:	44826000 	mtc1	v0,$f12
  40025c:	0c100006 	jal	400018 <my_fabs>
  400260:	00000000 	nop
  400264:	44020000 	mfc1	v0,$f0
  400268:	00000000 	nop
  40026c:	44821000 	mtc1	v0,$f2
  400270:	00000000 	nop
  400274:	460010a1 	cvt.d.s	$f2,$f2
  400278:	44051000 	mfc1	a1,$f2
  40027c:	44041800 	mfc1	a0,$f3
  400280:	8fa30024 	lw	v1,36(sp)
  400284:	8fa20020 	lw	v0,32(sp)
  400288:	44850000 	mtc1	a1,$f0
  40028c:	44840800 	mtc1	a0,$f1
  400290:	44831000 	mtc1	v1,$f2
  400294:	44821800 	mtc1	v0,$f3
  400298:	00000000 	nop
  40029c:	4622003e 	c.le.d	$f0,$f2
  4002a0:	00000000 	nop
  4002a4:	45000003 	bc1f	4002b4 <my_sqrt+0x24c>
  4002a8:	00000000 	nop
  4002ac:	24020001 	li	v0,1
  4002b0:	afa20018 	sw	v0,24(sp)
  4002b4:	8fa20014 	lw	v0,20(sp)
  4002b8:	00000000 	nop
  4002bc:	24420001 	addiu	v0,v0,1
  4002c0:	afa20014 	sw	v0,20(sp)
  4002c4:	8fa20014 	lw	v0,20(sp)
  4002c8:	00000000 	nop
  4002cc:	28420014 	slti	v0,v0,20
  4002d0:	1440ff84 	bnez	v0,4000e4 <my_sqrt+0x7c>
  4002d4:	00000000 	nop
  4002d8:	8fa20010 	lw	v0,16(sp)
  4002dc:	00000000 	nop
  4002e0:	44820000 	mtc1	v0,$f0
  4002e4:	8fbf003c 	lw	ra,60(sp)
  4002e8:	27bd0040 	addiu	sp,sp,64
  4002ec:	03e00008 	jr	ra
  4002f0:	00000000 	nop

004002f4 <main>:
  4002f4:	27bdffe8 	addiu	sp,sp,-24
  4002f8:	afbf0014 	sw	ra,20(sp)
  4002fc:	8f828018 	lw	v0,-32744(gp)
  400300:	00000000 	nop
  400304:	44826000 	mtc1	v0,$f12
  400308:	0c10001a 	jal	400068 <my_sqrt>
  40030c:	00000000 	nop
  400310:	00001021 	move	v0,zero
  400314:	8fbf0014 	lw	ra,20(sp)
  400318:	27bd0018 	addiu	sp,sp,24
  40031c:	03e00008 	jr	ra
  400320:	00000000 	nop
