
/tmp/fdct:     file format elf32-bigmips

SYMBOL TABLE:
00400000 l    d  .reginfo	00000000 .reginfo
00400018 l    d  .text	00000000 .text
00401d40 l    d  .data	00000000 .data
00401dc0 l    d  .sbss	00000000 .sbss
00000000 l    d  .pdr	00000000 .pdr
00000000 l    d  .wcet_annot	00000000 .wcet_annot
00000000 l    d  .comment	00000000 .comment
00000000 l    d  .debug_aranges	00000000 .debug_aranges
00000000 l    d  .debug_info	00000000 .debug_info
00000000 l    d  .debug_abbrev	00000000 .debug_abbrev
00000000 l    d  .debug_line	00000000 .debug_line
00000000 l    d  .debug_frame	00000000 .debug_frame
00000000 l    d  .debug_str	00000000 .debug_str
00000000 l    d  .debug_loc	00000000 .debug_loc
00000000 l    d  .gnu.attributes	00000000 .gnu.attributes
00000010 l    d  .mdebug.abi32	00000000 .mdebug.abi32
00000000 l    df *ABS*	00000000 fdct.c
00401d40 g       .data	00000000 _fdata
00401d40 g     O .data	00000080 block
00409db0 g       *ABS*	00000000 _gp
00401dc0 g     O .sbss	00000004 out
00400018 g     F .text	00000cf4 fdct
00400018 g       .text	00000000 _ftext
00401dc0 g       *ABS*	00000000 __bss_start
00400d0c g     F .text	00000034 main
00401dc0 g       *ABS*	00000000 _edata
00401dc4 g       *ABS*	00000000 _end
00401dc0 g       *ABS*	00000000 _fbss



Disassembly of section .text:

00400018 <fdct>:
  400018:	27bdffb0 	addiu	sp,sp,-80
  40001c:	afa40050 	sw	a0,80(sp)
  400020:	afa50054 	sw	a1,84(sp)
  400024:	8fa20050 	lw	v0,80(sp)
  400028:	00000000 	nop
  40002c:	afa20004 	sw	v0,4(sp)
  400030:	08100176 	j	4005d8 <fdct+0x5c0>
  400034:	afa00000 	sw	zero,0(sp)
  400038:	8fa20004 	lw	v0,4(sp)
  40003c:	00000000 	nop
  400040:	84420000 	lh	v0,0(v0)
  400044:	00000000 	nop
  400048:	00401821 	move	v1,v0
  40004c:	8fa20004 	lw	v0,4(sp)
  400050:	00000000 	nop
  400054:	2442000e 	addiu	v0,v0,14
  400058:	84420000 	lh	v0,0(v0)
  40005c:	00000000 	nop
  400060:	00621021 	addu	v0,v1,v0
  400064:	afa20008 	sw	v0,8(sp)
  400068:	8fa20004 	lw	v0,4(sp)
  40006c:	00000000 	nop
  400070:	84420000 	lh	v0,0(v0)
  400074:	00000000 	nop
  400078:	00401821 	move	v1,v0
  40007c:	8fa20004 	lw	v0,4(sp)
  400080:	00000000 	nop
  400084:	2442000e 	addiu	v0,v0,14
  400088:	84420000 	lh	v0,0(v0)
  40008c:	00000000 	nop
  400090:	00621023 	subu	v0,v1,v0
  400094:	afa2000c 	sw	v0,12(sp)
  400098:	8fa20004 	lw	v0,4(sp)
  40009c:	00000000 	nop
  4000a0:	24420002 	addiu	v0,v0,2
  4000a4:	84420000 	lh	v0,0(v0)
  4000a8:	00000000 	nop
  4000ac:	00401821 	move	v1,v0
  4000b0:	8fa20004 	lw	v0,4(sp)
  4000b4:	00000000 	nop
  4000b8:	2442000c 	addiu	v0,v0,12
  4000bc:	84420000 	lh	v0,0(v0)
  4000c0:	00000000 	nop
  4000c4:	00621021 	addu	v0,v1,v0
  4000c8:	afa20010 	sw	v0,16(sp)
  4000cc:	8fa20004 	lw	v0,4(sp)
  4000d0:	00000000 	nop
  4000d4:	24420002 	addiu	v0,v0,2
  4000d8:	84420000 	lh	v0,0(v0)
  4000dc:	00000000 	nop
  4000e0:	00401821 	move	v1,v0
  4000e4:	8fa20004 	lw	v0,4(sp)
  4000e8:	00000000 	nop
  4000ec:	2442000c 	addiu	v0,v0,12
  4000f0:	84420000 	lh	v0,0(v0)
  4000f4:	00000000 	nop
  4000f8:	00621023 	subu	v0,v1,v0
  4000fc:	afa20014 	sw	v0,20(sp)
  400100:	8fa20004 	lw	v0,4(sp)
  400104:	00000000 	nop
  400108:	24420004 	addiu	v0,v0,4
  40010c:	84420000 	lh	v0,0(v0)
  400110:	00000000 	nop
  400114:	00401821 	move	v1,v0
  400118:	8fa20004 	lw	v0,4(sp)
  40011c:	00000000 	nop
  400120:	2442000a 	addiu	v0,v0,10
  400124:	84420000 	lh	v0,0(v0)
  400128:	00000000 	nop
  40012c:	00621021 	addu	v0,v1,v0
  400130:	afa20018 	sw	v0,24(sp)
  400134:	8fa20004 	lw	v0,4(sp)
  400138:	00000000 	nop
  40013c:	24420004 	addiu	v0,v0,4
  400140:	84420000 	lh	v0,0(v0)
  400144:	00000000 	nop
  400148:	00401821 	move	v1,v0
  40014c:	8fa20004 	lw	v0,4(sp)
  400150:	00000000 	nop
  400154:	2442000a 	addiu	v0,v0,10
  400158:	84420000 	lh	v0,0(v0)
  40015c:	00000000 	nop
  400160:	00621023 	subu	v0,v1,v0
  400164:	afa2001c 	sw	v0,28(sp)
  400168:	8fa20004 	lw	v0,4(sp)
  40016c:	00000000 	nop
  400170:	24420006 	addiu	v0,v0,6
  400174:	84420000 	lh	v0,0(v0)
  400178:	00000000 	nop
  40017c:	00401821 	move	v1,v0
  400180:	8fa20004 	lw	v0,4(sp)
  400184:	00000000 	nop
  400188:	24420008 	addiu	v0,v0,8
  40018c:	84420000 	lh	v0,0(v0)
  400190:	00000000 	nop
  400194:	00621021 	addu	v0,v1,v0
  400198:	afa20020 	sw	v0,32(sp)
  40019c:	8fa20004 	lw	v0,4(sp)
  4001a0:	00000000 	nop
  4001a4:	24420006 	addiu	v0,v0,6
  4001a8:	84420000 	lh	v0,0(v0)
  4001ac:	00000000 	nop
  4001b0:	00401821 	move	v1,v0
  4001b4:	8fa20004 	lw	v0,4(sp)
  4001b8:	00000000 	nop
  4001bc:	24420008 	addiu	v0,v0,8
  4001c0:	84420000 	lh	v0,0(v0)
  4001c4:	00000000 	nop
  4001c8:	00621023 	subu	v0,v1,v0
  4001cc:	afa20024 	sw	v0,36(sp)
  4001d0:	8fa30008 	lw	v1,8(sp)
  4001d4:	8fa20020 	lw	v0,32(sp)
  4001d8:	00000000 	nop
  4001dc:	00621021 	addu	v0,v1,v0
  4001e0:	afa20028 	sw	v0,40(sp)
  4001e4:	8fa30008 	lw	v1,8(sp)
  4001e8:	8fa20020 	lw	v0,32(sp)
  4001ec:	00000000 	nop
  4001f0:	00621023 	subu	v0,v1,v0
  4001f4:	afa2002c 	sw	v0,44(sp)
  4001f8:	8fa30010 	lw	v1,16(sp)
  4001fc:	8fa20018 	lw	v0,24(sp)
  400200:	00000000 	nop
  400204:	00621021 	addu	v0,v1,v0
  400208:	afa20030 	sw	v0,48(sp)
  40020c:	8fa30010 	lw	v1,16(sp)
  400210:	8fa20018 	lw	v0,24(sp)
  400214:	00000000 	nop
  400218:	00621023 	subu	v0,v1,v0
  40021c:	afa20034 	sw	v0,52(sp)
  400220:	8fa30028 	lw	v1,40(sp)
  400224:	8fa20030 	lw	v0,48(sp)
  400228:	00000000 	nop
  40022c:	00621021 	addu	v0,v1,v0
  400230:	00021080 	sll	v0,v0,0x2
  400234:	00021c00 	sll	v1,v0,0x10
  400238:	00031c03 	sra	v1,v1,0x10
  40023c:	8fa20004 	lw	v0,4(sp)
  400240:	00000000 	nop
  400244:	a4430000 	sh	v1,0(v0)
  400248:	8fa20004 	lw	v0,4(sp)
  40024c:	00000000 	nop
  400250:	24420008 	addiu	v0,v0,8
  400254:	8fa40028 	lw	a0,40(sp)
  400258:	8fa30030 	lw	v1,48(sp)
  40025c:	00000000 	nop
  400260:	00831823 	subu	v1,a0,v1
  400264:	00031880 	sll	v1,v1,0x2
  400268:	00031c00 	sll	v1,v1,0x10
  40026c:	00031c03 	sra	v1,v1,0x10
  400270:	a4430000 	sh	v1,0(v0)
  400274:	24021151 	li	v0,4433
  400278:	afa20038 	sw	v0,56(sp)
  40027c:	8fa30034 	lw	v1,52(sp)
  400280:	8fa2002c 	lw	v0,44(sp)
  400284:	00000000 	nop
  400288:	00621821 	addu	v1,v1,v0
  40028c:	8fa20038 	lw	v0,56(sp)
  400290:	00000000 	nop
  400294:	00620018 	mult	v1,v0
  400298:	00001012 	mflo	v0
  40029c:	afa2003c 	sw	v0,60(sp)
  4002a0:	2402187e 	li	v0,6270
  4002a4:	afa20038 	sw	v0,56(sp)
  4002a8:	8fa20004 	lw	v0,4(sp)
  4002ac:	00000000 	nop
  4002b0:	24420004 	addiu	v0,v0,4
  4002b4:	8fa4002c 	lw	a0,44(sp)
  4002b8:	8fa30038 	lw	v1,56(sp)
  4002bc:	00000000 	nop
  4002c0:	00830018 	mult	a0,v1
  4002c4:	00002012 	mflo	a0
  4002c8:	8fa3003c 	lw	v1,60(sp)
  4002cc:	00000000 	nop
  4002d0:	00831821 	addu	v1,a0,v1
  4002d4:	00031ac3 	sra	v1,v1,0xb
  4002d8:	00031c00 	sll	v1,v1,0x10
  4002dc:	00031c03 	sra	v1,v1,0x10
  4002e0:	a4430000 	sh	v1,0(v0)
  4002e4:	2402c4df 	li	v0,-15137
  4002e8:	afa20038 	sw	v0,56(sp)
  4002ec:	8fa20004 	lw	v0,4(sp)
  4002f0:	00000000 	nop
  4002f4:	2442000c 	addiu	v0,v0,12
  4002f8:	8fa40034 	lw	a0,52(sp)
  4002fc:	8fa30038 	lw	v1,56(sp)
  400300:	00000000 	nop
  400304:	00830018 	mult	a0,v1
  400308:	00002012 	mflo	a0
  40030c:	8fa3003c 	lw	v1,60(sp)
  400310:	00000000 	nop
  400314:	00831821 	addu	v1,a0,v1
  400318:	00031ac3 	sra	v1,v1,0xb
  40031c:	00031c00 	sll	v1,v1,0x10
  400320:	00031c03 	sra	v1,v1,0x10
  400324:	a4430000 	sh	v1,0(v0)
  400328:	8fa30024 	lw	v1,36(sp)
  40032c:	8fa2000c 	lw	v0,12(sp)
  400330:	00000000 	nop
  400334:	00621021 	addu	v0,v1,v0
  400338:	afa2003c 	sw	v0,60(sp)
  40033c:	8fa3001c 	lw	v1,28(sp)
  400340:	8fa20014 	lw	v0,20(sp)
  400344:	00000000 	nop
  400348:	00621021 	addu	v0,v1,v0
  40034c:	afa20040 	sw	v0,64(sp)
  400350:	8fa30024 	lw	v1,36(sp)
  400354:	8fa20014 	lw	v0,20(sp)
  400358:	00000000 	nop
  40035c:	00621021 	addu	v0,v1,v0
  400360:	afa20044 	sw	v0,68(sp)
  400364:	8fa3001c 	lw	v1,28(sp)
  400368:	8fa2000c 	lw	v0,12(sp)
  40036c:	00000000 	nop
  400370:	00621021 	addu	v0,v1,v0
  400374:	afa20048 	sw	v0,72(sp)
  400378:	240225a1 	li	v0,9633
  40037c:	afa20038 	sw	v0,56(sp)
  400380:	8fa30044 	lw	v1,68(sp)
  400384:	8fa20048 	lw	v0,72(sp)
  400388:	00000000 	nop
  40038c:	00621821 	addu	v1,v1,v0
  400390:	8fa20038 	lw	v0,56(sp)
  400394:	00000000 	nop
  400398:	00620018 	mult	v1,v0
  40039c:	00001012 	mflo	v0
  4003a0:	afa2004c 	sw	v0,76(sp)
  4003a4:	2402098e 	li	v0,2446
  4003a8:	afa20038 	sw	v0,56(sp)
  4003ac:	8fa30024 	lw	v1,36(sp)
  4003b0:	8fa20038 	lw	v0,56(sp)
  4003b4:	00000000 	nop
  4003b8:	00620018 	mult	v1,v0
  4003bc:	00001012 	mflo	v0
  4003c0:	afa20024 	sw	v0,36(sp)
  4003c4:	240241b3 	li	v0,16819
  4003c8:	afa20038 	sw	v0,56(sp)
  4003cc:	8fa3001c 	lw	v1,28(sp)
  4003d0:	8fa20038 	lw	v0,56(sp)
  4003d4:	00000000 	nop
  4003d8:	00620018 	mult	v1,v0
  4003dc:	00001012 	mflo	v0
  4003e0:	afa2001c 	sw	v0,28(sp)
  4003e4:	24026254 	li	v0,25172
  4003e8:	afa20038 	sw	v0,56(sp)
  4003ec:	8fa30014 	lw	v1,20(sp)
  4003f0:	8fa20038 	lw	v0,56(sp)
  4003f4:	00000000 	nop
  4003f8:	00620018 	mult	v1,v0
  4003fc:	00001012 	mflo	v0
  400400:	afa20014 	sw	v0,20(sp)
  400404:	2402300b 	li	v0,12299
  400408:	afa20038 	sw	v0,56(sp)
  40040c:	8fa3000c 	lw	v1,12(sp)
  400410:	8fa20038 	lw	v0,56(sp)
  400414:	00000000 	nop
  400418:	00620018 	mult	v1,v0
  40041c:	00001012 	mflo	v0
  400420:	afa2000c 	sw	v0,12(sp)
  400424:	2402e333 	li	v0,-7373
  400428:	afa20038 	sw	v0,56(sp)
  40042c:	8fa3003c 	lw	v1,60(sp)
  400430:	8fa20038 	lw	v0,56(sp)
  400434:	00000000 	nop
  400438:	00620018 	mult	v1,v0
  40043c:	00001012 	mflo	v0
  400440:	afa2003c 	sw	v0,60(sp)
  400444:	2402adfd 	li	v0,-20995
  400448:	afa20038 	sw	v0,56(sp)
  40044c:	8fa30040 	lw	v1,64(sp)
  400450:	8fa20038 	lw	v0,56(sp)
  400454:	00000000 	nop
  400458:	00620018 	mult	v1,v0
  40045c:	00001012 	mflo	v0
  400460:	afa20040 	sw	v0,64(sp)
  400464:	2402c13b 	li	v0,-16069
  400468:	afa20038 	sw	v0,56(sp)
  40046c:	8fa30044 	lw	v1,68(sp)
  400470:	8fa20038 	lw	v0,56(sp)
  400474:	00000000 	nop
  400478:	00620018 	mult	v1,v0
  40047c:	00001012 	mflo	v0
  400480:	afa20044 	sw	v0,68(sp)
  400484:	2402f384 	li	v0,-3196
  400488:	afa20038 	sw	v0,56(sp)
  40048c:	8fa30048 	lw	v1,72(sp)
  400490:	8fa20038 	lw	v0,56(sp)
  400494:	00000000 	nop
  400498:	00620018 	mult	v1,v0
  40049c:	00001012 	mflo	v0
  4004a0:	afa20048 	sw	v0,72(sp)
  4004a4:	8fa30044 	lw	v1,68(sp)
  4004a8:	8fa2004c 	lw	v0,76(sp)
  4004ac:	00000000 	nop
  4004b0:	00621021 	addu	v0,v1,v0
  4004b4:	afa20044 	sw	v0,68(sp)
  4004b8:	8fa30048 	lw	v1,72(sp)
  4004bc:	8fa2004c 	lw	v0,76(sp)
  4004c0:	00000000 	nop
  4004c4:	00621021 	addu	v0,v1,v0
  4004c8:	afa20048 	sw	v0,72(sp)
  4004cc:	8fa20004 	lw	v0,4(sp)
  4004d0:	00000000 	nop
  4004d4:	2442000e 	addiu	v0,v0,14
  4004d8:	8fa40024 	lw	a0,36(sp)
  4004dc:	8fa3003c 	lw	v1,60(sp)
  4004e0:	00000000 	nop
  4004e4:	00832021 	addu	a0,a0,v1
  4004e8:	8fa30044 	lw	v1,68(sp)
  4004ec:	00000000 	nop
  4004f0:	00831821 	addu	v1,a0,v1
  4004f4:	00031ac3 	sra	v1,v1,0xb
  4004f8:	00031c00 	sll	v1,v1,0x10
  4004fc:	00031c03 	sra	v1,v1,0x10
  400500:	a4430000 	sh	v1,0(v0)
  400504:	8fa20004 	lw	v0,4(sp)
  400508:	00000000 	nop
  40050c:	2442000a 	addiu	v0,v0,10
  400510:	8fa4001c 	lw	a0,28(sp)
  400514:	8fa30040 	lw	v1,64(sp)
  400518:	00000000 	nop
  40051c:	00832021 	addu	a0,a0,v1
  400520:	8fa30048 	lw	v1,72(sp)
  400524:	00000000 	nop
  400528:	00831821 	addu	v1,a0,v1
  40052c:	00031ac3 	sra	v1,v1,0xb
  400530:	00031c00 	sll	v1,v1,0x10
  400534:	00031c03 	sra	v1,v1,0x10
  400538:	a4430000 	sh	v1,0(v0)
  40053c:	8fa20004 	lw	v0,4(sp)
  400540:	00000000 	nop
  400544:	24420006 	addiu	v0,v0,6
  400548:	8fa40014 	lw	a0,20(sp)
  40054c:	8fa30040 	lw	v1,64(sp)
  400550:	00000000 	nop
  400554:	00832021 	addu	a0,a0,v1
  400558:	8fa30044 	lw	v1,68(sp)
  40055c:	00000000 	nop
  400560:	00831821 	addu	v1,a0,v1
  400564:	00031ac3 	sra	v1,v1,0xb
  400568:	00031c00 	sll	v1,v1,0x10
  40056c:	00031c03 	sra	v1,v1,0x10
  400570:	a4430000 	sh	v1,0(v0)
  400574:	8fa20004 	lw	v0,4(sp)
  400578:	00000000 	nop
  40057c:	24420002 	addiu	v0,v0,2
  400580:	8fa4000c 	lw	a0,12(sp)
  400584:	8fa3003c 	lw	v1,60(sp)
  400588:	00000000 	nop
  40058c:	00832021 	addu	a0,a0,v1
  400590:	8fa30048 	lw	v1,72(sp)
  400594:	00000000 	nop
  400598:	00831821 	addu	v1,a0,v1
  40059c:	00031ac3 	sra	v1,v1,0xb
  4005a0:	00031c00 	sll	v1,v1,0x10
  4005a4:	00031c03 	sra	v1,v1,0x10
  4005a8:	a4430000 	sh	v1,0(v0)
  4005ac:	8fa20054 	lw	v0,84(sp)
  4005b0:	00000000 	nop
  4005b4:	00021040 	sll	v0,v0,0x1
  4005b8:	8fa30004 	lw	v1,4(sp)
  4005bc:	00000000 	nop
  4005c0:	00621021 	addu	v0,v1,v0
  4005c4:	afa20004 	sw	v0,4(sp)
  4005c8:	8fa20000 	lw	v0,0(sp)
  4005cc:	00000000 	nop
  4005d0:	24420001 	addiu	v0,v0,1
  4005d4:	afa20000 	sw	v0,0(sp)
  4005d8:	8fa20000 	lw	v0,0(sp)
  4005dc:	00000000 	nop
  4005e0:	28420008 	slti	v0,v0,8
  4005e4:	1440fe94 	bnez	v0,400038 <fdct+0x20>
  4005e8:	00000000 	nop
  4005ec:	8fa20050 	lw	v0,80(sp)
  4005f0:	00000000 	nop
  4005f4:	afa20004 	sw	v0,4(sp)
  4005f8:	0810033c 	j	400cf0 <fdct+0xcd8>
  4005fc:	afa00000 	sw	zero,0(sp)
  400600:	8fa20004 	lw	v0,4(sp)
  400604:	00000000 	nop
  400608:	84420000 	lh	v0,0(v0)
  40060c:	00000000 	nop
  400610:	00401821 	move	v1,v0
  400614:	8fa20054 	lw	v0,84(sp)
  400618:	00000000 	nop
  40061c:	00021040 	sll	v0,v0,0x1
  400620:	000220c0 	sll	a0,v0,0x3
  400624:	00821023 	subu	v0,a0,v0
  400628:	8fa40004 	lw	a0,4(sp)
  40062c:	00000000 	nop
  400630:	00821021 	addu	v0,a0,v0
  400634:	84420000 	lh	v0,0(v0)
  400638:	00000000 	nop
  40063c:	00621021 	addu	v0,v1,v0
  400640:	afa20008 	sw	v0,8(sp)
  400644:	8fa20004 	lw	v0,4(sp)
  400648:	00000000 	nop
  40064c:	84420000 	lh	v0,0(v0)
  400650:	00000000 	nop
  400654:	00401821 	move	v1,v0
  400658:	8fa20054 	lw	v0,84(sp)
  40065c:	00000000 	nop
  400660:	00021040 	sll	v0,v0,0x1
  400664:	000220c0 	sll	a0,v0,0x3
  400668:	00821023 	subu	v0,a0,v0
  40066c:	8fa40004 	lw	a0,4(sp)
  400670:	00000000 	nop
  400674:	00821021 	addu	v0,a0,v0
  400678:	84420000 	lh	v0,0(v0)
  40067c:	00000000 	nop
  400680:	00621023 	subu	v0,v1,v0
  400684:	afa2000c 	sw	v0,12(sp)
  400688:	8fa20054 	lw	v0,84(sp)
  40068c:	00000000 	nop
  400690:	00021040 	sll	v0,v0,0x1
  400694:	8fa30004 	lw	v1,4(sp)
  400698:	00000000 	nop
  40069c:	00621021 	addu	v0,v1,v0
  4006a0:	84420000 	lh	v0,0(v0)
  4006a4:	00000000 	nop
  4006a8:	00401821 	move	v1,v0
  4006ac:	8fa20054 	lw	v0,84(sp)
  4006b0:	00000000 	nop
  4006b4:	00021080 	sll	v0,v0,0x2
  4006b8:	00022080 	sll	a0,v0,0x2
  4006bc:	00821023 	subu	v0,a0,v0
  4006c0:	8fa40004 	lw	a0,4(sp)
  4006c4:	00000000 	nop
  4006c8:	00821021 	addu	v0,a0,v0
  4006cc:	84420000 	lh	v0,0(v0)
  4006d0:	00000000 	nop
  4006d4:	00621021 	addu	v0,v1,v0
  4006d8:	afa20010 	sw	v0,16(sp)
  4006dc:	8fa20054 	lw	v0,84(sp)
  4006e0:	00000000 	nop
  4006e4:	00021040 	sll	v0,v0,0x1
  4006e8:	8fa30004 	lw	v1,4(sp)
  4006ec:	00000000 	nop
  4006f0:	00621021 	addu	v0,v1,v0
  4006f4:	84420000 	lh	v0,0(v0)
  4006f8:	00000000 	nop
  4006fc:	00401821 	move	v1,v0
  400700:	8fa20054 	lw	v0,84(sp)
  400704:	00000000 	nop
  400708:	00021080 	sll	v0,v0,0x2
  40070c:	00022080 	sll	a0,v0,0x2
  400710:	00821023 	subu	v0,a0,v0
  400714:	8fa40004 	lw	a0,4(sp)
  400718:	00000000 	nop
  40071c:	00821021 	addu	v0,a0,v0
  400720:	84420000 	lh	v0,0(v0)
  400724:	00000000 	nop
  400728:	00621023 	subu	v0,v1,v0
  40072c:	afa20014 	sw	v0,20(sp)
  400730:	8fa20054 	lw	v0,84(sp)
  400734:	00000000 	nop
  400738:	00021080 	sll	v0,v0,0x2
  40073c:	8fa30004 	lw	v1,4(sp)
  400740:	00000000 	nop
  400744:	00621021 	addu	v0,v1,v0
  400748:	84420000 	lh	v0,0(v0)
  40074c:	00000000 	nop
  400750:	00401821 	move	v1,v0
  400754:	8fa20054 	lw	v0,84(sp)
  400758:	00000000 	nop
  40075c:	00021040 	sll	v0,v0,0x1
  400760:	00022080 	sll	a0,v0,0x2
  400764:	00441021 	addu	v0,v0,a0
  400768:	8fa40004 	lw	a0,4(sp)
  40076c:	00000000 	nop
  400770:	00821021 	addu	v0,a0,v0
  400774:	84420000 	lh	v0,0(v0)
  400778:	00000000 	nop
  40077c:	00621021 	addu	v0,v1,v0
  400780:	afa20018 	sw	v0,24(sp)
  400784:	8fa20054 	lw	v0,84(sp)
  400788:	00000000 	nop
  40078c:	00021080 	sll	v0,v0,0x2
  400790:	8fa30004 	lw	v1,4(sp)
  400794:	00000000 	nop
  400798:	00621021 	addu	v0,v1,v0
  40079c:	84420000 	lh	v0,0(v0)
  4007a0:	00000000 	nop
  4007a4:	00401821 	move	v1,v0
  4007a8:	8fa20054 	lw	v0,84(sp)
  4007ac:	00000000 	nop
  4007b0:	00021040 	sll	v0,v0,0x1
  4007b4:	00022080 	sll	a0,v0,0x2
  4007b8:	00441021 	addu	v0,v0,a0
  4007bc:	8fa40004 	lw	a0,4(sp)
  4007c0:	00000000 	nop
  4007c4:	00821021 	addu	v0,a0,v0
  4007c8:	84420000 	lh	v0,0(v0)
  4007cc:	00000000 	nop
  4007d0:	00621023 	subu	v0,v1,v0
  4007d4:	afa2001c 	sw	v0,28(sp)
  4007d8:	8fa20054 	lw	v0,84(sp)
  4007dc:	00000000 	nop
  4007e0:	00021040 	sll	v0,v0,0x1
  4007e4:	00021880 	sll	v1,v0,0x2
  4007e8:	00621023 	subu	v0,v1,v0
  4007ec:	8fa30004 	lw	v1,4(sp)
  4007f0:	00000000 	nop
  4007f4:	00621021 	addu	v0,v1,v0
  4007f8:	84420000 	lh	v0,0(v0)
  4007fc:	00000000 	nop
  400800:	00401821 	move	v1,v0
  400804:	8fa20054 	lw	v0,84(sp)
  400808:	00000000 	nop
  40080c:	000210c0 	sll	v0,v0,0x3
  400810:	8fa40004 	lw	a0,4(sp)
  400814:	00000000 	nop
  400818:	00821021 	addu	v0,a0,v0
  40081c:	84420000 	lh	v0,0(v0)
  400820:	00000000 	nop
  400824:	00621021 	addu	v0,v1,v0
  400828:	afa20020 	sw	v0,32(sp)
  40082c:	8fa20054 	lw	v0,84(sp)
  400830:	00000000 	nop
  400834:	00021040 	sll	v0,v0,0x1
  400838:	00021880 	sll	v1,v0,0x2
  40083c:	00621023 	subu	v0,v1,v0
  400840:	8fa30004 	lw	v1,4(sp)
  400844:	00000000 	nop
  400848:	00621021 	addu	v0,v1,v0
  40084c:	84420000 	lh	v0,0(v0)
  400850:	00000000 	nop
  400854:	00401821 	move	v1,v0
  400858:	8fa20054 	lw	v0,84(sp)
  40085c:	00000000 	nop
  400860:	000210c0 	sll	v0,v0,0x3
  400864:	8fa40004 	lw	a0,4(sp)
  400868:	00000000 	nop
  40086c:	00821021 	addu	v0,a0,v0
  400870:	84420000 	lh	v0,0(v0)
  400874:	00000000 	nop
  400878:	00621023 	subu	v0,v1,v0
  40087c:	afa20024 	sw	v0,36(sp)
  400880:	8fa30008 	lw	v1,8(sp)
  400884:	8fa20020 	lw	v0,32(sp)
  400888:	00000000 	nop
  40088c:	00621021 	addu	v0,v1,v0
  400890:	afa20028 	sw	v0,40(sp)
  400894:	8fa30008 	lw	v1,8(sp)
  400898:	8fa20020 	lw	v0,32(sp)
  40089c:	00000000 	nop
  4008a0:	00621023 	subu	v0,v1,v0
  4008a4:	afa2002c 	sw	v0,44(sp)
  4008a8:	8fa30010 	lw	v1,16(sp)
  4008ac:	8fa20018 	lw	v0,24(sp)
  4008b0:	00000000 	nop
  4008b4:	00621021 	addu	v0,v1,v0
  4008b8:	afa20030 	sw	v0,48(sp)
  4008bc:	8fa30010 	lw	v1,16(sp)
  4008c0:	8fa20018 	lw	v0,24(sp)
  4008c4:	00000000 	nop
  4008c8:	00621023 	subu	v0,v1,v0
  4008cc:	afa20034 	sw	v0,52(sp)
  4008d0:	8fa30028 	lw	v1,40(sp)
  4008d4:	8fa20030 	lw	v0,48(sp)
  4008d8:	00000000 	nop
  4008dc:	00621021 	addu	v0,v1,v0
  4008e0:	00021143 	sra	v0,v0,0x5
  4008e4:	00021c00 	sll	v1,v0,0x10
  4008e8:	00031c03 	sra	v1,v1,0x10
  4008ec:	8fa20004 	lw	v0,4(sp)
  4008f0:	00000000 	nop
  4008f4:	a4430000 	sh	v1,0(v0)
  4008f8:	8fa20054 	lw	v0,84(sp)
  4008fc:	00000000 	nop
  400900:	000210c0 	sll	v0,v0,0x3
  400904:	8fa30004 	lw	v1,4(sp)
  400908:	00000000 	nop
  40090c:	00621021 	addu	v0,v1,v0
  400910:	8fa40028 	lw	a0,40(sp)
  400914:	8fa30030 	lw	v1,48(sp)
  400918:	00000000 	nop
  40091c:	00831823 	subu	v1,a0,v1
  400920:	00031943 	sra	v1,v1,0x5
  400924:	00031c00 	sll	v1,v1,0x10
  400928:	00031c03 	sra	v1,v1,0x10
  40092c:	a4430000 	sh	v1,0(v0)
  400930:	24021151 	li	v0,4433
  400934:	afa20038 	sw	v0,56(sp)
  400938:	8fa30034 	lw	v1,52(sp)
  40093c:	8fa2002c 	lw	v0,44(sp)
  400940:	00000000 	nop
  400944:	00621821 	addu	v1,v1,v0
  400948:	8fa20038 	lw	v0,56(sp)
  40094c:	00000000 	nop
  400950:	00620018 	mult	v1,v0
  400954:	00001012 	mflo	v0
  400958:	afa2003c 	sw	v0,60(sp)
  40095c:	2402187e 	li	v0,6270
  400960:	afa20038 	sw	v0,56(sp)
  400964:	8fa20054 	lw	v0,84(sp)
  400968:	00000000 	nop
  40096c:	00021080 	sll	v0,v0,0x2
  400970:	8fa30004 	lw	v1,4(sp)
  400974:	00000000 	nop
  400978:	00621021 	addu	v0,v1,v0
  40097c:	8fa4002c 	lw	a0,44(sp)
  400980:	8fa30038 	lw	v1,56(sp)
  400984:	00000000 	nop
  400988:	00830018 	mult	a0,v1
  40098c:	00002012 	mflo	a0
  400990:	8fa3003c 	lw	v1,60(sp)
  400994:	00000000 	nop
  400998:	00831821 	addu	v1,a0,v1
  40099c:	00031c83 	sra	v1,v1,0x12
  4009a0:	00031c00 	sll	v1,v1,0x10
  4009a4:	00031c03 	sra	v1,v1,0x10
  4009a8:	a4430000 	sh	v1,0(v0)
  4009ac:	2402c4df 	li	v0,-15137
  4009b0:	afa20038 	sw	v0,56(sp)
  4009b4:	8fa20054 	lw	v0,84(sp)
  4009b8:	00000000 	nop
  4009bc:	00021080 	sll	v0,v0,0x2
  4009c0:	00021880 	sll	v1,v0,0x2
  4009c4:	00621023 	subu	v0,v1,v0
  4009c8:	8fa30004 	lw	v1,4(sp)
  4009cc:	00000000 	nop
  4009d0:	00621021 	addu	v0,v1,v0
  4009d4:	8fa40034 	lw	a0,52(sp)
  4009d8:	8fa30038 	lw	v1,56(sp)
  4009dc:	00000000 	nop
  4009e0:	00830018 	mult	a0,v1
  4009e4:	00002012 	mflo	a0
  4009e8:	8fa3003c 	lw	v1,60(sp)
  4009ec:	00000000 	nop
  4009f0:	00831821 	addu	v1,a0,v1
  4009f4:	00031c83 	sra	v1,v1,0x12
  4009f8:	00031c00 	sll	v1,v1,0x10
  4009fc:	00031c03 	sra	v1,v1,0x10
  400a00:	a4430000 	sh	v1,0(v0)
  400a04:	8fa30024 	lw	v1,36(sp)
  400a08:	8fa2000c 	lw	v0,12(sp)
  400a0c:	00000000 	nop
  400a10:	00621021 	addu	v0,v1,v0
  400a14:	afa2003c 	sw	v0,60(sp)
  400a18:	8fa3001c 	lw	v1,28(sp)
  400a1c:	8fa20014 	lw	v0,20(sp)
  400a20:	00000000 	nop
  400a24:	00621021 	addu	v0,v1,v0
  400a28:	afa20040 	sw	v0,64(sp)
  400a2c:	8fa30024 	lw	v1,36(sp)
  400a30:	8fa20014 	lw	v0,20(sp)
  400a34:	00000000 	nop
  400a38:	00621021 	addu	v0,v1,v0
  400a3c:	afa20044 	sw	v0,68(sp)
  400a40:	8fa3001c 	lw	v1,28(sp)
  400a44:	8fa2000c 	lw	v0,12(sp)
  400a48:	00000000 	nop
  400a4c:	00621021 	addu	v0,v1,v0
  400a50:	afa20048 	sw	v0,72(sp)
  400a54:	240225a1 	li	v0,9633
  400a58:	afa20038 	sw	v0,56(sp)
  400a5c:	8fa30044 	lw	v1,68(sp)
  400a60:	8fa20048 	lw	v0,72(sp)
  400a64:	00000000 	nop
  400a68:	00621821 	addu	v1,v1,v0
  400a6c:	8fa20038 	lw	v0,56(sp)
  400a70:	00000000 	nop
  400a74:	00620018 	mult	v1,v0
  400a78:	00001012 	mflo	v0
  400a7c:	afa2004c 	sw	v0,76(sp)
  400a80:	2402098e 	li	v0,2446
  400a84:	afa20038 	sw	v0,56(sp)
  400a88:	8fa30024 	lw	v1,36(sp)
  400a8c:	8fa20038 	lw	v0,56(sp)
  400a90:	00000000 	nop
  400a94:	00620018 	mult	v1,v0
  400a98:	00001012 	mflo	v0
  400a9c:	afa20024 	sw	v0,36(sp)
  400aa0:	240241b3 	li	v0,16819
  400aa4:	afa20038 	sw	v0,56(sp)
  400aa8:	8fa3001c 	lw	v1,28(sp)
  400aac:	8fa20038 	lw	v0,56(sp)
  400ab0:	00000000 	nop
  400ab4:	00620018 	mult	v1,v0
  400ab8:	00001012 	mflo	v0
  400abc:	afa2001c 	sw	v0,28(sp)
  400ac0:	24026254 	li	v0,25172
  400ac4:	afa20038 	sw	v0,56(sp)
  400ac8:	8fa30014 	lw	v1,20(sp)
  400acc:	8fa20038 	lw	v0,56(sp)
  400ad0:	00000000 	nop
  400ad4:	00620018 	mult	v1,v0
  400ad8:	00001012 	mflo	v0
  400adc:	afa20014 	sw	v0,20(sp)
  400ae0:	2402300b 	li	v0,12299
  400ae4:	afa20038 	sw	v0,56(sp)
  400ae8:	8fa3000c 	lw	v1,12(sp)
  400aec:	8fa20038 	lw	v0,56(sp)
  400af0:	00000000 	nop
  400af4:	00620018 	mult	v1,v0
  400af8:	00001012 	mflo	v0
  400afc:	afa2000c 	sw	v0,12(sp)
  400b00:	2402e333 	li	v0,-7373
  400b04:	afa20038 	sw	v0,56(sp)
  400b08:	8fa3003c 	lw	v1,60(sp)
  400b0c:	8fa20038 	lw	v0,56(sp)
  400b10:	00000000 	nop
  400b14:	00620018 	mult	v1,v0
  400b18:	00001012 	mflo	v0
  400b1c:	afa2003c 	sw	v0,60(sp)
  400b20:	2402adfd 	li	v0,-20995
  400b24:	afa20038 	sw	v0,56(sp)
  400b28:	8fa30040 	lw	v1,64(sp)
  400b2c:	8fa20038 	lw	v0,56(sp)
  400b30:	00000000 	nop
  400b34:	00620018 	mult	v1,v0
  400b38:	00001012 	mflo	v0
  400b3c:	afa20040 	sw	v0,64(sp)
  400b40:	2402c13b 	li	v0,-16069
  400b44:	afa20038 	sw	v0,56(sp)
  400b48:	8fa30044 	lw	v1,68(sp)
  400b4c:	8fa20038 	lw	v0,56(sp)
  400b50:	00000000 	nop
  400b54:	00620018 	mult	v1,v0
  400b58:	00001012 	mflo	v0
  400b5c:	afa20044 	sw	v0,68(sp)
  400b60:	2402f384 	li	v0,-3196
  400b64:	afa20038 	sw	v0,56(sp)
  400b68:	8fa30048 	lw	v1,72(sp)
  400b6c:	8fa20038 	lw	v0,56(sp)
  400b70:	00000000 	nop
  400b74:	00620018 	mult	v1,v0
  400b78:	00001012 	mflo	v0
  400b7c:	afa20048 	sw	v0,72(sp)
  400b80:	8fa30044 	lw	v1,68(sp)
  400b84:	8fa2004c 	lw	v0,76(sp)
  400b88:	00000000 	nop
  400b8c:	00621021 	addu	v0,v1,v0
  400b90:	afa20044 	sw	v0,68(sp)
  400b94:	8fa30048 	lw	v1,72(sp)
  400b98:	8fa2004c 	lw	v0,76(sp)
  400b9c:	00000000 	nop
  400ba0:	00621021 	addu	v0,v1,v0
  400ba4:	afa20048 	sw	v0,72(sp)
  400ba8:	8fa20054 	lw	v0,84(sp)
  400bac:	00000000 	nop
  400bb0:	00021040 	sll	v0,v0,0x1
  400bb4:	000218c0 	sll	v1,v0,0x3
  400bb8:	00621023 	subu	v0,v1,v0
  400bbc:	8fa30004 	lw	v1,4(sp)
  400bc0:	00000000 	nop
  400bc4:	00621021 	addu	v0,v1,v0
  400bc8:	8fa40024 	lw	a0,36(sp)
  400bcc:	8fa3003c 	lw	v1,60(sp)
  400bd0:	00000000 	nop
  400bd4:	00832021 	addu	a0,a0,v1
  400bd8:	8fa30044 	lw	v1,68(sp)
  400bdc:	00000000 	nop
  400be0:	00831821 	addu	v1,a0,v1
  400be4:	00031c83 	sra	v1,v1,0x12
  400be8:	00031c00 	sll	v1,v1,0x10
  400bec:	00031c03 	sra	v1,v1,0x10
  400bf0:	a4430000 	sh	v1,0(v0)
  400bf4:	8fa20054 	lw	v0,84(sp)
  400bf8:	00000000 	nop
  400bfc:	00021040 	sll	v0,v0,0x1
  400c00:	00021880 	sll	v1,v0,0x2
  400c04:	00431021 	addu	v0,v0,v1
  400c08:	8fa30004 	lw	v1,4(sp)
  400c0c:	00000000 	nop
  400c10:	00621021 	addu	v0,v1,v0
  400c14:	8fa4001c 	lw	a0,28(sp)
  400c18:	8fa30040 	lw	v1,64(sp)
  400c1c:	00000000 	nop
  400c20:	00832021 	addu	a0,a0,v1
  400c24:	8fa30048 	lw	v1,72(sp)
  400c28:	00000000 	nop
  400c2c:	00831821 	addu	v1,a0,v1
  400c30:	00031c83 	sra	v1,v1,0x12
  400c34:	00031c00 	sll	v1,v1,0x10
  400c38:	00031c03 	sra	v1,v1,0x10
  400c3c:	a4430000 	sh	v1,0(v0)
  400c40:	8fa20054 	lw	v0,84(sp)
  400c44:	00000000 	nop
  400c48:	00021040 	sll	v0,v0,0x1
  400c4c:	00021880 	sll	v1,v0,0x2
  400c50:	00621023 	subu	v0,v1,v0
  400c54:	8fa30004 	lw	v1,4(sp)
  400c58:	00000000 	nop
  400c5c:	00621021 	addu	v0,v1,v0
  400c60:	8fa40014 	lw	a0,20(sp)
  400c64:	8fa30040 	lw	v1,64(sp)
  400c68:	00000000 	nop
  400c6c:	00832021 	addu	a0,a0,v1
  400c70:	8fa30044 	lw	v1,68(sp)
  400c74:	00000000 	nop
  400c78:	00831821 	addu	v1,a0,v1
  400c7c:	00031c83 	sra	v1,v1,0x12
  400c80:	00031c00 	sll	v1,v1,0x10
  400c84:	00031c03 	sra	v1,v1,0x10
  400c88:	a4430000 	sh	v1,0(v0)
  400c8c:	8fa20054 	lw	v0,84(sp)
  400c90:	00000000 	nop
  400c94:	00021040 	sll	v0,v0,0x1
  400c98:	8fa30004 	lw	v1,4(sp)
  400c9c:	00000000 	nop
  400ca0:	00621021 	addu	v0,v1,v0
  400ca4:	8fa4000c 	lw	a0,12(sp)
  400ca8:	8fa3003c 	lw	v1,60(sp)
  400cac:	00000000 	nop
  400cb0:	00832021 	addu	a0,a0,v1
  400cb4:	8fa30048 	lw	v1,72(sp)
  400cb8:	00000000 	nop
  400cbc:	00831821 	addu	v1,a0,v1
  400cc0:	00031c83 	sra	v1,v1,0x12
  400cc4:	00031c00 	sll	v1,v1,0x10
  400cc8:	00031c03 	sra	v1,v1,0x10
  400ccc:	a4430000 	sh	v1,0(v0)
  400cd0:	8fa20004 	lw	v0,4(sp)
  400cd4:	00000000 	nop
  400cd8:	24420002 	addiu	v0,v0,2
  400cdc:	afa20004 	sw	v0,4(sp)
  400ce0:	8fa20000 	lw	v0,0(sp)
  400ce4:	00000000 	nop
  400ce8:	24420001 	addiu	v0,v0,1
  400cec:	afa20000 	sw	v0,0(sp)
  400cf0:	8fa20000 	lw	v0,0(sp)
  400cf4:	00000000 	nop
  400cf8:	28420008 	slti	v0,v0,8
  400cfc:	1440fe40 	bnez	v0,400600 <fdct+0x5e8>
  400d00:	00000000 	nop
  400d04:	03e00008 	jr	ra
  400d08:	27bd0050 	addiu	sp,sp,80

00400d0c <main>:
  400d0c:	27bdffe8 	addiu	sp,sp,-24
  400d10:	afbf0014 	sw	ra,20(sp)
  400d14:	3c020040 	lui	v0,0x40
  400d18:	24441d40 	addiu	a0,v0,7488
  400d1c:	24050008 	li	a1,8
  400d20:	0c100006 	jal	400018 <fdct>
  400d24:	00000000 	nop
  400d28:	3c020040 	lui	v0,0x40
  400d2c:	84421d40 	lh	v0,7488(v0)
  400d30:	8fbf0014 	lw	ra,20(sp)
  400d34:	27bd0018 	addiu	sp,sp,24
  400d38:	03e00008 	jr	ra
  400d3c:	00000000 	nop
