
/tmp/fft:     file format elf32-bigmips

SYMBOL TABLE:
00400000 l    d  .reginfo	00000000 .reginfo
00400018 l    d  .text	00000000 .text
00402188 l    d  .sdata	00000000 .sdata
004021e0 l    d  .bss	00000000 .bss
00000000 l    d  .pdr	00000000 .pdr
00000000 l    d  .wcet_annot	00000000 .wcet_annot
00000000 l    d  .comment	00000000 .comment
00000000 l    d  .debug_aranges	00000000 .debug_aranges
00000000 l    d  .debug_info	00000000 .debug_info
00000000 l    d  .debug_abbrev	00000000 .debug_abbrev
00000000 l    d  .debug_line	00000000 .debug_line
00000000 l    d  .debug_frame	00000000 .debug_frame
00000000 l    d  .debug_str	00000000 .debug_str
00000000 l    d  .debug_loc	00000000 .debug_loc
00000000 l    d  .gnu.attributes	00000000 .gnu.attributes
00000010 l    d  .mdebug.abi32	00000000 .mdebug.abi32
00000000 l    df *ABS*	00000000 fft.c
00400018 l     F .text	0000009c fabs
004000b4 l     F .text	000000dc log
00400190 l     F .text	000003d4 sin
00400564 l     F .text	00000080 cos
00402184 g       .sdata	00000000 _fdata
0040a180 g       *ABS*	00000000 _gp
004005e4 g     F .text	00000a44 fft1
004021e0 g     O .bss	00000040 ai
00400018 g       .text	00000000 _ftext
004021e0 g       *ABS*	00000000 __bss_start
00401028 g     F .text	0000015c main
004021e0 g       *ABS*	00000000 _edata
00402260 g       *ABS*	00000000 _end
00402220 g     O .bss	00000040 ar
004021e0 g       *ABS*	00000000 _fbss



Disassembly of section .text:

00400018 <fabs>:
  400018:	27bdfff8 	addiu	sp,sp,-8
  40001c:	e7ac000c 	swc1	$f12,12(sp)
  400020:	e7ad0008 	swc1	$f13,8(sp)
  400024:	8fa5000c 	lw	a1,12(sp)
  400028:	8fa40008 	lw	a0,8(sp)
  40002c:	00001821 	move	v1,zero
  400030:	00001021 	move	v0,zero
  400034:	44850000 	mtc1	a1,$f0
  400038:	00000000 	nop
  40003c:	44840800 	mtc1	a0,$f1
  400040:	44831000 	mtc1	v1,$f2
  400044:	00000000 	nop
  400048:	44821800 	mtc1	v0,$f3
  40004c:	00000000 	nop
  400050:	4620103e 	c.le.d	$f2,$f0
  400054:	00000000 	nop
  400058:	45000007 	bc1f	400078 <fabs+0x60>
  40005c:	00000000 	nop
  400060:	8fa3000c 	lw	v1,12(sp)
  400064:	8fa20008 	lw	v0,8(sp)
  400068:	afa30004 	sw	v1,4(sp)
  40006c:	afa20000 	sw	v0,0(sp)
  400070:	08100025 	j	400094 <fabs+0x7c>
  400074:	00000000 	nop
  400078:	8fa30008 	lw	v1,8(sp)
  40007c:	3c028000 	lui	v0,0x8000
  400080:	00621026 	xor	v0,v1,v0
  400084:	afa20000 	sw	v0,0(sp)
  400088:	8fa2000c 	lw	v0,12(sp)
  40008c:	00000000 	nop
  400090:	afa20004 	sw	v0,4(sp)
  400094:	8fa30004 	lw	v1,4(sp)
  400098:	8fa20000 	lw	v0,0(sp)
  40009c:	44830000 	mtc1	v1,$f0
  4000a0:	00000000 	nop
  4000a4:	44820800 	mtc1	v0,$f1
  4000a8:	27bd0008 	addiu	sp,sp,8
  4000ac:	03e00008 	jr	ra
  4000b0:	00000000 	nop

004000b4 <log>:
  4000b4:	27bdfff8 	addiu	sp,sp,-8
  4000b8:	e7ac000c 	swc1	$f12,12(sp)
  4000bc:	e7ad0008 	swc1	$f13,8(sp)
  4000c0:	8f83800c 	lw	v1,-32756(gp)
  4000c4:	8f828008 	lw	v0,-32760(gp)
  4000c8:	afa30004 	sw	v1,4(sp)
  4000cc:	afa20000 	sw	v0,0(sp)
  4000d0:	8fa5000c 	lw	a1,12(sp)
  4000d4:	8fa40008 	lw	a0,8(sp)
  4000d8:	8f838014 	lw	v1,-32748(gp)
  4000dc:	8f828010 	lw	v0,-32752(gp)
  4000e0:	44850000 	mtc1	a1,$f0
  4000e4:	00000000 	nop
  4000e8:	44840800 	mtc1	a0,$f1
  4000ec:	44831000 	mtc1	v1,$f2
  4000f0:	00000000 	nop
  4000f4:	44821800 	mtc1	v0,$f3
  4000f8:	00000000 	nop
  4000fc:	46220032 	c.eq.d	$f0,$f2
  400100:	00000000 	nop
  400104:	45000007 	bc1f	400124 <log+0x70>
  400108:	00000000 	nop
  40010c:	8f83801c 	lw	v1,-32740(gp)
  400110:	8f828018 	lw	v0,-32744(gp)
  400114:	afa30004 	sw	v1,4(sp)
  400118:	afa20000 	sw	v0,0(sp)
  40011c:	0810005c 	j	400170 <log+0xbc>
  400120:	00000000 	nop
  400124:	8fa5000c 	lw	a1,12(sp)
  400128:	8fa40008 	lw	a0,8(sp)
  40012c:	8f838024 	lw	v1,-32732(gp)
  400130:	8f828020 	lw	v0,-32736(gp)
  400134:	44850000 	mtc1	a1,$f0
  400138:	00000000 	nop
  40013c:	44840800 	mtc1	a0,$f1
  400140:	44831000 	mtc1	v1,$f2
  400144:	00000000 	nop
  400148:	44821800 	mtc1	v0,$f3
  40014c:	00000000 	nop
  400150:	46220032 	c.eq.d	$f0,$f2
  400154:	00000000 	nop
  400158:	45000005 	bc1f	400170 <log+0xbc>
  40015c:	00000000 	nop
  400160:	8f83802c 	lw	v1,-32724(gp)
  400164:	8f828028 	lw	v0,-32728(gp)
  400168:	afa30004 	sw	v1,4(sp)
  40016c:	afa20000 	sw	v0,0(sp)
  400170:	8fa30004 	lw	v1,4(sp)
  400174:	8fa20000 	lw	v0,0(sp)
  400178:	44830000 	mtc1	v1,$f0
  40017c:	00000000 	nop
  400180:	44820800 	mtc1	v0,$f1
  400184:	27bd0008 	addiu	sp,sp,8
  400188:	03e00008 	jr	ra
  40018c:	00000000 	nop

00400190 <sin>:
  400190:	27bdffc8 	addiu	sp,sp,-56
  400194:	afbf0034 	sw	ra,52(sp)
  400198:	afb10030 	sw	s1,48(sp)
  40019c:	afb0002c 	sw	s0,44(sp)
  4001a0:	e7ac003c 	swc1	$f12,60(sp)
  4001a4:	e7ad0038 	swc1	$f13,56(sp)
  4001a8:	24020001 	li	v0,1
  4001ac:	afa20020 	sw	v0,32(sp)
  4001b0:	8fa3003c 	lw	v1,60(sp)
  4001b4:	8fa20038 	lw	v0,56(sp)
  4001b8:	afa3001c 	sw	v1,28(sp)
  4001bc:	afa20018 	sw	v0,24(sp)
  4001c0:	8fa3001c 	lw	v1,28(sp)
  4001c4:	8fa20018 	lw	v0,24(sp)
  4001c8:	afa30014 	sw	v1,20(sp)
  4001cc:	afa20010 	sw	v0,16(sp)
  4001d0:	8fa7003c 	lw	a3,60(sp)
  4001d4:	8fa60038 	lw	a2,56(sp)
  4001d8:	8fa3003c 	lw	v1,60(sp)
  4001dc:	8fa20038 	lw	v0,56(sp)
  4001e0:	44870000 	mtc1	a3,$f0
  4001e4:	44860800 	mtc1	a2,$f1
  4001e8:	44831000 	mtc1	v1,$f2
  4001ec:	44821800 	mtc1	v0,$f3
  4001f0:	00000000 	nop
  4001f4:	46220002 	mul.d	$f0,$f0,$f2
  4001f8:	44030000 	mfc1	v1,$f0
  4001fc:	44020800 	mfc1	v0,$f1
  400200:	3c068000 	lui	a2,0x8000
  400204:	00462026 	xor	a0,v0,a2
  400208:	00602821 	move	a1,v1
  40020c:	8fa3001c 	lw	v1,28(sp)
  400210:	8fa20018 	lw	v0,24(sp)
  400214:	44850000 	mtc1	a1,$f0
  400218:	44840800 	mtc1	a0,$f1
  40021c:	44831000 	mtc1	v1,$f2
  400220:	44821800 	mtc1	v0,$f3
  400224:	00000000 	nop
  400228:	46220002 	mul.d	$f0,$f0,$f2
  40022c:	44050000 	mfc1	a1,$f0
  400230:	44040800 	mfc1	a0,$f1
  400234:	8fa20020 	lw	v0,32(sp)
  400238:	00000000 	nop
  40023c:	44820000 	mtc1	v0,$f0
  400240:	00000000 	nop
  400244:	46800021 	cvt.d.w	$f0,$f0
  400248:	44030000 	mfc1	v1,$f0
  40024c:	44020800 	mfc1	v0,$f1
  400250:	44831000 	mtc1	v1,$f2
  400254:	44821800 	mtc1	v0,$f3
  400258:	44830000 	mtc1	v1,$f0
  40025c:	44820800 	mtc1	v0,$f1
  400260:	00000000 	nop
  400264:	46201080 	add.d	$f2,$f2,$f0
  400268:	44071000 	mfc1	a3,$f2
  40026c:	44061800 	mfc1	a2,$f3
  400270:	8fa20020 	lw	v0,32(sp)
  400274:	00000000 	nop
  400278:	44821000 	mtc1	v0,$f2
  40027c:	00000000 	nop
  400280:	468010a1 	cvt.d.w	$f2,$f2
  400284:	44031000 	mfc1	v1,$f2
  400288:	44021800 	mfc1	v0,$f3
  40028c:	44830000 	mtc1	v1,$f0
  400290:	44820800 	mtc1	v0,$f1
  400294:	44831000 	mtc1	v1,$f2
  400298:	44821800 	mtc1	v0,$f3
  40029c:	00000000 	nop
  4002a0:	46220000 	add.d	$f0,$f0,$f2
  4002a4:	44090000 	mfc1	t1,$f0
  4002a8:	44080800 	mfc1	t0,$f1
  4002ac:	8f83800c 	lw	v1,-32756(gp)
  4002b0:	8f828008 	lw	v0,-32760(gp)
  4002b4:	44890000 	mtc1	t1,$f0
  4002b8:	44880800 	mtc1	t0,$f1
  4002bc:	44831000 	mtc1	v1,$f2
  4002c0:	44821800 	mtc1	v0,$f3
  4002c4:	00000000 	nop
  4002c8:	46220000 	add.d	$f0,$f0,$f2
  4002cc:	44030000 	mfc1	v1,$f0
  4002d0:	44020800 	mfc1	v0,$f1
  4002d4:	44870000 	mtc1	a3,$f0
  4002d8:	44860800 	mtc1	a2,$f1
  4002dc:	44831000 	mtc1	v1,$f2
  4002e0:	44821800 	mtc1	v0,$f3
  4002e4:	00000000 	nop
  4002e8:	46220002 	mul.d	$f0,$f0,$f2
  4002ec:	44030000 	mfc1	v1,$f0
  4002f0:	44020800 	mfc1	v0,$f1
  4002f4:	44850000 	mtc1	a1,$f0
  4002f8:	44840800 	mtc1	a0,$f1
  4002fc:	44831000 	mtc1	v1,$f2
  400300:	44821800 	mtc1	v0,$f3
  400304:	00000000 	nop
  400308:	46220003 	div.d	$f0,$f0,$f2
  40030c:	44030000 	mfc1	v1,$f0
  400310:	44020800 	mfc1	v0,$f1
  400314:	afa3001c 	sw	v1,28(sp)
  400318:	afa20018 	sw	v0,24(sp)
  40031c:	8fa50014 	lw	a1,20(sp)
  400320:	8fa40010 	lw	a0,16(sp)
  400324:	8fa3001c 	lw	v1,28(sp)
  400328:	8fa20018 	lw	v0,24(sp)
  40032c:	44850000 	mtc1	a1,$f0
  400330:	44840800 	mtc1	a0,$f1
  400334:	44831000 	mtc1	v1,$f2
  400338:	44821800 	mtc1	v0,$f3
  40033c:	00000000 	nop
  400340:	46220000 	add.d	$f0,$f0,$f2
  400344:	44030000 	mfc1	v1,$f0
  400348:	44020800 	mfc1	v0,$f1
  40034c:	afa30014 	sw	v1,20(sp)
  400350:	afa20010 	sw	v0,16(sp)
  400354:	8fa20020 	lw	v0,32(sp)
  400358:	00000000 	nop
  40035c:	24420001 	addiu	v0,v0,1
  400360:	0810013f 	j	4004fc <sin+0x36c>
  400364:	afa20020 	sw	v0,32(sp)
  400368:	8fa5003c 	lw	a1,60(sp)
  40036c:	8fa40038 	lw	a0,56(sp)
  400370:	8fa3003c 	lw	v1,60(sp)
  400374:	8fa20038 	lw	v0,56(sp)
  400378:	44850000 	mtc1	a1,$f0
  40037c:	44840800 	mtc1	a0,$f1
  400380:	44831000 	mtc1	v1,$f2
  400384:	44821800 	mtc1	v0,$f3
  400388:	00000000 	nop
  40038c:	46220002 	mul.d	$f0,$f0,$f2
  400390:	44030000 	mfc1	v1,$f0
  400394:	44020800 	mfc1	v0,$f1
  400398:	3c048000 	lui	a0,0x8000
  40039c:	00448026 	xor	s0,v0,a0
  4003a0:	00608821 	move	s1,v1
  4003a4:	8fa3001c 	lw	v1,28(sp)
  4003a8:	8fa20018 	lw	v0,24(sp)
  4003ac:	44910000 	mtc1	s1,$f0
  4003b0:	44900800 	mtc1	s0,$f1
  4003b4:	44831000 	mtc1	v1,$f2
  4003b8:	44821800 	mtc1	v0,$f3
  4003bc:	00000000 	nop
  4003c0:	46220002 	mul.d	$f0,$f0,$f2
  4003c4:	44050000 	mfc1	a1,$f0
  4003c8:	44040800 	mfc1	a0,$f1
  4003cc:	8fa20020 	lw	v0,32(sp)
  4003d0:	00000000 	nop
  4003d4:	44820000 	mtc1	v0,$f0
  4003d8:	00000000 	nop
  4003dc:	46800021 	cvt.d.w	$f0,$f0
  4003e0:	44030000 	mfc1	v1,$f0
  4003e4:	44020800 	mfc1	v0,$f1
  4003e8:	44831000 	mtc1	v1,$f2
  4003ec:	44821800 	mtc1	v0,$f3
  4003f0:	44830000 	mtc1	v1,$f0
  4003f4:	44820800 	mtc1	v0,$f1
  4003f8:	00000000 	nop
  4003fc:	46201080 	add.d	$f2,$f2,$f0
  400400:	44071000 	mfc1	a3,$f2
  400404:	44061800 	mfc1	a2,$f3
  400408:	8fa20020 	lw	v0,32(sp)
  40040c:	00000000 	nop
  400410:	44821000 	mtc1	v0,$f2
  400414:	00000000 	nop
  400418:	468010a1 	cvt.d.w	$f2,$f2
  40041c:	44031000 	mfc1	v1,$f2
  400420:	44021800 	mfc1	v0,$f3
  400424:	44830000 	mtc1	v1,$f0
  400428:	44820800 	mtc1	v0,$f1
  40042c:	44831000 	mtc1	v1,$f2
  400430:	44821800 	mtc1	v0,$f3
  400434:	00000000 	nop
  400438:	46220000 	add.d	$f0,$f0,$f2
  40043c:	44090000 	mfc1	t1,$f0
  400440:	44080800 	mfc1	t0,$f1
  400444:	8f83800c 	lw	v1,-32756(gp)
  400448:	8f828008 	lw	v0,-32760(gp)
  40044c:	44890000 	mtc1	t1,$f0
  400450:	44880800 	mtc1	t0,$f1
  400454:	44831000 	mtc1	v1,$f2
  400458:	44821800 	mtc1	v0,$f3
  40045c:	00000000 	nop
  400460:	46220000 	add.d	$f0,$f0,$f2
  400464:	44030000 	mfc1	v1,$f0
  400468:	44020800 	mfc1	v0,$f1
  40046c:	44870000 	mtc1	a3,$f0
  400470:	44860800 	mtc1	a2,$f1
  400474:	44831000 	mtc1	v1,$f2
  400478:	44821800 	mtc1	v0,$f3
  40047c:	00000000 	nop
  400480:	46220002 	mul.d	$f0,$f0,$f2
  400484:	44030000 	mfc1	v1,$f0
  400488:	44020800 	mfc1	v0,$f1
  40048c:	44850000 	mtc1	a1,$f0
  400490:	44840800 	mtc1	a0,$f1
  400494:	44831000 	mtc1	v1,$f2
  400498:	44821800 	mtc1	v0,$f3
  40049c:	00000000 	nop
  4004a0:	46220003 	div.d	$f0,$f0,$f2
  4004a4:	44030000 	mfc1	v1,$f0
  4004a8:	44020800 	mfc1	v0,$f1
  4004ac:	afa3001c 	sw	v1,28(sp)
  4004b0:	afa20018 	sw	v0,24(sp)
  4004b4:	8fa50014 	lw	a1,20(sp)
  4004b8:	8fa40010 	lw	a0,16(sp)
  4004bc:	8fa3001c 	lw	v1,28(sp)
  4004c0:	8fa20018 	lw	v0,24(sp)
  4004c4:	44850000 	mtc1	a1,$f0
  4004c8:	44840800 	mtc1	a0,$f1
  4004cc:	44831000 	mtc1	v1,$f2
  4004d0:	44821800 	mtc1	v0,$f3
  4004d4:	00000000 	nop
  4004d8:	46220000 	add.d	$f0,$f0,$f2
  4004dc:	44030000 	mfc1	v1,$f0
  4004e0:	44020800 	mfc1	v0,$f1
  4004e4:	afa30014 	sw	v1,20(sp)
  4004e8:	afa20010 	sw	v0,16(sp)
  4004ec:	8fa20020 	lw	v0,32(sp)
  4004f0:	00000000 	nop
  4004f4:	24420001 	addiu	v0,v0,1
  4004f8:	afa20020 	sw	v0,32(sp)
  4004fc:	c7ac001c 	lwc1	$f12,28(sp)
  400500:	c7ad0018 	lwc1	$f13,24(sp)
  400504:	0c100006 	jal	400018 <fabs>
  400508:	00000000 	nop
  40050c:	44050000 	mfc1	a1,$f0
  400510:	44040800 	mfc1	a0,$f1
  400514:	8f838034 	lw	v1,-32716(gp)
  400518:	8f828030 	lw	v0,-32720(gp)
  40051c:	44850000 	mtc1	a1,$f0
  400520:	44840800 	mtc1	a0,$f1
  400524:	44831000 	mtc1	v1,$f2
  400528:	44821800 	mtc1	v0,$f3
  40052c:	00000000 	nop
  400530:	4620103e 	c.le.d	$f2,$f0
  400534:	00000000 	nop
  400538:	4501ff8b 	bc1t	400368 <sin+0x1d8>
  40053c:	00000000 	nop
  400540:	8fa30014 	lw	v1,20(sp)
  400544:	8fa20010 	lw	v0,16(sp)
  400548:	44830000 	mtc1	v1,$f0
  40054c:	44820800 	mtc1	v0,$f1
  400550:	8fbf0034 	lw	ra,52(sp)
  400554:	8fb10030 	lw	s1,48(sp)
  400558:	8fb0002c 	lw	s0,44(sp)
  40055c:	03e00008 	jr	ra
  400560:	27bd0038 	addiu	sp,sp,56

00400564 <cos>:
  400564:	27bdffe8 	addiu	sp,sp,-24
  400568:	afbf0014 	sw	ra,20(sp)
  40056c:	e7ac001c 	swc1	$f12,28(sp)
  400570:	e7ad0018 	swc1	$f13,24(sp)
  400574:	8f85803c 	lw	a1,-32708(gp)
  400578:	8f848038 	lw	a0,-32712(gp)
  40057c:	8fa3001c 	lw	v1,28(sp)
  400580:	8fa20018 	lw	v0,24(sp)
  400584:	44850000 	mtc1	a1,$f0
  400588:	00000000 	nop
  40058c:	44840800 	mtc1	a0,$f1
  400590:	44831000 	mtc1	v1,$f2
  400594:	00000000 	nop
  400598:	44821800 	mtc1	v0,$f3
  40059c:	00000000 	nop
  4005a0:	46220001 	sub.d	$f0,$f0,$f2
  4005a4:	44030000 	mfc1	v1,$f0
  4005a8:	44020800 	mfc1	v0,$f1
  4005ac:	44836000 	mtc1	v1,$f12
  4005b0:	00000000 	nop
  4005b4:	44826800 	mtc1	v0,$f13
  4005b8:	0c100064 	jal	400190 <sin>
  4005bc:	00000000 	nop
  4005c0:	44030000 	mfc1	v1,$f0
  4005c4:	44020800 	mfc1	v0,$f1
  4005c8:	44830000 	mtc1	v1,$f0
  4005cc:	00000000 	nop
  4005d0:	44820800 	mtc1	v0,$f1
  4005d4:	8fbf0014 	lw	ra,20(sp)
  4005d8:	27bd0018 	addiu	sp,sp,24
  4005dc:	03e00008 	jr	ra
  4005e0:	00000000 	nop

004005e4 <fft1>:
  4005e4:	27bdff58 	addiu	sp,sp,-168
  4005e8:	afbf00a4 	sw	ra,164(sp)
  4005ec:	afb100a0 	sw	s1,160(sp)
  4005f0:	afb0009c 	sw	s0,156(sp)
  4005f4:	afa400a8 	sw	a0,168(sp)
  4005f8:	afa500ac 	sw	a1,172(sp)
  4005fc:	afa00030 	sw	zero,48(sp)
  400600:	8fa200a8 	lw	v0,168(sp)
  400604:	00000000 	nop
  400608:	28420002 	slti	v0,v0,2
  40060c:	10400004 	beqz	v0,400620 <fft1+0x3c>
  400610:	00000000 	nop
  400614:	240203e7 	li	v0,999
  400618:	08100404 	j	401010 <fft1+0xa2c>
  40061c:	afa20030 	sw	v0,48(sp)
  400620:	8fa200a8 	lw	v0,168(sp)
  400624:	00000000 	nop
  400628:	44820000 	mtc1	v0,$f0
  40062c:	00000000 	nop
  400630:	46800021 	cvt.d.w	$f0,$f0
  400634:	44030000 	mfc1	v1,$f0
  400638:	44020800 	mfc1	v0,$f1
  40063c:	44836000 	mtc1	v1,$f12
  400640:	44826800 	mtc1	v0,$f13
  400644:	0c10002d 	jal	4000b4 <log>
  400648:	00000000 	nop
  40064c:	44110000 	mfc1	s1,$f0
  400650:	44100800 	mfc1	s0,$f1
  400654:	8f838014 	lw	v1,-32748(gp)
  400658:	8f828010 	lw	v0,-32752(gp)
  40065c:	44836000 	mtc1	v1,$f12
  400660:	44826800 	mtc1	v0,$f13
  400664:	0c10002d 	jal	4000b4 <log>
  400668:	00000000 	nop
  40066c:	44030000 	mfc1	v1,$f0
  400670:	44020800 	mfc1	v0,$f1
  400674:	44911000 	mtc1	s1,$f2
  400678:	44901800 	mtc1	s0,$f3
  40067c:	44830000 	mtc1	v1,$f0
  400680:	44820800 	mtc1	v0,$f1
  400684:	00000000 	nop
  400688:	46201083 	div.d	$f2,$f2,$f0
  40068c:	44031000 	mfc1	v1,$f2
  400690:	44021800 	mfc1	v0,$f3
  400694:	44830000 	mtc1	v1,$f0
  400698:	44820800 	mtc1	v0,$f1
  40069c:	4444f800 	cfc1	a0,$31
  4006a0:	4444f800 	cfc1	a0,$31
  4006a4:	00000000 	nop
  4006a8:	34810003 	ori	at,a0,0x3
  4006ac:	38210002 	xori	at,at,0x2
  4006b0:	44c1f800 	ctc1	at,$31
  4006b4:	00000000 	nop
  4006b8:	46200024 	cvt.w.d	$f0,$f0
  4006bc:	44c4f800 	ctc1	a0,$31
  4006c0:	00000000 	nop
  4006c4:	44020000 	mfc1	v0,$f0
  4006c8:	00000000 	nop
  4006cc:	afa20034 	sw	v0,52(sp)
  4006d0:	24020001 	li	v0,1
  4006d4:	afa20014 	sw	v0,20(sp)
  4006d8:	081001c0 	j	400700 <fft1+0x11c>
  4006dc:	afa00010 	sw	zero,16(sp)
  4006e0:	8fa20014 	lw	v0,20(sp)
  4006e4:	00000000 	nop
  4006e8:	00021040 	sll	v0,v0,0x1
  4006ec:	afa20014 	sw	v0,20(sp)
  4006f0:	8fa20010 	lw	v0,16(sp)
  4006f4:	00000000 	nop
  4006f8:	24420001 	addiu	v0,v0,1
  4006fc:	afa20010 	sw	v0,16(sp)
  400700:	8fa30010 	lw	v1,16(sp)
  400704:	8fa20034 	lw	v0,52(sp)
  400708:	00000000 	nop
  40070c:	0062102a 	slt	v0,v1,v0
  400710:	1440fff3 	bnez	v0,4006e0 <fft1+0xfc>
  400714:	00000000 	nop
  400718:	8fa300a8 	lw	v1,168(sp)
  40071c:	8fa20014 	lw	v0,20(sp)
  400720:	00000000 	nop
  400724:	00621023 	subu	v0,v1,v0
  400728:	44821000 	mtc1	v0,$f2
  40072c:	00000000 	nop
  400730:	468010a1 	cvt.d.w	$f2,$f2
  400734:	44031000 	mfc1	v1,$f2
  400738:	44021800 	mfc1	v0,$f3
  40073c:	44836000 	mtc1	v1,$f12
  400740:	44826800 	mtc1	v0,$f13
  400744:	0c100006 	jal	400018 <fabs>
  400748:	00000000 	nop
  40074c:	44050000 	mfc1	a1,$f0
  400750:	44040800 	mfc1	a0,$f1
  400754:	8f838044 	lw	v1,-32700(gp)
  400758:	8f828040 	lw	v0,-32704(gp)
  40075c:	44850000 	mtc1	a1,$f0
  400760:	44840800 	mtc1	a0,$f1
  400764:	44831000 	mtc1	v1,$f2
  400768:	44821800 	mtc1	v0,$f3
  40076c:	00000000 	nop
  400770:	4620103c 	c.lt.d	$f2,$f0
  400774:	00000000 	nop
  400778:	45000004 	bc1f	40078c <fft1+0x1a8>
  40077c:	00000000 	nop
  400780:	24020001 	li	v0,1
  400784:	08100404 	j	401010 <fft1+0xa2c>
  400788:	afa20030 	sw	v0,48(sp)
  40078c:	8fa300ac 	lw	v1,172(sp)
  400790:	24020001 	li	v0,1
  400794:	14620006 	bne	v1,v0,4007b0 <fft1+0x1cc>
  400798:	00000000 	nop
  40079c:	8f83800c 	lw	v1,-32756(gp)
  4007a0:	8f828008 	lw	v0,-32760(gp)
  4007a4:	afa3002c 	sw	v1,44(sp)
  4007a8:	081001f0 	j	4007c0 <fft1+0x1dc>
  4007ac:	afa20028 	sw	v0,40(sp)
  4007b0:	8f83804c 	lw	v1,-32692(gp)
  4007b4:	8f828048 	lw	v0,-32696(gp)
  4007b8:	afa3002c 	sw	v1,44(sp)
  4007bc:	afa20028 	sw	v0,40(sp)
  4007c0:	8fa200a8 	lw	v0,168(sp)
  4007c4:	00000000 	nop
  4007c8:	afa20020 	sw	v0,32(sp)
  4007cc:	08100326 	j	400c98 <fft1+0x6b4>
  4007d0:	afa0001c 	sw	zero,28(sp)
  4007d4:	8fa20020 	lw	v0,32(sp)
  4007d8:	00000000 	nop
  4007dc:	afa20038 	sw	v0,56(sp)
  4007e0:	8fa20020 	lw	v0,32(sp)
  4007e4:	00000000 	nop
  4007e8:	00021fc2 	srl	v1,v0,0x1f
  4007ec:	00621021 	addu	v0,v1,v0
  4007f0:	00021043 	sra	v0,v0,0x1
  4007f4:	afa20020 	sw	v0,32(sp)
  4007f8:	8fa20020 	lw	v0,32(sp)
  4007fc:	00000000 	nop
  400800:	44820000 	mtc1	v0,$f0
  400804:	00000000 	nop
  400808:	46800021 	cvt.d.w	$f0,$f0
  40080c:	44030000 	mfc1	v1,$f0
  400810:	44020800 	mfc1	v0,$f1
  400814:	8f858054 	lw	a1,-32684(gp)
  400818:	8f848050 	lw	a0,-32688(gp)
  40081c:	44851000 	mtc1	a1,$f2
  400820:	44841800 	mtc1	a0,$f3
  400824:	44830000 	mtc1	v1,$f0
  400828:	44820800 	mtc1	v0,$f1
  40082c:	00000000 	nop
  400830:	46201083 	div.d	$f2,$f2,$f0
  400834:	44031000 	mfc1	v1,$f2
  400838:	44021800 	mfc1	v0,$f3
  40083c:	afa30044 	sw	v1,68(sp)
  400840:	afa20040 	sw	v0,64(sp)
  400844:	0810031c 	j	400c70 <fft1+0x68c>
  400848:	afa00018 	sw	zero,24(sp)
  40084c:	8fa20018 	lw	v0,24(sp)
  400850:	00000000 	nop
  400854:	44821000 	mtc1	v0,$f2
  400858:	00000000 	nop
  40085c:	468010a1 	cvt.d.w	$f2,$f2
  400860:	44051000 	mfc1	a1,$f2
  400864:	44041800 	mfc1	a0,$f3
  400868:	8fa30044 	lw	v1,68(sp)
  40086c:	8fa20040 	lw	v0,64(sp)
  400870:	44850000 	mtc1	a1,$f0
  400874:	44840800 	mtc1	a0,$f1
  400878:	44831000 	mtc1	v1,$f2
  40087c:	44821800 	mtc1	v0,$f3
  400880:	00000000 	nop
  400884:	46220002 	mul.d	$f0,$f0,$f2
  400888:	44030000 	mfc1	v1,$f0
  40088c:	44020800 	mfc1	v0,$f1
  400890:	afa3004c 	sw	v1,76(sp)
  400894:	afa20048 	sw	v0,72(sp)
  400898:	c7ac004c 	lwc1	$f12,76(sp)
  40089c:	c7ad0048 	lwc1	$f13,72(sp)
  4008a0:	0c100159 	jal	400564 <cos>
  4008a4:	00000000 	nop
  4008a8:	e7a00054 	swc1	$f0,84(sp)
  4008ac:	e7a10050 	swc1	$f1,80(sp)
  4008b0:	c7ac004c 	lwc1	$f12,76(sp)
  4008b4:	c7ad0048 	lwc1	$f13,72(sp)
  4008b8:	0c100064 	jal	400190 <sin>
  4008bc:	00000000 	nop
  4008c0:	44050000 	mfc1	a1,$f0
  4008c4:	44040800 	mfc1	a0,$f1
  4008c8:	8fa3002c 	lw	v1,44(sp)
  4008cc:	8fa20028 	lw	v0,40(sp)
  4008d0:	44850000 	mtc1	a1,$f0
  4008d4:	44840800 	mtc1	a0,$f1
  4008d8:	44831000 	mtc1	v1,$f2
  4008dc:	44821800 	mtc1	v0,$f3
  4008e0:	00000000 	nop
  4008e4:	46220002 	mul.d	$f0,$f0,$f2
  4008e8:	44030000 	mfc1	v1,$f0
  4008ec:	44020800 	mfc1	v0,$f1
  4008f0:	afa3005c 	sw	v1,92(sp)
  4008f4:	afa20058 	sw	v0,88(sp)
  4008f8:	8fa30018 	lw	v1,24(sp)
  4008fc:	8fa20038 	lw	v0,56(sp)
  400900:	00000000 	nop
  400904:	00621023 	subu	v0,v1,v0
  400908:	afa20010 	sw	v0,16(sp)
  40090c:	8fa20038 	lw	v0,56(sp)
  400910:	00000000 	nop
  400914:	08100312 	j	400c48 <fft1+0x664>
  400918:	afa20014 	sw	v0,20(sp)
  40091c:	8fa30014 	lw	v1,20(sp)
  400920:	8fa20010 	lw	v0,16(sp)
  400924:	00000000 	nop
  400928:	00621021 	addu	v0,v1,v0
  40092c:	afa20060 	sw	v0,96(sp)
  400930:	8fa30060 	lw	v1,96(sp)
  400934:	8fa20020 	lw	v0,32(sp)
  400938:	00000000 	nop
  40093c:	00621021 	addu	v0,v1,v0
  400940:	afa20064 	sw	v0,100(sp)
  400944:	3c020040 	lui	v0,0x40
  400948:	8fa30060 	lw	v1,96(sp)
  40094c:	00000000 	nop
  400950:	000318c0 	sll	v1,v1,0x3
  400954:	24422220 	addiu	v0,v0,8736
  400958:	00621021 	addu	v0,v1,v0
  40095c:	8c430004 	lw	v1,4(v0)
  400960:	8c420000 	lw	v0,0(v0)
  400964:	afa3006c 	sw	v1,108(sp)
  400968:	afa20068 	sw	v0,104(sp)
  40096c:	3c020040 	lui	v0,0x40
  400970:	8fa30064 	lw	v1,100(sp)
  400974:	00000000 	nop
  400978:	000318c0 	sll	v1,v1,0x3
  40097c:	24422220 	addiu	v0,v0,8736
  400980:	00621021 	addu	v0,v1,v0
  400984:	8c430004 	lw	v1,4(v0)
  400988:	8c420000 	lw	v0,0(v0)
  40098c:	afa30074 	sw	v1,116(sp)
  400990:	afa20070 	sw	v0,112(sp)
  400994:	3c020040 	lui	v0,0x40
  400998:	8fa30060 	lw	v1,96(sp)
  40099c:	00000000 	nop
  4009a0:	000318c0 	sll	v1,v1,0x3
  4009a4:	244221e0 	addiu	v0,v0,8672
  4009a8:	00621021 	addu	v0,v1,v0
  4009ac:	8c430004 	lw	v1,4(v0)
  4009b0:	8c420000 	lw	v0,0(v0)
  4009b4:	afa3007c 	sw	v1,124(sp)
  4009b8:	afa20078 	sw	v0,120(sp)
  4009bc:	3c020040 	lui	v0,0x40
  4009c0:	8fa30064 	lw	v1,100(sp)
  4009c4:	00000000 	nop
  4009c8:	000318c0 	sll	v1,v1,0x3
  4009cc:	244221e0 	addiu	v0,v0,8672
  4009d0:	00621021 	addu	v0,v1,v0
  4009d4:	8c430004 	lw	v1,4(v0)
  4009d8:	8c420000 	lw	v0,0(v0)
  4009dc:	afa30084 	sw	v1,132(sp)
  4009e0:	afa20080 	sw	v0,128(sp)
  4009e4:	8fa5006c 	lw	a1,108(sp)
  4009e8:	8fa40068 	lw	a0,104(sp)
  4009ec:	8fa30074 	lw	v1,116(sp)
  4009f0:	8fa20070 	lw	v0,112(sp)
  4009f4:	44850000 	mtc1	a1,$f0
  4009f8:	44840800 	mtc1	a0,$f1
  4009fc:	44831000 	mtc1	v1,$f2
  400a00:	44821800 	mtc1	v0,$f3
  400a04:	00000000 	nop
  400a08:	46220001 	sub.d	$f0,$f0,$f2
  400a0c:	44030000 	mfc1	v1,$f0
  400a10:	44020800 	mfc1	v0,$f1
  400a14:	afa3008c 	sw	v1,140(sp)
  400a18:	afa20088 	sw	v0,136(sp)
  400a1c:	8fa5007c 	lw	a1,124(sp)
  400a20:	8fa40078 	lw	a0,120(sp)
  400a24:	8fa30084 	lw	v1,132(sp)
  400a28:	8fa20080 	lw	v0,128(sp)
  400a2c:	44850000 	mtc1	a1,$f0
  400a30:	44840800 	mtc1	a0,$f1
  400a34:	44831000 	mtc1	v1,$f2
  400a38:	44821800 	mtc1	v0,$f3
  400a3c:	00000000 	nop
  400a40:	46220001 	sub.d	$f0,$f0,$f2
  400a44:	44030000 	mfc1	v1,$f0
  400a48:	44020800 	mfc1	v0,$f1
  400a4c:	afa30094 	sw	v1,148(sp)
  400a50:	afa20090 	sw	v0,144(sp)
  400a54:	8fa5006c 	lw	a1,108(sp)
  400a58:	8fa40068 	lw	a0,104(sp)
  400a5c:	8fa30074 	lw	v1,116(sp)
  400a60:	8fa20070 	lw	v0,112(sp)
  400a64:	44850000 	mtc1	a1,$f0
  400a68:	44840800 	mtc1	a0,$f1
  400a6c:	44831000 	mtc1	v1,$f2
  400a70:	44821800 	mtc1	v0,$f3
  400a74:	00000000 	nop
  400a78:	46220000 	add.d	$f0,$f0,$f2
  400a7c:	44030000 	mfc1	v1,$f0
  400a80:	44020800 	mfc1	v0,$f1
  400a84:	3c040040 	lui	a0,0x40
  400a88:	8fa50060 	lw	a1,96(sp)
  400a8c:	00000000 	nop
  400a90:	000528c0 	sll	a1,a1,0x3
  400a94:	24842220 	addiu	a0,a0,8736
  400a98:	00a42021 	addu	a0,a1,a0
  400a9c:	ac830004 	sw	v1,4(a0)
  400aa0:	ac820000 	sw	v0,0(a0)
  400aa4:	8fa5007c 	lw	a1,124(sp)
  400aa8:	8fa40078 	lw	a0,120(sp)
  400aac:	8fa30084 	lw	v1,132(sp)
  400ab0:	8fa20080 	lw	v0,128(sp)
  400ab4:	44850000 	mtc1	a1,$f0
  400ab8:	44840800 	mtc1	a0,$f1
  400abc:	44831000 	mtc1	v1,$f2
  400ac0:	44821800 	mtc1	v0,$f3
  400ac4:	00000000 	nop
  400ac8:	46220000 	add.d	$f0,$f0,$f2
  400acc:	44030000 	mfc1	v1,$f0
  400ad0:	44020800 	mfc1	v0,$f1
  400ad4:	3c040040 	lui	a0,0x40
  400ad8:	8fa50060 	lw	a1,96(sp)
  400adc:	00000000 	nop
  400ae0:	000528c0 	sll	a1,a1,0x3
  400ae4:	248421e0 	addiu	a0,a0,8672
  400ae8:	00a42021 	addu	a0,a1,a0
  400aec:	ac830004 	sw	v1,4(a0)
  400af0:	ac820000 	sw	v0,0(a0)
  400af4:	8fa5008c 	lw	a1,140(sp)
  400af8:	8fa40088 	lw	a0,136(sp)
  400afc:	8fa30054 	lw	v1,84(sp)
  400b00:	8fa20050 	lw	v0,80(sp)
  400b04:	44850000 	mtc1	a1,$f0
  400b08:	44840800 	mtc1	a0,$f1
  400b0c:	44831000 	mtc1	v1,$f2
  400b10:	44821800 	mtc1	v0,$f3
  400b14:	00000000 	nop
  400b18:	46220002 	mul.d	$f0,$f0,$f2
  400b1c:	44050000 	mfc1	a1,$f0
  400b20:	44040800 	mfc1	a0,$f1
  400b24:	8fa70094 	lw	a3,148(sp)
  400b28:	8fa60090 	lw	a2,144(sp)
  400b2c:	8fa3005c 	lw	v1,92(sp)
  400b30:	8fa20058 	lw	v0,88(sp)
  400b34:	44870000 	mtc1	a3,$f0
  400b38:	44860800 	mtc1	a2,$f1
  400b3c:	44831000 	mtc1	v1,$f2
  400b40:	44821800 	mtc1	v0,$f3
  400b44:	00000000 	nop
  400b48:	46220002 	mul.d	$f0,$f0,$f2
  400b4c:	44030000 	mfc1	v1,$f0
  400b50:	44020800 	mfc1	v0,$f1
  400b54:	44850000 	mtc1	a1,$f0
  400b58:	44840800 	mtc1	a0,$f1
  400b5c:	44831000 	mtc1	v1,$f2
  400b60:	44821800 	mtc1	v0,$f3
  400b64:	00000000 	nop
  400b68:	46220001 	sub.d	$f0,$f0,$f2
  400b6c:	44030000 	mfc1	v1,$f0
  400b70:	44020800 	mfc1	v0,$f1
  400b74:	3c040040 	lui	a0,0x40
  400b78:	8fa50064 	lw	a1,100(sp)
  400b7c:	00000000 	nop
  400b80:	000528c0 	sll	a1,a1,0x3
  400b84:	24842220 	addiu	a0,a0,8736
  400b88:	00a42021 	addu	a0,a1,a0
  400b8c:	ac830004 	sw	v1,4(a0)
  400b90:	ac820000 	sw	v0,0(a0)
  400b94:	8fa50094 	lw	a1,148(sp)
  400b98:	8fa40090 	lw	a0,144(sp)
  400b9c:	8fa30054 	lw	v1,84(sp)
  400ba0:	8fa20050 	lw	v0,80(sp)
  400ba4:	44850000 	mtc1	a1,$f0
  400ba8:	44840800 	mtc1	a0,$f1
  400bac:	44831000 	mtc1	v1,$f2
  400bb0:	44821800 	mtc1	v0,$f3
  400bb4:	00000000 	nop
  400bb8:	46220002 	mul.d	$f0,$f0,$f2
  400bbc:	44050000 	mfc1	a1,$f0
  400bc0:	44040800 	mfc1	a0,$f1
  400bc4:	8fa7008c 	lw	a3,140(sp)
  400bc8:	8fa60088 	lw	a2,136(sp)
  400bcc:	8fa3005c 	lw	v1,92(sp)
  400bd0:	8fa20058 	lw	v0,88(sp)
  400bd4:	44870000 	mtc1	a3,$f0
  400bd8:	44860800 	mtc1	a2,$f1
  400bdc:	44831000 	mtc1	v1,$f2
  400be0:	44821800 	mtc1	v0,$f3
  400be4:	00000000 	nop
  400be8:	46220002 	mul.d	$f0,$f0,$f2
  400bec:	44030000 	mfc1	v1,$f0
  400bf0:	44020800 	mfc1	v0,$f1
  400bf4:	44850000 	mtc1	a1,$f0
  400bf8:	44840800 	mtc1	a0,$f1
  400bfc:	44831000 	mtc1	v1,$f2
  400c00:	44821800 	mtc1	v0,$f3
  400c04:	00000000 	nop
  400c08:	46220000 	add.d	$f0,$f0,$f2
  400c0c:	44030000 	mfc1	v1,$f0
  400c10:	44020800 	mfc1	v0,$f1
  400c14:	3c040040 	lui	a0,0x40
  400c18:	8fa50064 	lw	a1,100(sp)
  400c1c:	00000000 	nop
  400c20:	000528c0 	sll	a1,a1,0x3
  400c24:	248421e0 	addiu	a0,a0,8672
  400c28:	00a42021 	addu	a0,a1,a0
  400c2c:	ac830004 	sw	v1,4(a0)
  400c30:	ac820000 	sw	v0,0(a0)
  400c34:	8fa30014 	lw	v1,20(sp)
  400c38:	8fa20038 	lw	v0,56(sp)
  400c3c:	00000000 	nop
  400c40:	00621021 	addu	v0,v1,v0
  400c44:	afa20014 	sw	v0,20(sp)
  400c48:	8fa30014 	lw	v1,20(sp)
  400c4c:	8fa200a8 	lw	v0,168(sp)
  400c50:	00000000 	nop
  400c54:	0043102a 	slt	v0,v0,v1
  400c58:	1040ff30 	beqz	v0,40091c <fft1+0x338>
  400c5c:	00000000 	nop
  400c60:	8fa20018 	lw	v0,24(sp)
  400c64:	00000000 	nop
  400c68:	24420001 	addiu	v0,v0,1
  400c6c:	afa20018 	sw	v0,24(sp)
  400c70:	8fa30018 	lw	v1,24(sp)
  400c74:	8fa20020 	lw	v0,32(sp)
  400c78:	00000000 	nop
  400c7c:	0062102a 	slt	v0,v1,v0
  400c80:	1440fef2 	bnez	v0,40084c <fft1+0x268>
  400c84:	00000000 	nop
  400c88:	8fa2001c 	lw	v0,28(sp)
  400c8c:	00000000 	nop
  400c90:	24420001 	addiu	v0,v0,1
  400c94:	afa2001c 	sw	v0,28(sp)
  400c98:	8fa3001c 	lw	v1,28(sp)
  400c9c:	8fa20034 	lw	v0,52(sp)
  400ca0:	00000000 	nop
  400ca4:	0062102a 	slt	v0,v1,v0
  400ca8:	1440feca 	bnez	v0,4007d4 <fft1+0x1f0>
  400cac:	00000000 	nop
  400cb0:	8fa200a8 	lw	v0,168(sp)
  400cb4:	00000000 	nop
  400cb8:	00021fc2 	srl	v1,v0,0x1f
  400cbc:	00621021 	addu	v0,v1,v0
  400cc0:	00021043 	sra	v0,v0,0x1
  400cc4:	afa20060 	sw	v0,96(sp)
  400cc8:	8fa200a8 	lw	v0,168(sp)
  400ccc:	00000000 	nop
  400cd0:	2442ffff 	addiu	v0,v0,-1
  400cd4:	afa20064 	sw	v0,100(sp)
  400cd8:	24020001 	li	v0,1
  400cdc:	afa20014 	sw	v0,20(sp)
  400ce0:	24020001 	li	v0,1
  400ce4:	081003af 	j	400ebc <fft1+0x8d8>
  400ce8:	afa20010 	sw	v0,16(sp)
  400cec:	8fa30010 	lw	v1,16(sp)
  400cf0:	8fa20014 	lw	v0,20(sp)
  400cf4:	00000000 	nop
  400cf8:	0062102a 	slt	v0,v1,v0
  400cfc:	10400051 	beqz	v0,400e44 <fft1+0x860>
  400d00:	00000000 	nop
  400d04:	8fa20014 	lw	v0,20(sp)
  400d08:	00000000 	nop
  400d0c:	2443ffff 	addiu	v1,v0,-1
  400d10:	3c020040 	lui	v0,0x40
  400d14:	000318c0 	sll	v1,v1,0x3
  400d18:	24422220 	addiu	v0,v0,8736
  400d1c:	00621021 	addu	v0,v1,v0
  400d20:	8c430004 	lw	v1,4(v0)
  400d24:	8c420000 	lw	v0,0(v0)
  400d28:	afa3008c 	sw	v1,140(sp)
  400d2c:	afa20088 	sw	v0,136(sp)
  400d30:	8fa20014 	lw	v0,20(sp)
  400d34:	00000000 	nop
  400d38:	2443ffff 	addiu	v1,v0,-1
  400d3c:	3c020040 	lui	v0,0x40
  400d40:	000318c0 	sll	v1,v1,0x3
  400d44:	244221e0 	addiu	v0,v0,8672
  400d48:	00621021 	addu	v0,v1,v0
  400d4c:	8c430004 	lw	v1,4(v0)
  400d50:	8c420000 	lw	v0,0(v0)
  400d54:	afa30094 	sw	v1,148(sp)
  400d58:	afa20090 	sw	v0,144(sp)
  400d5c:	8fa20014 	lw	v0,20(sp)
  400d60:	00000000 	nop
  400d64:	2445ffff 	addiu	a1,v0,-1
  400d68:	8fa20010 	lw	v0,16(sp)
  400d6c:	00000000 	nop
  400d70:	2443ffff 	addiu	v1,v0,-1
  400d74:	3c020040 	lui	v0,0x40
  400d78:	000318c0 	sll	v1,v1,0x3
  400d7c:	24422220 	addiu	v0,v0,8736
  400d80:	00621021 	addu	v0,v1,v0
  400d84:	8c430004 	lw	v1,4(v0)
  400d88:	8c420000 	lw	v0,0(v0)
  400d8c:	3c040040 	lui	a0,0x40
  400d90:	000528c0 	sll	a1,a1,0x3
  400d94:	24842220 	addiu	a0,a0,8736
  400d98:	00a42021 	addu	a0,a1,a0
  400d9c:	ac830004 	sw	v1,4(a0)
  400da0:	ac820000 	sw	v0,0(a0)
  400da4:	8fa20014 	lw	v0,20(sp)
  400da8:	00000000 	nop
  400dac:	2445ffff 	addiu	a1,v0,-1
  400db0:	8fa20010 	lw	v0,16(sp)
  400db4:	00000000 	nop
  400db8:	2443ffff 	addiu	v1,v0,-1
  400dbc:	3c020040 	lui	v0,0x40
  400dc0:	000318c0 	sll	v1,v1,0x3
  400dc4:	244221e0 	addiu	v0,v0,8672
  400dc8:	00621021 	addu	v0,v1,v0
  400dcc:	8c430004 	lw	v1,4(v0)
  400dd0:	8c420000 	lw	v0,0(v0)
  400dd4:	3c040040 	lui	a0,0x40
  400dd8:	000528c0 	sll	a1,a1,0x3
  400ddc:	248421e0 	addiu	a0,a0,8672
  400de0:	00a42021 	addu	a0,a1,a0
  400de4:	ac830004 	sw	v1,4(a0)
  400de8:	ac820000 	sw	v0,0(a0)
  400dec:	8fa20010 	lw	v0,16(sp)
  400df0:	00000000 	nop
  400df4:	2443ffff 	addiu	v1,v0,-1
  400df8:	3c020040 	lui	v0,0x40
  400dfc:	000318c0 	sll	v1,v1,0x3
  400e00:	24422220 	addiu	v0,v0,8736
  400e04:	00622021 	addu	a0,v1,v0
  400e08:	8fa3008c 	lw	v1,140(sp)
  400e0c:	8fa20088 	lw	v0,136(sp)
  400e10:	ac830004 	sw	v1,4(a0)
  400e14:	ac820000 	sw	v0,0(a0)
  400e18:	8fa20010 	lw	v0,16(sp)
  400e1c:	00000000 	nop
  400e20:	2443ffff 	addiu	v1,v0,-1
  400e24:	3c020040 	lui	v0,0x40
  400e28:	000318c0 	sll	v1,v1,0x3
  400e2c:	244221e0 	addiu	v0,v0,8672
  400e30:	00622021 	addu	a0,v1,v0
  400e34:	8fa30094 	lw	v1,148(sp)
  400e38:	8fa20090 	lw	v0,144(sp)
  400e3c:	ac830004 	sw	v1,4(a0)
  400e40:	ac820000 	sw	v0,0(a0)
  400e44:	8fa20060 	lw	v0,96(sp)
  400e48:	00000000 	nop
  400e4c:	081003a0 	j	400e80 <fft1+0x89c>
  400e50:	afa20018 	sw	v0,24(sp)
  400e54:	8fa30014 	lw	v1,20(sp)
  400e58:	8fa20018 	lw	v0,24(sp)
  400e5c:	00000000 	nop
  400e60:	00621023 	subu	v0,v1,v0
  400e64:	afa20014 	sw	v0,20(sp)
  400e68:	8fa20018 	lw	v0,24(sp)
  400e6c:	00000000 	nop
  400e70:	00021fc2 	srl	v1,v0,0x1f
  400e74:	00621021 	addu	v0,v1,v0
  400e78:	00021043 	sra	v0,v0,0x1
  400e7c:	afa20018 	sw	v0,24(sp)
  400e80:	8fa30018 	lw	v1,24(sp)
  400e84:	8fa20014 	lw	v0,20(sp)
  400e88:	00000000 	nop
  400e8c:	0062102a 	slt	v0,v1,v0
  400e90:	1440fff0 	bnez	v0,400e54 <fft1+0x870>
  400e94:	00000000 	nop
  400e98:	8fa30014 	lw	v1,20(sp)
  400e9c:	8fa20018 	lw	v0,24(sp)
  400ea0:	00000000 	nop
  400ea4:	00621021 	addu	v0,v1,v0
  400ea8:	afa20014 	sw	v0,20(sp)
  400eac:	8fa20010 	lw	v0,16(sp)
  400eb0:	00000000 	nop
  400eb4:	24420001 	addiu	v0,v0,1
  400eb8:	afa20010 	sw	v0,16(sp)
  400ebc:	8fa30010 	lw	v1,16(sp)
  400ec0:	8fa20064 	lw	v0,100(sp)
  400ec4:	00000000 	nop
  400ec8:	0043102a 	slt	v0,v0,v1
  400ecc:	1040ff87 	beqz	v0,400cec <fft1+0x708>
  400ed0:	00000000 	nop
  400ed4:	8fa200ac 	lw	v0,172(sp)
  400ed8:	00000000 	nop
  400edc:	14400003 	bnez	v0,400eec <fft1+0x908>
  400ee0:	00000000 	nop
  400ee4:	08100404 	j	401010 <fft1+0xa2c>
  400ee8:	afa00030 	sw	zero,48(sp)
  400eec:	8fa200a8 	lw	v0,168(sp)
  400ef0:	00000000 	nop
  400ef4:	44820000 	mtc1	v0,$f0
  400ef8:	00000000 	nop
  400efc:	46800021 	cvt.d.w	$f0,$f0
  400f00:	44030000 	mfc1	v1,$f0
  400f04:	44020800 	mfc1	v0,$f1
  400f08:	afa30044 	sw	v1,68(sp)
  400f0c:	afa20040 	sw	v0,64(sp)
  400f10:	081003fe 	j	400ff8 <fft1+0xa14>
  400f14:	afa00010 	sw	zero,16(sp)
  400f18:	3c020040 	lui	v0,0x40
  400f1c:	8fa30010 	lw	v1,16(sp)
  400f20:	00000000 	nop
  400f24:	000318c0 	sll	v1,v1,0x3
  400f28:	24422220 	addiu	v0,v0,8736
  400f2c:	00621021 	addu	v0,v1,v0
  400f30:	8c450004 	lw	a1,4(v0)
  400f34:	8c440000 	lw	a0,0(v0)
  400f38:	8fa30044 	lw	v1,68(sp)
  400f3c:	8fa20040 	lw	v0,64(sp)
  400f40:	44851000 	mtc1	a1,$f2
  400f44:	44841800 	mtc1	a0,$f3
  400f48:	44830000 	mtc1	v1,$f0
  400f4c:	44820800 	mtc1	v0,$f1
  400f50:	00000000 	nop
  400f54:	46201083 	div.d	$f2,$f2,$f0
  400f58:	44031000 	mfc1	v1,$f2
  400f5c:	44021800 	mfc1	v0,$f3
  400f60:	3c040040 	lui	a0,0x40
  400f64:	8fa50010 	lw	a1,16(sp)
  400f68:	00000000 	nop
  400f6c:	000528c0 	sll	a1,a1,0x3
  400f70:	24842220 	addiu	a0,a0,8736
  400f74:	00a42021 	addu	a0,a1,a0
  400f78:	ac830004 	sw	v1,4(a0)
  400f7c:	ac820000 	sw	v0,0(a0)
  400f80:	3c020040 	lui	v0,0x40
  400f84:	8fa30010 	lw	v1,16(sp)
  400f88:	00000000 	nop
  400f8c:	000318c0 	sll	v1,v1,0x3
  400f90:	244221e0 	addiu	v0,v0,8672
  400f94:	00621021 	addu	v0,v1,v0
  400f98:	8c450004 	lw	a1,4(v0)
  400f9c:	8c440000 	lw	a0,0(v0)
  400fa0:	8fa30044 	lw	v1,68(sp)
  400fa4:	8fa20040 	lw	v0,64(sp)
  400fa8:	44851000 	mtc1	a1,$f2
  400fac:	44841800 	mtc1	a0,$f3
  400fb0:	44830000 	mtc1	v1,$f0
  400fb4:	44820800 	mtc1	v0,$f1
  400fb8:	00000000 	nop
  400fbc:	46201083 	div.d	$f2,$f2,$f0
  400fc0:	44031000 	mfc1	v1,$f2
  400fc4:	44021800 	mfc1	v0,$f3
  400fc8:	3c040040 	lui	a0,0x40
  400fcc:	8fa50010 	lw	a1,16(sp)
  400fd0:	00000000 	nop
  400fd4:	000528c0 	sll	a1,a1,0x3
  400fd8:	248421e0 	addiu	a0,a0,8672
  400fdc:	00a42021 	addu	a0,a1,a0
  400fe0:	ac830004 	sw	v1,4(a0)
  400fe4:	ac820000 	sw	v0,0(a0)
  400fe8:	8fa20010 	lw	v0,16(sp)
  400fec:	00000000 	nop
  400ff0:	24420001 	addiu	v0,v0,1
  400ff4:	afa20010 	sw	v0,16(sp)
  400ff8:	8fa30010 	lw	v1,16(sp)
  400ffc:	8fa200a8 	lw	v0,168(sp)
  401000:	00000000 	nop
  401004:	0062102a 	slt	v0,v1,v0
  401008:	1440ffc3 	bnez	v0,400f18 <fft1+0x934>
  40100c:	00000000 	nop
  401010:	8fa20030 	lw	v0,48(sp)
  401014:	8fbf00a4 	lw	ra,164(sp)
  401018:	8fb100a0 	lw	s1,160(sp)
  40101c:	8fb0009c 	lw	s0,156(sp)
  401020:	03e00008 	jr	ra
  401024:	27bd00a8 	addiu	sp,sp,168

00401028 <main>:
  401028:	27bdffd8 	addiu	sp,sp,-40
  40102c:	afbf0024 	sw	ra,36(sp)
  401030:	24020008 	li	v0,8
  401034:	afa20014 	sw	v0,20(sp)
  401038:	0810044a 	j	401128 <main+0x100>
  40103c:	afa00010 	sw	zero,16(sp)
  401040:	8fa20010 	lw	v0,16(sp)
  401044:	00000000 	nop
  401048:	44820000 	mtc1	v0,$f0
  40104c:	00000000 	nop
  401050:	46800021 	cvt.d.w	$f0,$f0
  401054:	44050000 	mfc1	a1,$f0
  401058:	44040800 	mfc1	a0,$f1
  40105c:	8f83805c 	lw	v1,-32676(gp)
  401060:	8f828058 	lw	v0,-32680(gp)
  401064:	44851000 	mtc1	a1,$f2
  401068:	44841800 	mtc1	a0,$f3
  40106c:	44830000 	mtc1	v1,$f0
  401070:	44820800 	mtc1	v0,$f1
  401074:	00000000 	nop
  401078:	46201082 	mul.d	$f2,$f2,$f0
  40107c:	44051000 	mfc1	a1,$f2
  401080:	44041800 	mfc1	a0,$f3
  401084:	8fa20014 	lw	v0,20(sp)
  401088:	00000000 	nop
  40108c:	44821000 	mtc1	v0,$f2
  401090:	00000000 	nop
  401094:	468010a1 	cvt.d.w	$f2,$f2
  401098:	44031000 	mfc1	v1,$f2
  40109c:	44021800 	mfc1	v0,$f3
  4010a0:	44850000 	mtc1	a1,$f0
  4010a4:	44840800 	mtc1	a0,$f1
  4010a8:	44831000 	mtc1	v1,$f2
  4010ac:	44821800 	mtc1	v0,$f3
  4010b0:	00000000 	nop
  4010b4:	46220003 	div.d	$f0,$f0,$f2
  4010b8:	44030000 	mfc1	v1,$f0
  4010bc:	44020800 	mfc1	v0,$f1
  4010c0:	44836000 	mtc1	v1,$f12
  4010c4:	44826800 	mtc1	v0,$f13
  4010c8:	0c100159 	jal	400564 <cos>
  4010cc:	00000000 	nop
  4010d0:	44030000 	mfc1	v1,$f0
  4010d4:	44020800 	mfc1	v0,$f1
  4010d8:	3c040040 	lui	a0,0x40
  4010dc:	8fa50010 	lw	a1,16(sp)
  4010e0:	00000000 	nop
  4010e4:	000528c0 	sll	a1,a1,0x3
  4010e8:	24842220 	addiu	a0,a0,8736
  4010ec:	00a42021 	addu	a0,a1,a0
  4010f0:	ac830004 	sw	v1,4(a0)
  4010f4:	ac820000 	sw	v0,0(a0)
  4010f8:	3c020040 	lui	v0,0x40
  4010fc:	8fa30010 	lw	v1,16(sp)
  401100:	00000000 	nop
  401104:	000318c0 	sll	v1,v1,0x3
  401108:	244221e0 	addiu	v0,v0,8672
  40110c:	00621021 	addu	v0,v1,v0
  401110:	ac400004 	sw	zero,4(v0)
  401114:	ac400000 	sw	zero,0(v0)
  401118:	8fa20010 	lw	v0,16(sp)
  40111c:	00000000 	nop
  401120:	24420001 	addiu	v0,v0,1
  401124:	afa20010 	sw	v0,16(sp)
  401128:	8fa30010 	lw	v1,16(sp)
  40112c:	8fa20014 	lw	v0,20(sp)
  401130:	00000000 	nop
  401134:	0062102a 	slt	v0,v1,v0
  401138:	1440ffc1 	bnez	v0,401040 <main+0x18>
  40113c:	00000000 	nop
  401140:	afa00018 	sw	zero,24(sp)
  401144:	8fa40014 	lw	a0,20(sp)
  401148:	8fa50018 	lw	a1,24(sp)
  40114c:	0c100179 	jal	4005e4 <fft1>
  401150:	00000000 	nop
  401154:	afa2001c 	sw	v0,28(sp)
  401158:	24020001 	li	v0,1
  40115c:	afa20018 	sw	v0,24(sp)
  401160:	8fa40014 	lw	a0,20(sp)
  401164:	8fa50018 	lw	a1,24(sp)
  401168:	0c100179 	jal	4005e4 <fft1>
  40116c:	00000000 	nop
  401170:	afa2001c 	sw	v0,28(sp)
  401174:	8fbf0024 	lw	ra,36(sp)
  401178:	27bd0028 	addiu	sp,sp,40
  40117c:	03e00008 	jr	ra
  401180:	00000000 	nop
