
/tmp/ns:     file format elf32-bigmips

SYMBOL TABLE:
00400000 l    d  .reginfo	00000000 .reginfo
00400018 l    d  .text	00000000 .text
00401270 l    d  .data	00000000 .data
00000000 l    d  .pdr	00000000 .pdr
00000000 l    d  .wcet_annot	00000000 .wcet_annot
00000000 l    d  .comment	00000000 .comment
00000000 l    d  .debug_aranges	00000000 .debug_aranges
00000000 l    d  .debug_info	00000000 .debug_info
00000000 l    d  .debug_abbrev	00000000 .debug_abbrev
00000000 l    d  .debug_line	00000000 .debug_line
00000000 l    d  .debug_frame	00000000 .debug_frame
00000000 l    d  .debug_str	00000000 .debug_str
00000000 l    d  .debug_loc	00000000 .debug_loc
00000000 l    d  .gnu.attributes	00000000 .gnu.attributes
00000010 l    d  .mdebug.abi32	00000000 .mdebug.abi32
00000000 l    df *ABS*	00000000 ns.c
00401270 g       .data	00000000 _fdata
0040a5f0 g       *ABS*	00000000 _gp
00400018 g       .text	00000000 _ftext
004025f8 g       *ABS*	00000000 __bss_start
00400248 g     F .text	00000028 main
00401c34 g     O .data	000009c4 answer
00400018 g     F .text	00000230 foo
004025f8 g       *ABS*	00000000 _edata
004025f8 g       *ABS*	00000000 _end
00401270 g     O .data	000009c4 keys
004025f8 g       *ABS*	00000000 _fbss



Disassembly of section .text:

00400018 <foo>:
  400018:	27bdfff0 	addiu	sp,sp,-16
  40001c:	afa40010 	sw	a0,16(sp)
  400020:	0810008a 	j	400228 <foo+0x210>
  400024:	afa00000 	sw	zero,0(sp)
  400028:	08100081 	j	400204 <foo+0x1ec>
  40002c:	afa00004 	sw	zero,4(sp)
  400030:	08100078 	j	4001e0 <foo+0x1c8>
  400034:	afa00008 	sw	zero,8(sp)
  400038:	0810006f 	j	4001bc <foo+0x1a4>
  40003c:	afa0000c 	sw	zero,12(sp)
  400040:	3c070040 	lui	a3,0x40
  400044:	8fa20008 	lw	v0,8(sp)
  400048:	8fa50004 	lw	a1,4(sp)
  40004c:	8fa60000 	lw	a2,0(sp)
  400050:	00401821 	move	v1,v0
  400054:	00031880 	sll	v1,v1,0x2
  400058:	00621821 	addu	v1,v1,v0
  40005c:	00c02021 	move	a0,a2
  400060:	00041080 	sll	v0,a0,0x2
  400064:	00402021 	move	a0,v0
  400068:	00041140 	sll	v0,a0,0x5
  40006c:	00441023 	subu	v0,v0,a0
  400070:	00461021 	addu	v0,v0,a2
  400074:	00622021 	addu	a0,v1,v0
  400078:	00a01821 	move	v1,a1
  40007c:	000310c0 	sll	v0,v1,0x3
  400080:	00401821 	move	v1,v0
  400084:	00031080 	sll	v0,v1,0x2
  400088:	00431023 	subu	v0,v0,v1
  40008c:	00451021 	addu	v0,v0,a1
  400090:	00821821 	addu	v1,a0,v0
  400094:	8fa2000c 	lw	v0,12(sp)
  400098:	00000000 	nop
  40009c:	00621021 	addu	v0,v1,v0
  4000a0:	00021880 	sll	v1,v0,0x2
  4000a4:	24e21270 	addiu	v0,a3,4720
  4000a8:	00621021 	addu	v0,v1,v0
  4000ac:	8c430000 	lw	v1,0(v0)
  4000b0:	8fa20010 	lw	v0,16(sp)
  4000b4:	00000000 	nop
  4000b8:	1462003c 	bne	v1,v0,4001ac <foo+0x194>
  4000bc:	00000000 	nop
  4000c0:	3c070040 	lui	a3,0x40
  4000c4:	8fa20008 	lw	v0,8(sp)
  4000c8:	8fa50004 	lw	a1,4(sp)
  4000cc:	8fa60000 	lw	a2,0(sp)
  4000d0:	00401821 	move	v1,v0
  4000d4:	00031880 	sll	v1,v1,0x2
  4000d8:	00621821 	addu	v1,v1,v0
  4000dc:	00c02021 	move	a0,a2
  4000e0:	00041080 	sll	v0,a0,0x2
  4000e4:	00402021 	move	a0,v0
  4000e8:	00041140 	sll	v0,a0,0x5
  4000ec:	00441023 	subu	v0,v0,a0
  4000f0:	00461021 	addu	v0,v0,a2
  4000f4:	00622021 	addu	a0,v1,v0
  4000f8:	00a01821 	move	v1,a1
  4000fc:	000310c0 	sll	v0,v1,0x3
  400100:	00401821 	move	v1,v0
  400104:	00031080 	sll	v0,v1,0x2
  400108:	00431023 	subu	v0,v0,v1
  40010c:	00451021 	addu	v0,v0,a1
  400110:	00821821 	addu	v1,a0,v0
  400114:	8fa2000c 	lw	v0,12(sp)
  400118:	00000000 	nop
  40011c:	00621021 	addu	v0,v1,v0
  400120:	00021880 	sll	v1,v0,0x2
  400124:	24e21c34 	addiu	v0,a3,7220
  400128:	00621021 	addu	v0,v1,v0
  40012c:	8c470000 	lw	a3,0(v0)
  400130:	3c080040 	lui	t0,0x40
  400134:	8fa20008 	lw	v0,8(sp)
  400138:	8fa50004 	lw	a1,4(sp)
  40013c:	8fa60000 	lw	a2,0(sp)
  400140:	00401821 	move	v1,v0
  400144:	00031880 	sll	v1,v1,0x2
  400148:	00621821 	addu	v1,v1,v0
  40014c:	00c02021 	move	a0,a2
  400150:	00041080 	sll	v0,a0,0x2
  400154:	00402021 	move	a0,v0
  400158:	00041140 	sll	v0,a0,0x5
  40015c:	00441023 	subu	v0,v0,a0
  400160:	00461021 	addu	v0,v0,a2
  400164:	00622021 	addu	a0,v1,v0
  400168:	00a01821 	move	v1,a1
  40016c:	000310c0 	sll	v0,v1,0x3
  400170:	00401821 	move	v1,v0
  400174:	00031080 	sll	v0,v1,0x2
  400178:	00431023 	subu	v0,v0,v1
  40017c:	00451021 	addu	v0,v0,a1
  400180:	00821821 	addu	v1,a0,v0
  400184:	8fa2000c 	lw	v0,12(sp)
  400188:	00000000 	nop
  40018c:	00621021 	addu	v0,v1,v0
  400190:	00021880 	sll	v1,v0,0x2
  400194:	25021270 	addiu	v0,t0,4720
  400198:	00621021 	addu	v0,v1,v0
  40019c:	8c420000 	lw	v0,0(v0)
  4001a0:	00000000 	nop
  4001a4:	08100090 	j	400240 <foo+0x228>
  4001a8:	00e21021 	addu	v0,a3,v0
  4001ac:	8fa2000c 	lw	v0,12(sp)
  4001b0:	00000000 	nop
  4001b4:	24420001 	addiu	v0,v0,1
  4001b8:	afa2000c 	sw	v0,12(sp)
  4001bc:	8fa2000c 	lw	v0,12(sp)
  4001c0:	00000000 	nop
  4001c4:	28420005 	slti	v0,v0,5
  4001c8:	1440ff9d 	bnez	v0,400040 <foo+0x28>
  4001cc:	00000000 	nop
  4001d0:	8fa20008 	lw	v0,8(sp)
  4001d4:	00000000 	nop
  4001d8:	24420001 	addiu	v0,v0,1
  4001dc:	afa20008 	sw	v0,8(sp)
  4001e0:	8fa20008 	lw	v0,8(sp)
  4001e4:	00000000 	nop
  4001e8:	28420005 	slti	v0,v0,5
  4001ec:	1440ff92 	bnez	v0,400038 <foo+0x20>
  4001f0:	00000000 	nop
  4001f4:	8fa20004 	lw	v0,4(sp)
  4001f8:	00000000 	nop
  4001fc:	24420001 	addiu	v0,v0,1
  400200:	afa20004 	sw	v0,4(sp)
  400204:	8fa20004 	lw	v0,4(sp)
  400208:	00000000 	nop
  40020c:	28420005 	slti	v0,v0,5
  400210:	1440ff87 	bnez	v0,400030 <foo+0x18>
  400214:	00000000 	nop
  400218:	8fa20000 	lw	v0,0(sp)
  40021c:	00000000 	nop
  400220:	24420001 	addiu	v0,v0,1
  400224:	afa20000 	sw	v0,0(sp)
  400228:	8fa20000 	lw	v0,0(sp)
  40022c:	00000000 	nop
  400230:	28420005 	slti	v0,v0,5
  400234:	1440ff7c 	bnez	v0,400028 <foo+0x10>
  400238:	00000000 	nop
  40023c:	2402ffff 	li	v0,-1
  400240:	03e00008 	jr	ra
  400244:	27bd0010 	addiu	sp,sp,16

00400248 <main>:
  400248:	27bdffe8 	addiu	sp,sp,-24
  40024c:	afbf0014 	sw	ra,20(sp)
  400250:	24040190 	li	a0,400
  400254:	0c100006 	jal	400018 <foo>
  400258:	00000000 	nop
  40025c:	00001021 	move	v0,zero
  400260:	8fbf0014 	lw	ra,20(sp)
  400264:	27bd0018 	addiu	sp,sp,24
  400268:	03e00008 	jr	ra
  40026c:	00000000 	nop
