
/tmp/compress:     file format elf32-bigmips

SYMBOL TABLE:
00400000 l    d  .reginfo	00000000 .reginfo
00400018 l    d  .text	00000000 .text
00401000 l    d  .data	00000000 .data
00401018 l    d  .sdata	00000000 .sdata
00401038 l    d  .sbss	00000000 .sbss
00401078 l    d  .bss	00000000 .bss
00000000 l    d  .pdr	00000000 .pdr
00000000 l    d  .wcet_annot	00000000 .wcet_annot
00000000 l    d  .comment	00000000 .comment
00000000 l    d  .debug_aranges	00000000 .debug_aranges
00000000 l    d  .debug_info	00000000 .debug_info
00000000 l    d  .debug_abbrev	00000000 .debug_abbrev
00000000 l    d  .debug_line	00000000 .debug_line
00000000 l    d  .debug_frame	00000000 .debug_frame
00000000 l    d  .debug_str	00000000 .debug_str
00000000 l    d  .debug_loc	00000000 .debug_loc
00000000 l    d  .gnu.attributes	00000000 .gnu.attributes
00000010 l    d  .mdebug.abi32	00000000 .mdebug.abi32
00000000 l    df *ABS*	00000000 compress.c
00401054 l     O .sbss	00000004 offset
00401030 g     O .sdata	00000004 checkpoint
00401078 g     O .bss	00000032 orig_text_buffer
00400710 g     F .text	00000084 writebytes
00401000 g       .data	00000000 _fdata
00401024 g     O .sdata	00000004 nomagic
00401028 g     O .sdata	00000004 quiet
00401044 g     O .sbss	00000004 clear_flg
004006e8 g     F .text	00000028 putbyte
00409010 g       *ABS*	00000000 _gp
00400794 g     F .text	00000328 output
00401000 g     O .data	00000009 lmask
00401038 g     O .sbss	00000004 free_ent
00401058 g     O .sbss	00000004 InBuff
004010ac g     O .bss	00000037 comp_text_buffer
004010e4 g     O .bss	00000404 htab
0040100c g     O .data	00000009 rmask
0040105c g     O .sbss	00000004 apsim_InCnt
00401040 g     O .sbss	00000004 zcat_flg
00401060 g     O .sbss	00000004 OutBuff
0040101c g     O .sdata	00000004 maxmaxcode
0040104c g     O .sbss	00000004 force
0040102c g     O .sdata	00000004 block_compress
00400474 g     F .text	00000110 cl_block
00400018 g       .text	00000000 _ftext
00400090 g     F .text	000000cc initbuffer
004014e8 g     O .bss	00000064 ofname
00401064 g     O .sbss	00000004 bytes_out
00401034 g     O .sdata	00000004 in_count
00401068 g     O .sbss	00000004 n_bits
00401038 g       *ABS*	00000000 __bss_start
00400018 g     F .text	00000078 main
0040106c g     O .sbss	00000004 InCnt
00401048 g     O .sbss	00000004 ratio
0040154c g     O .bss	00000202 codetab
0040103c g     O .sbss	00000004 exit_stat
00401750 g     O .bss	00000010 buf
00401070 g     O .sbss	00000004 maxcode
00401038 g       *ABS*	00000000 _edata
00401760 g       *ABS*	00000000 _end
00401050 g     O .sbss	00000004 out_count
0040015c g     F .text	00000318 compress
00401074 g     O .sbss	00000004 fsize
00400584 g     F .text	000000fc cl_hash
00401020 g     O .sdata	00000004 hsize
00400680 g     F .text	00000068 getbyte
00401038 g       *ABS*	00000000 _fbss
00401018 g     O .sdata	00000004 maxbits



Disassembly of section .text:

00400018 <main>:
  400018:	27bdffe0 	addiu	sp,sp,-32
  40001c:	afbf001c 	sw	ra,28(sp)
  400020:	24020032 	li	v0,50
  400024:	afa20010 	sw	v0,16(sp)
  400028:	0c100024 	jal	400090 <initbuffer>
  40002c:	00000000 	nop
  400030:	24020010 	li	v0,16
  400034:	af828008 	sw	v0,-32760(gp)
  400038:	8f828008 	lw	v0,-32760(gp)
  40003c:	24030001 	li	v1,1
  400040:	00431004 	sllv	v0,v1,v0
  400044:	af82800c 	sw	v0,-32756(gp)
  400048:	8fa20010 	lw	v0,16(sp)
  40004c:	00000000 	nop
  400050:	af82805c 	sw	v0,-32676(gp)
  400054:	24020035 	li	v0,53
  400058:	af82804c 	sw	v0,-32692(gp)
  40005c:	3c020040 	lui	v0,0x40
  400060:	24421078 	addiu	v0,v0,4216
  400064:	af828048 	sw	v0,-32696(gp)
  400068:	3c020040 	lui	v0,0x40
  40006c:	244210ac 	addiu	v0,v0,4268
  400070:	af828050 	sw	v0,-32688(gp)
  400074:	0c100057 	jal	40015c <compress>
  400078:	00000000 	nop
  40007c:	00001021 	move	v0,zero
  400080:	8fbf001c 	lw	ra,28(sp)
  400084:	27bd0020 	addiu	sp,sp,32
  400088:	03e00008 	jr	ra
  40008c:	00000000 	nop

00400090 <initbuffer>:
  400090:	27bdfff0 	addiu	sp,sp,-16
  400094:	24020001 	li	v0,1
  400098:	afa20000 	sw	v0,0(sp)
  40009c:	08100050 	j	400140 <initbuffer+0xb0>
  4000a0:	afa00004 	sw	zero,4(sp)
  4000a4:	8fa20004 	lw	v0,4(sp)
  4000a8:	00000000 	nop
  4000ac:	afa20008 	sw	v0,8(sp)
  4000b0:	8fa30000 	lw	v1,0(sp)
  4000b4:	00000000 	nop
  4000b8:	00601021 	move	v0,v1
  4000bc:	00021080 	sll	v0,v0,0x2
  4000c0:	00022140 	sll	a0,v0,0x5
  4000c4:	00441021 	addu	v0,v0,a0
  4000c8:	00431021 	addu	v0,v0,v1
  4000cc:	24430051 	addiu	v1,v0,81
  4000d0:	24021f9f 	li	v0,8095
  4000d4:	14400002 	bnez	v0,4000e0 <initbuffer+0x50>
  4000d8:	0062001a 	div	zero,v1,v0
  4000dc:	0007000d 	break	0x7
  4000e0:	00001010 	mfhi	v0
  4000e4:	afa20000 	sw	v0,0(sp)
  4000e8:	8fa30000 	lw	v1,0(sp)
  4000ec:	3c028000 	lui	v0,0x8000
  4000f0:	344200ff 	ori	v0,v0,0xff
  4000f4:	00621024 	and	v0,v1,v0
  4000f8:	04410005 	bgez	v0,400110 <initbuffer+0x80>
  4000fc:	00000000 	nop
  400100:	2442ffff 	addiu	v0,v0,-1
  400104:	2403ff00 	li	v1,-256
  400108:	00431025 	or	v0,v0,v1
  40010c:	24420001 	addiu	v0,v0,1
  400110:	00021e00 	sll	v1,v0,0x18
  400114:	00031e03 	sra	v1,v1,0x18
  400118:	3c020040 	lui	v0,0x40
  40011c:	24441078 	addiu	a0,v0,4216
  400120:	8fa20004 	lw	v0,4(sp)
  400124:	00000000 	nop
  400128:	00821021 	addu	v0,a0,v0
  40012c:	a0430000 	sb	v1,0(v0)
  400130:	8fa20004 	lw	v0,4(sp)
  400134:	00000000 	nop
  400138:	24420001 	addiu	v0,v0,1
  40013c:	afa20004 	sw	v0,4(sp)
  400140:	8fa20004 	lw	v0,4(sp)
  400144:	00000000 	nop
  400148:	28420032 	slti	v0,v0,50
  40014c:	1440ffd5 	bnez	v0,4000a4 <initbuffer+0x14>
  400150:	00000000 	nop
  400154:	03e00008 	jr	ra
  400158:	27bd0010 	addiu	sp,sp,16

0040015c <compress>:
  40015c:	27bdffc8 	addiu	sp,sp,-56
  400160:	afbf0034 	sw	ra,52(sp)
  400164:	afb50030 	sw	s5,48(sp)
  400168:	afb4002c 	sw	s4,44(sp)
  40016c:	afb30028 	sw	s3,40(sp)
  400170:	afb20024 	sw	s2,36(sp)
  400174:	afb10020 	sw	s1,32(sp)
  400178:	afb0001c 	sw	s0,28(sp)
  40017c:	00008021 	move	s0,zero
  400180:	af808044 	sw	zero,-32700(gp)
  400184:	24020003 	li	v0,3
  400188:	af828054 	sw	v0,-32684(gp)
  40018c:	af808040 	sw	zero,-32704(gp)
  400190:	af808034 	sw	zero,-32716(gp)
  400194:	af808038 	sw	zero,-32712(gp)
  400198:	24020001 	li	v0,1
  40019c:	af828024 	sw	v0,-32732(gp)
  4001a0:	24022710 	li	v0,10000
  4001a4:	af828020 	sw	v0,-32736(gp)
  4001a8:	24020009 	li	v0,9
  4001ac:	af828058 	sw	v0,-32680(gp)
  4001b0:	8f828058 	lw	v0,-32680(gp)
  4001b4:	24030001 	li	v1,1
  4001b8:	00431004 	sllv	v0,v1,v0
  4001bc:	2442ffff 	addiu	v0,v0,-1
  4001c0:	af828060 	sw	v0,-32672(gp)
  4001c4:	8f82801c 	lw	v0,-32740(gp)
  4001c8:	00000000 	nop
  4001cc:	10400003 	beqz	v0,4001dc <compress+0x80>
  4001d0:	00000000 	nop
  4001d4:	08100078 	j	4001e0 <compress+0x84>
  4001d8:	24020101 	li	v0,257
  4001dc:	24020100 	li	v0,256
  4001e0:	0c1001a0 	jal	400680 <getbyte>
  4001e4:	af828028 	sw	v0,-32728(gp)
  4001e8:	00409021 	move	s2,v0
  4001ec:	00009821 	move	s3,zero
  4001f0:	8f918010 	lw	s1,-32752(gp)
  4001f4:	08100081 	j	400204 <compress+0xa8>
  4001f8:	00000000 	nop
  4001fc:	26730001 	addiu	s3,s3,1
  400200:	00118840 	sll	s1,s1,0x1
  400204:	3c020001 	lui	v0,0x1
  400208:	0222102a 	slt	v0,s1,v0
  40020c:	1440fffb 	bnez	v0,4001fc <compress+0xa0>
  400210:	00000000 	nop
  400214:	24020008 	li	v0,8
  400218:	00539823 	subu	s3,v0,s3
  40021c:	8f948010 	lw	s4,-32752(gp)
  400220:	00000000 	nop
  400224:	0c100161 	jal	400584 <cl_hash>
  400228:	02802021 	move	a0,s4
  40022c:	08100107 	j	40041c <compress+0x2c0>
  400230:	00000000 	nop
  400234:	0c1001a0 	jal	400680 <getbyte>
  400238:	afa00010 	sw	zero,16(sp)
  40023c:	0040a821 	move	s5,v0
  400240:	8f828024 	lw	v0,-32732(gp)
  400244:	00000000 	nop
  400248:	24420001 	addiu	v0,v0,1
  40024c:	af828024 	sw	v0,-32732(gp)
  400250:	8f828008 	lw	v0,-32760(gp)
  400254:	00000000 	nop
  400258:	00551004 	sllv	v0,s5,v0
  40025c:	00528821 	addu	s1,v0,s2
  400260:	02751004 	sllv	v0,s5,s3
  400264:	00528026 	xor	s0,v0,s2
  400268:	3c020040 	lui	v0,0x40
  40026c:	00101880 	sll	v1,s0,0x2
  400270:	244210e4 	addiu	v0,v0,4324
  400274:	00621021 	addu	v0,v1,v0
  400278:	8c420000 	lw	v0,0(v0)
  40027c:	00000000 	nop
  400280:	14510009 	bne	v0,s1,4002a8 <compress+0x14c>
  400284:	00000000 	nop
  400288:	3c020040 	lui	v0,0x40
  40028c:	00101840 	sll	v1,s0,0x1
  400290:	2442154c 	addiu	v0,v0,5452
  400294:	00621021 	addu	v0,v1,v0
  400298:	94420000 	lhu	v0,0(v0)
  40029c:	00000000 	nop
  4002a0:	08100107 	j	40041c <compress+0x2c0>
  4002a4:	00409021 	move	s2,v0
  4002a8:	3c020040 	lui	v0,0x40
  4002ac:	00101880 	sll	v1,s0,0x2
  4002b0:	244210e4 	addiu	v0,v0,4324
  4002b4:	00621021 	addu	v0,v1,v0
  4002b8:	8c420000 	lw	v0,0(v0)
  4002bc:	00000000 	nop
  4002c0:	0440002e 	bltz	v0,40037c <compress+0x220>
  4002c4:	00000000 	nop
  4002c8:	16000004 	bnez	s0,4002dc <compress+0x180>
  4002cc:	02909023 	subu	s2,s4,s0
  4002d0:	081000b7 	j	4002dc <compress+0x180>
  4002d4:	24120001 	li	s2,1
  4002d8:	00000000 	nop
  4002dc:	02128023 	subu	s0,s0,s2
  4002e0:	06010002 	bgez	s0,4002ec <compress+0x190>
  4002e4:	00000000 	nop
  4002e8:	02148021 	addu	s0,s0,s4
  4002ec:	3c020040 	lui	v0,0x40
  4002f0:	00101880 	sll	v1,s0,0x2
  4002f4:	244210e4 	addiu	v0,v0,4324
  4002f8:	00621021 	addu	v0,v1,v0
  4002fc:	8c420000 	lw	v0,0(v0)
  400300:	00000000 	nop
  400304:	14510009 	bne	v0,s1,40032c <compress+0x1d0>
  400308:	00000000 	nop
  40030c:	3c020040 	lui	v0,0x40
  400310:	00101840 	sll	v1,s0,0x1
  400314:	2442154c 	addiu	v0,v0,5452
  400318:	00621021 	addu	v0,v1,v0
  40031c:	94420000 	lhu	v0,0(v0)
  400320:	00000000 	nop
  400324:	08100107 	j	40041c <compress+0x2c0>
  400328:	00409021 	move	s2,v0
  40032c:	3c020040 	lui	v0,0x40
  400330:	00101880 	sll	v1,s0,0x2
  400334:	244210e4 	addiu	v0,v0,4324
  400338:	00621021 	addu	v0,v1,v0
  40033c:	8c420000 	lw	v0,0(v0)
  400340:	00000000 	nop
  400344:	1840000e 	blez	v0,400380 <compress+0x224>
  400348:	00000000 	nop
  40034c:	8fa20010 	lw	v0,16(sp)
  400350:	00000000 	nop
  400354:	24420001 	addiu	v0,v0,1
  400358:	afa20010 	sw	v0,16(sp)
  40035c:	8f828024 	lw	v0,-32732(gp)
  400360:	8fa30010 	lw	v1,16(sp)
  400364:	00000000 	nop
  400368:	0062102a 	slt	v0,v1,v0
  40036c:	1440ffda 	bnez	v0,4002d8 <compress+0x17c>
  400370:	00000000 	nop
  400374:	081000e0 	j	400380 <compress+0x224>
  400378:	00000000 	nop
  40037c:	00000000 	nop
  400380:	8f828040 	lw	v0,-32704(gp)
  400384:	00000000 	nop
  400388:	24420001 	addiu	v0,v0,1
  40038c:	af828040 	sw	v0,-32704(gp)
  400390:	02a09021 	move	s2,s5
  400394:	8f838028 	lw	v1,-32728(gp)
  400398:	8f82800c 	lw	v0,-32756(gp)
  40039c:	00000000 	nop
  4003a0:	0062102a 	slt	v0,v1,v0
  4003a4:	10400011 	beqz	v0,4003ec <compress+0x290>
  4003a8:	00000000 	nop
  4003ac:	8f828028 	lw	v0,-32728(gp)
  4003b0:	00000000 	nop
  4003b4:	3044ffff 	andi	a0,v0,0xffff
  4003b8:	3c030040 	lui	v1,0x40
  4003bc:	00102840 	sll	a1,s0,0x1
  4003c0:	2463154c 	addiu	v1,v1,5452
  4003c4:	00a31821 	addu	v1,a1,v1
  4003c8:	a4640000 	sh	a0,0(v1)
  4003cc:	24420001 	addiu	v0,v0,1
  4003d0:	af828028 	sw	v0,-32728(gp)
  4003d4:	3c020040 	lui	v0,0x40
  4003d8:	00101880 	sll	v1,s0,0x2
  4003dc:	244210e4 	addiu	v0,v0,4324
  4003e0:	00621021 	addu	v0,v1,v0
  4003e4:	08100107 	j	40041c <compress+0x2c0>
  4003e8:	ac510000 	sw	s1,0(v0)
  4003ec:	8f838024 	lw	v1,-32732(gp)
  4003f0:	8f828020 	lw	v0,-32736(gp)
  4003f4:	00000000 	nop
  4003f8:	0062102a 	slt	v0,v1,v0
  4003fc:	14400007 	bnez	v0,40041c <compress+0x2c0>
  400400:	00000000 	nop
  400404:	8f82801c 	lw	v0,-32740(gp)
  400408:	00000000 	nop
  40040c:	10400003 	beqz	v0,40041c <compress+0x2c0>
  400410:	00000000 	nop
  400414:	0c10011d 	jal	400474 <cl_block>
  400418:	00000000 	nop
  40041c:	8f82805c 	lw	v0,-32676(gp)
  400420:	00000000 	nop
  400424:	1c40ff83 	bgtz	v0,400234 <compress+0xd8>
  400428:	00000000 	nop
  40042c:	8f838054 	lw	v1,-32684(gp)
  400430:	8f828024 	lw	v0,-32732(gp)
  400434:	00000000 	nop
  400438:	0043102a 	slt	v0,v0,v1
  40043c:	10400003 	beqz	v0,40044c <compress+0x2f0>
  400440:	00000000 	nop
  400444:	24020002 	li	v0,2
  400448:	af82802c 	sw	v0,-32724(gp)
  40044c:	00000000 	nop
  400450:	8fbf0034 	lw	ra,52(sp)
  400454:	8fb50030 	lw	s5,48(sp)
  400458:	8fb4002c 	lw	s4,44(sp)
  40045c:	8fb30028 	lw	s3,40(sp)
  400460:	8fb20024 	lw	s2,36(sp)
  400464:	8fb10020 	lw	s1,32(sp)
  400468:	8fb0001c 	lw	s0,28(sp)
  40046c:	03e00008 	jr	ra
  400470:	27bd0038 	addiu	sp,sp,56

00400474 <cl_block>:
  400474:	27bdffe8 	addiu	sp,sp,-24
  400478:	afbf0014 	sw	ra,20(sp)
  40047c:	afb00010 	sw	s0,16(sp)
  400480:	8f828024 	lw	v0,-32732(gp)
  400484:	00000000 	nop
  400488:	24422710 	addiu	v0,v0,10000
  40048c:	af828020 	sw	v0,-32736(gp)
  400490:	8f838024 	lw	v1,-32732(gp)
  400494:	3c020080 	lui	v0,0x80
  400498:	0062102a 	slt	v0,v1,v0
  40049c:	14400014 	bnez	v0,4004f0 <cl_block+0x7c>
  4004a0:	00000000 	nop
  4004a4:	8f828054 	lw	v0,-32684(gp)
  4004a8:	00000000 	nop
  4004ac:	00028203 	sra	s0,v0,0x8
  4004b0:	16000005 	bnez	s0,4004c8 <cl_block+0x54>
  4004b4:	00000000 	nop
  4004b8:	3c027fff 	lui	v0,0x7fff
  4004bc:	3450ffff 	ori	s0,v0,0xffff
  4004c0:	08100147 	j	40051c <cl_block+0xa8>
  4004c4:	00000000 	nop
  4004c8:	8f828024 	lw	v0,-32732(gp)
  4004cc:	00000000 	nop
  4004d0:	16000002 	bnez	s0,4004dc <cl_block+0x68>
  4004d4:	0050001a 	div	zero,v0,s0
  4004d8:	0007000d 	break	0x7
  4004dc:	00001810 	mfhi	v1
  4004e0:	00001012 	mflo	v0
  4004e4:	00408021 	move	s0,v0
  4004e8:	08100147 	j	40051c <cl_block+0xa8>
  4004ec:	00000000 	nop
  4004f0:	8f828024 	lw	v0,-32732(gp)
  4004f4:	00000000 	nop
  4004f8:	00021a00 	sll	v1,v0,0x8
  4004fc:	8f828054 	lw	v0,-32684(gp)
  400500:	00000000 	nop
  400504:	14400002 	bnez	v0,400510 <cl_block+0x9c>
  400508:	0062001a 	div	zero,v1,v0
  40050c:	0007000d 	break	0x7
  400510:	00001810 	mfhi	v1
  400514:	00001012 	mflo	v0
  400518:	00408021 	move	s0,v0
  40051c:	8f828038 	lw	v0,-32712(gp)
  400520:	00000000 	nop
  400524:	0050102a 	slt	v0,v0,s0
  400528:	10400004 	beqz	v0,40053c <cl_block+0xc8>
  40052c:	00000000 	nop
  400530:	af908038 	sw	s0,-32712(gp)
  400534:	0810015c 	j	400570 <cl_block+0xfc>
  400538:	00000000 	nop
  40053c:	af808038 	sw	zero,-32712(gp)
  400540:	8f828010 	lw	v0,-32752(gp)
  400544:	00000000 	nop
  400548:	00402021 	move	a0,v0
  40054c:	0c100161 	jal	400584 <cl_hash>
  400550:	00000000 	nop
  400554:	24020101 	li	v0,257
  400558:	af828028 	sw	v0,-32728(gp)
  40055c:	24020001 	li	v0,1
  400560:	af828034 	sw	v0,-32716(gp)
  400564:	24040100 	li	a0,256
  400568:	0c1001e5 	jal	400794 <output>
  40056c:	00000000 	nop
  400570:	8fbf0014 	lw	ra,20(sp)
  400574:	8fb00010 	lw	s0,16(sp)
  400578:	27bd0018 	addiu	sp,sp,24
  40057c:	03e00008 	jr	ra
  400580:	00000000 	nop

00400584 <cl_hash>:
  400584:	27bdfff0 	addiu	sp,sp,-16
  400588:	afb2000c 	sw	s2,12(sp)
  40058c:	afb10008 	sw	s1,8(sp)
  400590:	afb00004 	sw	s0,4(sp)
  400594:	afa40010 	sw	a0,16(sp)
  400598:	8fa20010 	lw	v0,16(sp)
  40059c:	00000000 	nop
  4005a0:	00021880 	sll	v1,v0,0x2
  4005a4:	3c020040 	lui	v0,0x40
  4005a8:	244210e4 	addiu	v0,v0,4324
  4005ac:	00628021 	addu	s0,v1,v0
  4005b0:	2411ffff 	li	s1,-1
  4005b4:	8fa20010 	lw	v0,16(sp)
  4005b8:	00000000 	nop
  4005bc:	2452fff0 	addiu	s2,v0,-16
  4005c0:	2602ffc0 	addiu	v0,s0,-64
  4005c4:	ac510000 	sw	s1,0(v0)
  4005c8:	2602ffc4 	addiu	v0,s0,-60
  4005cc:	ac510000 	sw	s1,0(v0)
  4005d0:	2602ffc8 	addiu	v0,s0,-56
  4005d4:	ac510000 	sw	s1,0(v0)
  4005d8:	2602ffcc 	addiu	v0,s0,-52
  4005dc:	ac510000 	sw	s1,0(v0)
  4005e0:	2602ffd0 	addiu	v0,s0,-48
  4005e4:	ac510000 	sw	s1,0(v0)
  4005e8:	2602ffd4 	addiu	v0,s0,-44
  4005ec:	ac510000 	sw	s1,0(v0)
  4005f0:	2602ffd8 	addiu	v0,s0,-40
  4005f4:	ac510000 	sw	s1,0(v0)
  4005f8:	2602ffdc 	addiu	v0,s0,-36
  4005fc:	ac510000 	sw	s1,0(v0)
  400600:	2602ffe0 	addiu	v0,s0,-32
  400604:	ac510000 	sw	s1,0(v0)
  400608:	2602ffe4 	addiu	v0,s0,-28
  40060c:	ac510000 	sw	s1,0(v0)
  400610:	2602ffe8 	addiu	v0,s0,-24
  400614:	ac510000 	sw	s1,0(v0)
  400618:	2602ffec 	addiu	v0,s0,-20
  40061c:	ac510000 	sw	s1,0(v0)
  400620:	2602fff0 	addiu	v0,s0,-16
  400624:	ac510000 	sw	s1,0(v0)
  400628:	2602fff4 	addiu	v0,s0,-12
  40062c:	ac510000 	sw	s1,0(v0)
  400630:	2602fff8 	addiu	v0,s0,-8
  400634:	ac510000 	sw	s1,0(v0)
  400638:	2602fffc 	addiu	v0,s0,-4
  40063c:	ac510000 	sw	s1,0(v0)
  400640:	2610ffc0 	addiu	s0,s0,-64
  400644:	2652fff0 	addiu	s2,s2,-16
  400648:	0641ffdd 	bgez	s2,4005c0 <cl_hash+0x3c>
  40064c:	00000000 	nop
  400650:	08100199 	j	400664 <cl_hash+0xe0>
  400654:	26520010 	addiu	s2,s2,16
  400658:	2610fffc 	addiu	s0,s0,-4
  40065c:	ae110000 	sw	s1,0(s0)
  400660:	2652ffff 	addiu	s2,s2,-1
  400664:	1e40fffc 	bgtz	s2,400658 <cl_hash+0xd4>
  400668:	00000000 	nop
  40066c:	8fb2000c 	lw	s2,12(sp)
  400670:	8fb10008 	lw	s1,8(sp)
  400674:	8fb00004 	lw	s0,4(sp)
  400678:	03e00008 	jr	ra
  40067c:	27bd0010 	addiu	sp,sp,16

00400680 <getbyte>:
  400680:	8f82805c 	lw	v0,-32676(gp)
  400684:	00000000 	nop
  400688:	18400014 	blez	v0,4006dc <getbyte+0x5c>
  40068c:	00000000 	nop
  400690:	8f82804c 	lw	v0,-32692(gp)
  400694:	00000000 	nop
  400698:	0002182a 	slt	v1,zero,v0
  40069c:	306300ff 	andi	v1,v1,0xff
  4006a0:	2442ffff 	addiu	v0,v0,-1
  4006a4:	af82804c 	sw	v0,-32692(gp)
  4006a8:	1060000c 	beqz	v1,4006dc <getbyte+0x5c>
  4006ac:	00000000 	nop
  4006b0:	8f82805c 	lw	v0,-32676(gp)
  4006b4:	00000000 	nop
  4006b8:	2442ffff 	addiu	v0,v0,-1
  4006bc:	af82805c 	sw	v0,-32676(gp)
  4006c0:	8f838048 	lw	v1,-32696(gp)
  4006c4:	00000000 	nop
  4006c8:	90620000 	lbu	v0,0(v1)
  4006cc:	24630001 	addiu	v1,v1,1
  4006d0:	af838048 	sw	v1,-32696(gp)
  4006d4:	081001b8 	j	4006e0 <getbyte+0x60>
  4006d8:	00000000 	nop
  4006dc:	2402ffff 	li	v0,-1
  4006e0:	03e00008 	jr	ra
  4006e4:	00000000 	nop

004006e8 <putbyte>:
  4006e8:	00801021 	move	v0,a0
  4006ec:	a3a20000 	sb	v0,0(sp)
  4006f0:	8f828050 	lw	v0,-32688(gp)
  4006f4:	93a30000 	lbu	v1,0(sp)
  4006f8:	00000000 	nop
  4006fc:	a0430000 	sb	v1,0(v0)
  400700:	24420001 	addiu	v0,v0,1
  400704:	af828050 	sw	v0,-32688(gp)
  400708:	03e00008 	jr	ra
  40070c:	00000000 	nop

00400710 <writebytes>:
  400710:	27bdfff8 	addiu	sp,sp,-8
  400714:	afa40008 	sw	a0,8(sp)
  400718:	afa5000c 	sw	a1,12(sp)
  40071c:	081001d8 	j	400760 <writebytes+0x50>
  400720:	afa00000 	sw	zero,0(sp)
  400724:	8f828050 	lw	v0,-32688(gp)
  400728:	8fa30000 	lw	v1,0(sp)
  40072c:	8fa40008 	lw	a0,8(sp)
  400730:	00000000 	nop
  400734:	00831821 	addu	v1,a0,v1
  400738:	80630000 	lb	v1,0(v1)
  40073c:	00000000 	nop
  400740:	306300ff 	andi	v1,v1,0xff
  400744:	a0430000 	sb	v1,0(v0)
  400748:	24420001 	addiu	v0,v0,1
  40074c:	af828050 	sw	v0,-32688(gp)
  400750:	8fa20000 	lw	v0,0(sp)
  400754:	00000000 	nop
  400758:	24420001 	addiu	v0,v0,1
  40075c:	afa20000 	sw	v0,0(sp)
  400760:	8fa30000 	lw	v1,0(sp)
  400764:	8fa2000c 	lw	v0,12(sp)
  400768:	00000000 	nop
  40076c:	0062102a 	slt	v0,v1,v0
  400770:	10400006 	beqz	v0,40078c <writebytes+0x7c>
  400774:	00000000 	nop
  400778:	8fa20000 	lw	v0,0(sp)
  40077c:	00000000 	nop
  400780:	28420010 	slti	v0,v0,16
  400784:	1440ffe7 	bnez	v0,400724 <writebytes+0x14>
  400788:	00000000 	nop
  40078c:	03e00008 	jr	ra
  400790:	27bd0008 	addiu	sp,sp,8

00400794 <output>:
  400794:	27bdffe0 	addiu	sp,sp,-32
  400798:	afbf001c 	sw	ra,28(sp)
  40079c:	afb20018 	sw	s2,24(sp)
  4007a0:	afb10014 	sw	s1,20(sp)
  4007a4:	afb00010 	sw	s0,16(sp)
  4007a8:	afa40020 	sw	a0,32(sp)
  4007ac:	8f928044 	lw	s2,-32700(gp)
  4007b0:	8f918058 	lw	s1,-32680(gp)
  4007b4:	3c020040 	lui	v0,0x40
  4007b8:	24501750 	addiu	s0,v0,5968
  4007bc:	8fa20020 	lw	v0,32(sp)
  4007c0:	00000000 	nop
  4007c4:	0440009b 	bltz	v0,400a34 <output+0x2a0>
  4007c8:	00000000 	nop
  4007cc:	001210c3 	sra	v0,s2,0x3
  4007d0:	02028021 	addu	s0,s0,v0
  4007d4:	32520007 	andi	s2,s2,0x7
  4007d8:	82030000 	lb	v1,0(s0)
  4007dc:	3c020040 	lui	v0,0x40
  4007e0:	2442100c 	addiu	v0,v0,4108
  4007e4:	02421021 	addu	v0,s2,v0
  4007e8:	90420000 	lbu	v0,0(v0)
  4007ec:	00000000 	nop
  4007f0:	00021600 	sll	v0,v0,0x18
  4007f4:	00021603 	sra	v0,v0,0x18
  4007f8:	00621024 	and	v0,v1,v0
  4007fc:	00021e00 	sll	v1,v0,0x18
  400800:	00031e03 	sra	v1,v1,0x18
  400804:	8fa20020 	lw	v0,32(sp)
  400808:	00000000 	nop
  40080c:	02421004 	sllv	v0,v0,s2
  400810:	00022600 	sll	a0,v0,0x18
  400814:	00042603 	sra	a0,a0,0x18
  400818:	3c020040 	lui	v0,0x40
  40081c:	24421000 	addiu	v0,v0,4096
  400820:	02421021 	addu	v0,s2,v0
  400824:	90420000 	lbu	v0,0(v0)
  400828:	00000000 	nop
  40082c:	00021600 	sll	v0,v0,0x18
  400830:	00021603 	sra	v0,v0,0x18
  400834:	00821024 	and	v0,a0,v0
  400838:	00021600 	sll	v0,v0,0x18
  40083c:	00021603 	sra	v0,v0,0x18
  400840:	00621025 	or	v0,v1,v0
  400844:	00021600 	sll	v0,v0,0x18
  400848:	00021603 	sra	v0,v0,0x18
  40084c:	a2020000 	sb	v0,0(s0)
  400850:	26100001 	addiu	s0,s0,1
  400854:	2642fff8 	addiu	v0,s2,-8
  400858:	02228821 	addu	s1,s1,v0
  40085c:	24020008 	li	v0,8
  400860:	00521023 	subu	v0,v0,s2
  400864:	8fa30020 	lw	v1,32(sp)
  400868:	00000000 	nop
  40086c:	00431007 	srav	v0,v1,v0
  400870:	afa20020 	sw	v0,32(sp)
  400874:	2a220008 	slti	v0,s1,8
  400878:	1440000c 	bnez	v0,4008ac <output+0x118>
  40087c:	00000000 	nop
  400880:	8fa20020 	lw	v0,32(sp)
  400884:	00000000 	nop
  400888:	00021600 	sll	v0,v0,0x18
  40088c:	00021603 	sra	v0,v0,0x18
  400890:	a2020000 	sb	v0,0(s0)
  400894:	26100001 	addiu	s0,s0,1
  400898:	8fa20020 	lw	v0,32(sp)
  40089c:	00000000 	nop
  4008a0:	00021203 	sra	v0,v0,0x8
  4008a4:	afa20020 	sw	v0,32(sp)
  4008a8:	2631fff8 	addiu	s1,s1,-8
  4008ac:	12200006 	beqz	s1,4008c8 <output+0x134>
  4008b0:	00000000 	nop
  4008b4:	8fa20020 	lw	v0,32(sp)
  4008b8:	00000000 	nop
  4008bc:	00021600 	sll	v0,v0,0x18
  4008c0:	00021603 	sra	v0,v0,0x18
  4008c4:	a2020000 	sb	v0,0(s0)
  4008c8:	8f838044 	lw	v1,-32700(gp)
  4008cc:	8f828058 	lw	v0,-32680(gp)
  4008d0:	00000000 	nop
  4008d4:	00621021 	addu	v0,v1,v0
  4008d8:	af828044 	sw	v0,-32700(gp)
  4008dc:	8f828058 	lw	v0,-32680(gp)
  4008e0:	00000000 	nop
  4008e4:	000218c0 	sll	v1,v0,0x3
  4008e8:	8f828044 	lw	v0,-32700(gp)
  4008ec:	00000000 	nop
  4008f0:	14620017 	bne	v1,v0,400950 <output+0x1bc>
  4008f4:	00000000 	nop
  4008f8:	3c020040 	lui	v0,0x40
  4008fc:	24501750 	addiu	s0,v0,5968
  400900:	8f918058 	lw	s1,-32680(gp)
  400904:	8f828054 	lw	v0,-32684(gp)
  400908:	00000000 	nop
  40090c:	00511021 	addu	v0,v0,s1
  400910:	af828054 	sw	v0,-32684(gp)
  400914:	82020000 	lb	v0,0(s0)
  400918:	26100001 	addiu	s0,s0,1
  40091c:	0c1001ba 	jal	4006e8 <putbyte>
  400920:	00402021 	move	a0,v0
  400924:	2631ffff 	addiu	s1,s1,-1
  400928:	12200008 	beqz	s1,40094c <output+0x1b8>
  40092c:	00000000 	nop
  400930:	02001821 	move	v1,s0
  400934:	3c020040 	lui	v0,0x40
  400938:	24421750 	addiu	v0,v0,5968
  40093c:	00621023 	subu	v0,v1,v0
  400940:	28420010 	slti	v0,v0,16
  400944:	1440fff3 	bnez	v0,400914 <output+0x180>
  400948:	00000000 	nop
  40094c:	af808044 	sw	zero,-32700(gp)
  400950:	8f838028 	lw	v1,-32728(gp)
  400954:	8f828060 	lw	v0,-32672(gp)
  400958:	00000000 	nop
  40095c:	0043102a 	slt	v0,v0,v1
  400960:	14400005 	bnez	v0,400978 <output+0x1e4>
  400964:	00000000 	nop
  400968:	8f828034 	lw	v0,-32716(gp)
  40096c:	00000000 	nop
  400970:	1840004c 	blez	v0,400aa4 <output+0x310>
  400974:	00000000 	nop
  400978:	8f828044 	lw	v0,-32700(gp)
  40097c:	00000000 	nop
  400980:	1840000b 	blez	v0,4009b0 <output+0x21c>
  400984:	00000000 	nop
  400988:	8f828058 	lw	v0,-32680(gp)
  40098c:	3c030040 	lui	v1,0x40
  400990:	24641750 	addiu	a0,v1,5968
  400994:	0c1001c4 	jal	400710 <writebytes>
  400998:	00402821 	move	a1,v0
  40099c:	8f838054 	lw	v1,-32684(gp)
  4009a0:	8f828058 	lw	v0,-32680(gp)
  4009a4:	00000000 	nop
  4009a8:	00621021 	addu	v0,v1,v0
  4009ac:	af828054 	sw	v0,-32684(gp)
  4009b0:	af808044 	sw	zero,-32700(gp)
  4009b4:	8f828034 	lw	v0,-32716(gp)
  4009b8:	00000000 	nop
  4009bc:	1040000a 	beqz	v0,4009e8 <output+0x254>
  4009c0:	00000000 	nop
  4009c4:	24020009 	li	v0,9
  4009c8:	af828058 	sw	v0,-32680(gp)
  4009cc:	8f828058 	lw	v0,-32680(gp)
  4009d0:	24030001 	li	v1,1
  4009d4:	00431004 	sllv	v0,v1,v0
  4009d8:	2442ffff 	addiu	v0,v0,-1
  4009dc:	af828060 	sw	v0,-32672(gp)
  4009e0:	081002a9 	j	400aa4 <output+0x310>
  4009e4:	af808034 	sw	zero,-32716(gp)
  4009e8:	8f828058 	lw	v0,-32680(gp)
  4009ec:	00000000 	nop
  4009f0:	24420001 	addiu	v0,v0,1
  4009f4:	af828058 	sw	v0,-32680(gp)
  4009f8:	8f838058 	lw	v1,-32680(gp)
  4009fc:	8f828008 	lw	v0,-32760(gp)
  400a00:	00000000 	nop
  400a04:	14620005 	bne	v1,v0,400a1c <output+0x288>
  400a08:	00000000 	nop
  400a0c:	8f82800c 	lw	v0,-32756(gp)
  400a10:	00000000 	nop
  400a14:	081002a9 	j	400aa4 <output+0x310>
  400a18:	af828060 	sw	v0,-32672(gp)
  400a1c:	8f828058 	lw	v0,-32680(gp)
  400a20:	24030001 	li	v1,1
  400a24:	00431004 	sllv	v0,v1,v0
  400a28:	2442ffff 	addiu	v0,v0,-1
  400a2c:	081002a9 	j	400aa4 <output+0x310>
  400a30:	af828060 	sw	v0,-32672(gp)
  400a34:	8f828044 	lw	v0,-32700(gp)
  400a38:	00000000 	nop
  400a3c:	1840000c 	blez	v0,400a70 <output+0x2dc>
  400a40:	00000000 	nop
  400a44:	8f828044 	lw	v0,-32700(gp)
  400a48:	00000000 	nop
  400a4c:	24420007 	addiu	v0,v0,7
  400a50:	04410002 	bgez	v0,400a5c <output+0x2c8>
  400a54:	00000000 	nop
  400a58:	24420007 	addiu	v0,v0,7
  400a5c:	000210c3 	sra	v0,v0,0x3
  400a60:	3c030040 	lui	v1,0x40
  400a64:	24641750 	addiu	a0,v1,5968
  400a68:	0c1001c4 	jal	400710 <writebytes>
  400a6c:	00402821 	move	a1,v0
  400a70:	8f828044 	lw	v0,-32700(gp)
  400a74:	00000000 	nop
  400a78:	24420007 	addiu	v0,v0,7
  400a7c:	04410002 	bgez	v0,400a88 <output+0x2f4>
  400a80:	00000000 	nop
  400a84:	24420007 	addiu	v0,v0,7
  400a88:	000210c3 	sra	v0,v0,0x3
  400a8c:	00401821 	move	v1,v0
  400a90:	8f828054 	lw	v0,-32684(gp)
  400a94:	00000000 	nop
  400a98:	00621021 	addu	v0,v1,v0
  400a9c:	af828054 	sw	v0,-32684(gp)
  400aa0:	af808044 	sw	zero,-32700(gp)
  400aa4:	8fbf001c 	lw	ra,28(sp)
  400aa8:	8fb20018 	lw	s2,24(sp)
  400aac:	8fb10014 	lw	s1,20(sp)
  400ab0:	8fb00010 	lw	s0,16(sp)
  400ab4:	03e00008 	jr	ra
  400ab8:	27bd0020 	addiu	sp,sp,32
