
/tmp/jfdctint:     file format elf32-bigmips

SYMBOL TABLE:
00400000 l    d  .reginfo	00000000 .reginfo
00400018 l    d  .text	00000000 .text
00401c00 l    d  .bss	00000000 .bss
00000000 l    d  .pdr	00000000 .pdr
00000000 l    d  .wcet_annot	00000000 .wcet_annot
00000000 l    d  .comment	00000000 .comment
00000000 l    d  .debug_aranges	00000000 .debug_aranges
00000000 l    d  .debug_info	00000000 .debug_info
00000000 l    d  .debug_abbrev	00000000 .debug_abbrev
00000000 l    d  .debug_line	00000000 .debug_line
00000000 l    d  .debug_frame	00000000 .debug_frame
00000000 l    d  .debug_str	00000000 .debug_str
00000000 l    d  .debug_loc	00000000 .debug_loc
00000000 l    d  .gnu.attributes	00000000 .gnu.attributes
00000010 l    d  .mdebug.abi32	00000000 .mdebug.abi32
00000000 l    df *ABS*	00000000 jfdctint.c
00401c00 g       .text	00000000 _fdata
00409bf0 g       *ABS*	00000000 _gp
00401c00 g     O .bss	00000100 dataptr
00400018 g     F .text	00000b34 jpeg_fdct_islow
00400018 g       .text	00000000 _ftext
00401c00 g       *ABS*	00000000 __bss_start
00401d00 g     O .bss	00000100 data
00400b4c g     F .text	000000b4 main
00401c00 g       *ABS*	00000000 _edata
00401e00 g       *ABS*	00000000 _end
00401c00 g       *ABS*	00000000 _fbss



Disassembly of section .text:

00400018 <jpeg_fdct_islow>:
  400018:	27bdffb8 	addiu	sp,sp,-72
  40001c:	24020007 	li	v0,7
  400020:	08100167 	j	40059c <jpeg_fdct_islow+0x584>
  400024:	afa20000 	sw	v0,0(sp)
  400028:	3c020040 	lui	v0,0x40
  40002c:	8c431c00 	lw	v1,7168(v0)
  400030:	3c020040 	lui	v0,0x40
  400034:	24421c00 	addiu	v0,v0,7168
  400038:	8c42001c 	lw	v0,28(v0)
  40003c:	00000000 	nop
  400040:	00621021 	addu	v0,v1,v0
  400044:	afa20004 	sw	v0,4(sp)
  400048:	3c020040 	lui	v0,0x40
  40004c:	8c431c00 	lw	v1,7168(v0)
  400050:	3c020040 	lui	v0,0x40
  400054:	24421c00 	addiu	v0,v0,7168
  400058:	8c42001c 	lw	v0,28(v0)
  40005c:	00000000 	nop
  400060:	00621023 	subu	v0,v1,v0
  400064:	afa20008 	sw	v0,8(sp)
  400068:	3c020040 	lui	v0,0x40
  40006c:	24421c00 	addiu	v0,v0,7168
  400070:	8c430004 	lw	v1,4(v0)
  400074:	3c020040 	lui	v0,0x40
  400078:	24421c00 	addiu	v0,v0,7168
  40007c:	8c420018 	lw	v0,24(v0)
  400080:	00000000 	nop
  400084:	00621021 	addu	v0,v1,v0
  400088:	afa2000c 	sw	v0,12(sp)
  40008c:	3c020040 	lui	v0,0x40
  400090:	24421c00 	addiu	v0,v0,7168
  400094:	8c430004 	lw	v1,4(v0)
  400098:	3c020040 	lui	v0,0x40
  40009c:	24421c00 	addiu	v0,v0,7168
  4000a0:	8c420018 	lw	v0,24(v0)
  4000a4:	00000000 	nop
  4000a8:	00621023 	subu	v0,v1,v0
  4000ac:	afa20010 	sw	v0,16(sp)
  4000b0:	3c020040 	lui	v0,0x40
  4000b4:	24421c00 	addiu	v0,v0,7168
  4000b8:	8c430008 	lw	v1,8(v0)
  4000bc:	3c020040 	lui	v0,0x40
  4000c0:	24421c00 	addiu	v0,v0,7168
  4000c4:	8c420014 	lw	v0,20(v0)
  4000c8:	00000000 	nop
  4000cc:	00621021 	addu	v0,v1,v0
  4000d0:	afa20014 	sw	v0,20(sp)
  4000d4:	3c020040 	lui	v0,0x40
  4000d8:	24421c00 	addiu	v0,v0,7168
  4000dc:	8c430008 	lw	v1,8(v0)
  4000e0:	3c020040 	lui	v0,0x40
  4000e4:	24421c00 	addiu	v0,v0,7168
  4000e8:	8c420014 	lw	v0,20(v0)
  4000ec:	00000000 	nop
  4000f0:	00621023 	subu	v0,v1,v0
  4000f4:	afa20018 	sw	v0,24(sp)
  4000f8:	3c020040 	lui	v0,0x40
  4000fc:	24421c00 	addiu	v0,v0,7168
  400100:	8c43000c 	lw	v1,12(v0)
  400104:	3c020040 	lui	v0,0x40
  400108:	24421c00 	addiu	v0,v0,7168
  40010c:	8c420010 	lw	v0,16(v0)
  400110:	00000000 	nop
  400114:	00621021 	addu	v0,v1,v0
  400118:	afa2001c 	sw	v0,28(sp)
  40011c:	3c020040 	lui	v0,0x40
  400120:	24421c00 	addiu	v0,v0,7168
  400124:	8c43000c 	lw	v1,12(v0)
  400128:	3c020040 	lui	v0,0x40
  40012c:	24421c00 	addiu	v0,v0,7168
  400130:	8c420010 	lw	v0,16(v0)
  400134:	00000000 	nop
  400138:	00621023 	subu	v0,v1,v0
  40013c:	afa20020 	sw	v0,32(sp)
  400140:	8fa30004 	lw	v1,4(sp)
  400144:	8fa2001c 	lw	v0,28(sp)
  400148:	00000000 	nop
  40014c:	00621021 	addu	v0,v1,v0
  400150:	afa20024 	sw	v0,36(sp)
  400154:	8fa30004 	lw	v1,4(sp)
  400158:	8fa2001c 	lw	v0,28(sp)
  40015c:	00000000 	nop
  400160:	00621023 	subu	v0,v1,v0
  400164:	afa20028 	sw	v0,40(sp)
  400168:	8fa3000c 	lw	v1,12(sp)
  40016c:	8fa20014 	lw	v0,20(sp)
  400170:	00000000 	nop
  400174:	00621021 	addu	v0,v1,v0
  400178:	afa2002c 	sw	v0,44(sp)
  40017c:	8fa3000c 	lw	v1,12(sp)
  400180:	8fa20014 	lw	v0,20(sp)
  400184:	00000000 	nop
  400188:	00621023 	subu	v0,v1,v0
  40018c:	afa20030 	sw	v0,48(sp)
  400190:	8fa30024 	lw	v1,36(sp)
  400194:	8fa2002c 	lw	v0,44(sp)
  400198:	00000000 	nop
  40019c:	00621021 	addu	v0,v1,v0
  4001a0:	00021880 	sll	v1,v0,0x2
  4001a4:	3c020040 	lui	v0,0x40
  4001a8:	ac431c00 	sw	v1,7168(v0)
  4001ac:	8fa30024 	lw	v1,36(sp)
  4001b0:	8fa2002c 	lw	v0,44(sp)
  4001b4:	00000000 	nop
  4001b8:	00621023 	subu	v0,v1,v0
  4001bc:	00021880 	sll	v1,v0,0x2
  4001c0:	3c020040 	lui	v0,0x40
  4001c4:	24421c00 	addiu	v0,v0,7168
  4001c8:	ac430010 	sw	v1,16(v0)
  4001cc:	8fa30030 	lw	v1,48(sp)
  4001d0:	8fa20028 	lw	v0,40(sp)
  4001d4:	00000000 	nop
  4001d8:	00621821 	addu	v1,v1,v0
  4001dc:	00601021 	move	v0,v1
  4001e0:	00021100 	sll	v0,v0,0x4
  4001e4:	000220c0 	sll	a0,v0,0x3
  4001e8:	00441021 	addu	v0,v0,a0
  4001ec:	00431023 	subu	v0,v0,v1
  4001f0:	00021940 	sll	v1,v0,0x5
  4001f4:	00621023 	subu	v0,v1,v0
  4001f8:	afa20034 	sw	v0,52(sp)
  4001fc:	8fa40028 	lw	a0,40(sp)
  400200:	00000000 	nop
  400204:	00801021 	move	v0,a0
  400208:	00021180 	sll	v0,v0,0x6
  40020c:	000218c0 	sll	v1,v0,0x3
  400210:	00621823 	subu	v1,v1,v0
  400214:	000310c0 	sll	v0,v1,0x3
  400218:	00431023 	subu	v0,v0,v1
  40021c:	00441023 	subu	v0,v0,a0
  400220:	00021040 	sll	v0,v0,0x1
  400224:	00401821 	move	v1,v0
  400228:	8fa20034 	lw	v0,52(sp)
  40022c:	00000000 	nop
  400230:	00621021 	addu	v0,v1,v0
  400234:	24420400 	addiu	v0,v0,1024
  400238:	00021ac3 	sra	v1,v0,0xb
  40023c:	3c020040 	lui	v0,0x40
  400240:	24421c00 	addiu	v0,v0,7168
  400244:	ac430008 	sw	v1,8(v0)
  400248:	8fa30030 	lw	v1,48(sp)
  40024c:	00000000 	nop
  400250:	00602021 	move	a0,v1
  400254:	00041080 	sll	v0,a0,0x2
  400258:	00402021 	move	a0,v0
  40025c:	00041100 	sll	v0,a0,0x4
  400260:	00441023 	subu	v0,v0,a0
  400264:	00431023 	subu	v0,v0,v1
  400268:	000210c0 	sll	v0,v0,0x3
  40026c:	00431021 	addu	v0,v0,v1
  400270:	00021140 	sll	v0,v0,0x5
  400274:	00431021 	addu	v0,v0,v1
  400278:	00021023 	negu	v0,v0
  40027c:	8fa30034 	lw	v1,52(sp)
  400280:	00000000 	nop
  400284:	00431021 	addu	v0,v0,v1
  400288:	24420400 	addiu	v0,v0,1024
  40028c:	00021ac3 	sra	v1,v0,0xb
  400290:	3c020040 	lui	v0,0x40
  400294:	24421c00 	addiu	v0,v0,7168
  400298:	ac430018 	sw	v1,24(v0)
  40029c:	8fa30020 	lw	v1,32(sp)
  4002a0:	8fa20008 	lw	v0,8(sp)
  4002a4:	00000000 	nop
  4002a8:	00621021 	addu	v0,v1,v0
  4002ac:	afa20034 	sw	v0,52(sp)
  4002b0:	8fa30018 	lw	v1,24(sp)
  4002b4:	8fa20010 	lw	v0,16(sp)
  4002b8:	00000000 	nop
  4002bc:	00621021 	addu	v0,v1,v0
  4002c0:	afa20038 	sw	v0,56(sp)
  4002c4:	8fa30020 	lw	v1,32(sp)
  4002c8:	8fa20010 	lw	v0,16(sp)
  4002cc:	00000000 	nop
  4002d0:	00621021 	addu	v0,v1,v0
  4002d4:	afa2003c 	sw	v0,60(sp)
  4002d8:	8fa30018 	lw	v1,24(sp)
  4002dc:	8fa20008 	lw	v0,8(sp)
  4002e0:	00000000 	nop
  4002e4:	00621021 	addu	v0,v1,v0
  4002e8:	afa20040 	sw	v0,64(sp)
  4002ec:	8fa3003c 	lw	v1,60(sp)
  4002f0:	8fa20040 	lw	v0,64(sp)
  4002f4:	00000000 	nop
  4002f8:	00622021 	addu	a0,v1,v0
  4002fc:	00801821 	move	v1,a0
  400300:	00031080 	sll	v0,v1,0x2
  400304:	00401821 	move	v1,v0
  400308:	00031080 	sll	v0,v1,0x2
  40030c:	00621821 	addu	v1,v1,v0
  400310:	00031100 	sll	v0,v1,0x4
  400314:	00431023 	subu	v0,v0,v1
  400318:	00441021 	addu	v0,v0,a0
  40031c:	00021140 	sll	v0,v0,0x5
  400320:	00441021 	addu	v0,v0,a0
  400324:	afa20044 	sw	v0,68(sp)
  400328:	8fa30020 	lw	v1,32(sp)
  40032c:	00000000 	nop
  400330:	00601021 	move	v0,v1
  400334:	000210c0 	sll	v0,v0,0x3
  400338:	000220c0 	sll	a0,v0,0x3
  40033c:	00441021 	addu	v0,v0,a0
  400340:	00022100 	sll	a0,v0,0x4
  400344:	00441021 	addu	v0,v0,a0
  400348:	00431023 	subu	v0,v0,v1
  40034c:	00021040 	sll	v0,v0,0x1
  400350:	afa20020 	sw	v0,32(sp)
  400354:	8fa40018 	lw	a0,24(sp)
  400358:	00000000 	nop
  40035c:	00801021 	move	v0,a0
  400360:	000210c0 	sll	v0,v0,0x3
  400364:	000218c0 	sll	v1,v0,0x3
  400368:	00621823 	subu	v1,v1,v0
  40036c:	00031100 	sll	v0,v1,0x4
  400370:	00431023 	subu	v0,v0,v1
  400374:	00441021 	addu	v0,v0,a0
  400378:	00021880 	sll	v1,v0,0x2
  40037c:	00431021 	addu	v0,v0,v1
  400380:	00021080 	sll	v0,v0,0x2
  400384:	00441023 	subu	v0,v0,a0
  400388:	afa20018 	sw	v0,24(sp)
  40038c:	8fa40010 	lw	a0,16(sp)
  400390:	00000000 	nop
  400394:	00801821 	move	v1,a0
  400398:	00031080 	sll	v0,v1,0x2
  40039c:	00401821 	move	v1,v0
  4003a0:	00031080 	sll	v0,v1,0x2
  4003a4:	00431023 	subu	v0,v0,v1
  4003a8:	00021900 	sll	v1,v0,0x4
  4003ac:	00431021 	addu	v0,v0,v1
  4003b0:	00441023 	subu	v0,v0,a0
  4003b4:	00021940 	sll	v1,v0,0x5
  4003b8:	00621823 	subu	v1,v1,v0
  4003bc:	00031080 	sll	v0,v1,0x2
  4003c0:	00401821 	move	v1,v0
  4003c4:	afa30010 	sw	v1,16(sp)
  4003c8:	8fa40008 	lw	a0,8(sp)
  4003cc:	00000000 	nop
  4003d0:	00801821 	move	v1,a0
  4003d4:	00031080 	sll	v0,v1,0x2
  4003d8:	00401821 	move	v1,v0
  4003dc:	00031080 	sll	v0,v1,0x2
  4003e0:	00431023 	subu	v0,v0,v1
  4003e4:	00021a80 	sll	v1,v0,0xa
  4003e8:	00431021 	addu	v0,v0,v1
  4003ec:	00441023 	subu	v0,v0,a0
  4003f0:	afa20008 	sw	v0,8(sp)
  4003f4:	8fa30034 	lw	v1,52(sp)
  4003f8:	2402e333 	li	v0,-7373
  4003fc:	00620018 	mult	v1,v0
  400400:	00001012 	mflo	v0
  400404:	afa20034 	sw	v0,52(sp)
  400408:	8fa30038 	lw	v1,56(sp)
  40040c:	00000000 	nop
  400410:	00601021 	move	v0,v1
  400414:	00021080 	sll	v0,v0,0x2
  400418:	000220c0 	sll	a0,v0,0x3
  40041c:	00441021 	addu	v0,v0,a0
  400420:	000220c0 	sll	a0,v0,0x3
  400424:	00441021 	addu	v0,v0,a0
  400428:	00431023 	subu	v0,v0,v1
  40042c:	00021980 	sll	v1,v0,0x6
  400430:	00431021 	addu	v0,v0,v1
  400434:	00021023 	negu	v0,v0
  400438:	afa20038 	sw	v0,56(sp)
  40043c:	8fa3003c 	lw	v1,60(sp)
  400440:	00000000 	nop
  400444:	00602021 	move	a0,v1
  400448:	00041080 	sll	v0,a0,0x2
  40044c:	00402021 	move	a0,v0
  400450:	00041180 	sll	v0,a0,0x6
  400454:	00441023 	subu	v0,v0,a0
  400458:	00431023 	subu	v0,v0,v1
  40045c:	00021100 	sll	v0,v0,0x4
  400460:	00431021 	addu	v0,v0,v1
  400464:	00021080 	sll	v0,v0,0x2
  400468:	00431021 	addu	v0,v0,v1
  40046c:	00021023 	negu	v0,v0
  400470:	afa2003c 	sw	v0,60(sp)
  400474:	8fa30040 	lw	v1,64(sp)
  400478:	00000000 	nop
  40047c:	00601021 	move	v0,v1
  400480:	00021140 	sll	v0,v0,0x5
  400484:	00022080 	sll	a0,v0,0x2
  400488:	00441021 	addu	v0,v0,a0
  40048c:	00022080 	sll	a0,v0,0x2
  400490:	00441021 	addu	v0,v0,a0
  400494:	00431023 	subu	v0,v0,v1
  400498:	00021080 	sll	v0,v0,0x2
  40049c:	00021023 	negu	v0,v0
  4004a0:	afa20040 	sw	v0,64(sp)
  4004a4:	8fa3003c 	lw	v1,60(sp)
  4004a8:	8fa20044 	lw	v0,68(sp)
  4004ac:	00000000 	nop
  4004b0:	00621021 	addu	v0,v1,v0
  4004b4:	afa2003c 	sw	v0,60(sp)
  4004b8:	8fa30040 	lw	v1,64(sp)
  4004bc:	8fa20044 	lw	v0,68(sp)
  4004c0:	00000000 	nop
  4004c4:	00621021 	addu	v0,v1,v0
  4004c8:	afa20040 	sw	v0,64(sp)
  4004cc:	8fa30020 	lw	v1,32(sp)
  4004d0:	8fa20034 	lw	v0,52(sp)
  4004d4:	00000000 	nop
  4004d8:	00621821 	addu	v1,v1,v0
  4004dc:	8fa2003c 	lw	v0,60(sp)
  4004e0:	00000000 	nop
  4004e4:	00621021 	addu	v0,v1,v0
  4004e8:	24420400 	addiu	v0,v0,1024
  4004ec:	00021ac3 	sra	v1,v0,0xb
  4004f0:	3c020040 	lui	v0,0x40
  4004f4:	24421c00 	addiu	v0,v0,7168
  4004f8:	ac43001c 	sw	v1,28(v0)
  4004fc:	8fa30018 	lw	v1,24(sp)
  400500:	8fa20038 	lw	v0,56(sp)
  400504:	00000000 	nop
  400508:	00621821 	addu	v1,v1,v0
  40050c:	8fa20040 	lw	v0,64(sp)
  400510:	00000000 	nop
  400514:	00621021 	addu	v0,v1,v0
  400518:	24420400 	addiu	v0,v0,1024
  40051c:	00021ac3 	sra	v1,v0,0xb
  400520:	3c020040 	lui	v0,0x40
  400524:	24421c00 	addiu	v0,v0,7168
  400528:	ac430014 	sw	v1,20(v0)
  40052c:	8fa30010 	lw	v1,16(sp)
  400530:	8fa20038 	lw	v0,56(sp)
  400534:	00000000 	nop
  400538:	00621821 	addu	v1,v1,v0
  40053c:	8fa2003c 	lw	v0,60(sp)
  400540:	00000000 	nop
  400544:	00621021 	addu	v0,v1,v0
  400548:	24420400 	addiu	v0,v0,1024
  40054c:	00021ac3 	sra	v1,v0,0xb
  400550:	3c020040 	lui	v0,0x40
  400554:	24421c00 	addiu	v0,v0,7168
  400558:	ac43000c 	sw	v1,12(v0)
  40055c:	8fa30008 	lw	v1,8(sp)
  400560:	8fa20034 	lw	v0,52(sp)
  400564:	00000000 	nop
  400568:	00621821 	addu	v1,v1,v0
  40056c:	8fa20040 	lw	v0,64(sp)
  400570:	00000000 	nop
  400574:	00621021 	addu	v0,v1,v0
  400578:	24420400 	addiu	v0,v0,1024
  40057c:	00021ac3 	sra	v1,v0,0xb
  400580:	3c020040 	lui	v0,0x40
  400584:	24421c00 	addiu	v0,v0,7168
  400588:	ac430004 	sw	v1,4(v0)
  40058c:	8fa20000 	lw	v0,0(sp)
  400590:	00000000 	nop
  400594:	2442ffff 	addiu	v0,v0,-1
  400598:	afa20000 	sw	v0,0(sp)
  40059c:	8fa20000 	lw	v0,0(sp)
  4005a0:	00000000 	nop
  4005a4:	0441fea0 	bgez	v0,400028 <jpeg_fdct_islow+0x10>
  4005a8:	00000000 	nop
  4005ac:	24020007 	li	v0,7
  4005b0:	081002cd 	j	400b34 <jpeg_fdct_islow+0xb1c>
  4005b4:	afa20000 	sw	v0,0(sp)
  4005b8:	3c020040 	lui	v0,0x40
  4005bc:	8c431c00 	lw	v1,7168(v0)
  4005c0:	3c020040 	lui	v0,0x40
  4005c4:	24421c00 	addiu	v0,v0,7168
  4005c8:	8c4200e0 	lw	v0,224(v0)
  4005cc:	00000000 	nop
  4005d0:	00621021 	addu	v0,v1,v0
  4005d4:	afa20004 	sw	v0,4(sp)
  4005d8:	3c020040 	lui	v0,0x40
  4005dc:	8c431c00 	lw	v1,7168(v0)
  4005e0:	3c020040 	lui	v0,0x40
  4005e4:	24421c00 	addiu	v0,v0,7168
  4005e8:	8c4200e0 	lw	v0,224(v0)
  4005ec:	00000000 	nop
  4005f0:	00621023 	subu	v0,v1,v0
  4005f4:	afa20008 	sw	v0,8(sp)
  4005f8:	3c020040 	lui	v0,0x40
  4005fc:	24421c00 	addiu	v0,v0,7168
  400600:	8c430020 	lw	v1,32(v0)
  400604:	3c020040 	lui	v0,0x40
  400608:	24421c00 	addiu	v0,v0,7168
  40060c:	8c4200c0 	lw	v0,192(v0)
  400610:	00000000 	nop
  400614:	00621021 	addu	v0,v1,v0
  400618:	afa2000c 	sw	v0,12(sp)
  40061c:	3c020040 	lui	v0,0x40
  400620:	24421c00 	addiu	v0,v0,7168
  400624:	8c430020 	lw	v1,32(v0)
  400628:	3c020040 	lui	v0,0x40
  40062c:	24421c00 	addiu	v0,v0,7168
  400630:	8c4200c0 	lw	v0,192(v0)
  400634:	00000000 	nop
  400638:	00621023 	subu	v0,v1,v0
  40063c:	afa20010 	sw	v0,16(sp)
  400640:	3c020040 	lui	v0,0x40
  400644:	24421c00 	addiu	v0,v0,7168
  400648:	8c430040 	lw	v1,64(v0)
  40064c:	3c020040 	lui	v0,0x40
  400650:	24421c00 	addiu	v0,v0,7168
  400654:	8c4200a0 	lw	v0,160(v0)
  400658:	00000000 	nop
  40065c:	00621021 	addu	v0,v1,v0
  400660:	afa20014 	sw	v0,20(sp)
  400664:	3c020040 	lui	v0,0x40
  400668:	24421c00 	addiu	v0,v0,7168
  40066c:	8c430040 	lw	v1,64(v0)
  400670:	3c020040 	lui	v0,0x40
  400674:	24421c00 	addiu	v0,v0,7168
  400678:	8c4200a0 	lw	v0,160(v0)
  40067c:	00000000 	nop
  400680:	00621023 	subu	v0,v1,v0
  400684:	afa20018 	sw	v0,24(sp)
  400688:	3c020040 	lui	v0,0x40
  40068c:	24421c00 	addiu	v0,v0,7168
  400690:	8c430060 	lw	v1,96(v0)
  400694:	3c020040 	lui	v0,0x40
  400698:	24421c00 	addiu	v0,v0,7168
  40069c:	8c420080 	lw	v0,128(v0)
  4006a0:	00000000 	nop
  4006a4:	00621021 	addu	v0,v1,v0
  4006a8:	afa2001c 	sw	v0,28(sp)
  4006ac:	3c020040 	lui	v0,0x40
  4006b0:	24421c00 	addiu	v0,v0,7168
  4006b4:	8c430060 	lw	v1,96(v0)
  4006b8:	3c020040 	lui	v0,0x40
  4006bc:	24421c00 	addiu	v0,v0,7168
  4006c0:	8c420080 	lw	v0,128(v0)
  4006c4:	00000000 	nop
  4006c8:	00621023 	subu	v0,v1,v0
  4006cc:	afa20020 	sw	v0,32(sp)
  4006d0:	8fa30004 	lw	v1,4(sp)
  4006d4:	8fa2001c 	lw	v0,28(sp)
  4006d8:	00000000 	nop
  4006dc:	00621021 	addu	v0,v1,v0
  4006e0:	afa20024 	sw	v0,36(sp)
  4006e4:	8fa30004 	lw	v1,4(sp)
  4006e8:	8fa2001c 	lw	v0,28(sp)
  4006ec:	00000000 	nop
  4006f0:	00621023 	subu	v0,v1,v0
  4006f4:	afa20028 	sw	v0,40(sp)
  4006f8:	8fa3000c 	lw	v1,12(sp)
  4006fc:	8fa20014 	lw	v0,20(sp)
  400700:	00000000 	nop
  400704:	00621021 	addu	v0,v1,v0
  400708:	afa2002c 	sw	v0,44(sp)
  40070c:	8fa3000c 	lw	v1,12(sp)
  400710:	8fa20014 	lw	v0,20(sp)
  400714:	00000000 	nop
  400718:	00621023 	subu	v0,v1,v0
  40071c:	afa20030 	sw	v0,48(sp)
  400720:	8fa30024 	lw	v1,36(sp)
  400724:	8fa2002c 	lw	v0,44(sp)
  400728:	00000000 	nop
  40072c:	00621021 	addu	v0,v1,v0
  400730:	24420002 	addiu	v0,v0,2
  400734:	00021883 	sra	v1,v0,0x2
  400738:	3c020040 	lui	v0,0x40
  40073c:	ac431c00 	sw	v1,7168(v0)
  400740:	8fa30024 	lw	v1,36(sp)
  400744:	8fa2002c 	lw	v0,44(sp)
  400748:	00000000 	nop
  40074c:	00621023 	subu	v0,v1,v0
  400750:	24420002 	addiu	v0,v0,2
  400754:	00021883 	sra	v1,v0,0x2
  400758:	3c020040 	lui	v0,0x40
  40075c:	24421c00 	addiu	v0,v0,7168
  400760:	ac430080 	sw	v1,128(v0)
  400764:	8fa30030 	lw	v1,48(sp)
  400768:	8fa20028 	lw	v0,40(sp)
  40076c:	00000000 	nop
  400770:	00621821 	addu	v1,v1,v0
  400774:	00601021 	move	v0,v1
  400778:	00021100 	sll	v0,v0,0x4
  40077c:	000220c0 	sll	a0,v0,0x3
  400780:	00441021 	addu	v0,v0,a0
  400784:	00431023 	subu	v0,v0,v1
  400788:	00021940 	sll	v1,v0,0x5
  40078c:	00621023 	subu	v0,v1,v0
  400790:	afa20034 	sw	v0,52(sp)
  400794:	8fa40028 	lw	a0,40(sp)
  400798:	00000000 	nop
  40079c:	00801021 	move	v0,a0
  4007a0:	00021180 	sll	v0,v0,0x6
  4007a4:	000218c0 	sll	v1,v0,0x3
  4007a8:	00621823 	subu	v1,v1,v0
  4007ac:	000310c0 	sll	v0,v1,0x3
  4007b0:	00431023 	subu	v0,v0,v1
  4007b4:	00441023 	subu	v0,v0,a0
  4007b8:	00021040 	sll	v0,v0,0x1
  4007bc:	00401821 	move	v1,v0
  4007c0:	8fa20034 	lw	v0,52(sp)
  4007c4:	00000000 	nop
  4007c8:	00621021 	addu	v0,v1,v0
  4007cc:	24424000 	addiu	v0,v0,16384
  4007d0:	00021bc3 	sra	v1,v0,0xf
  4007d4:	3c020040 	lui	v0,0x40
  4007d8:	24421c00 	addiu	v0,v0,7168
  4007dc:	ac430040 	sw	v1,64(v0)
  4007e0:	8fa30030 	lw	v1,48(sp)
  4007e4:	00000000 	nop
  4007e8:	00602021 	move	a0,v1
  4007ec:	00041080 	sll	v0,a0,0x2
  4007f0:	00402021 	move	a0,v0
  4007f4:	00041100 	sll	v0,a0,0x4
  4007f8:	00441023 	subu	v0,v0,a0
  4007fc:	00431023 	subu	v0,v0,v1
  400800:	000210c0 	sll	v0,v0,0x3
  400804:	00431021 	addu	v0,v0,v1
  400808:	00021140 	sll	v0,v0,0x5
  40080c:	00431021 	addu	v0,v0,v1
  400810:	00021023 	negu	v0,v0
  400814:	8fa30034 	lw	v1,52(sp)
  400818:	00000000 	nop
  40081c:	00431021 	addu	v0,v0,v1
  400820:	24424000 	addiu	v0,v0,16384
  400824:	00021bc3 	sra	v1,v0,0xf
  400828:	3c020040 	lui	v0,0x40
  40082c:	24421c00 	addiu	v0,v0,7168
  400830:	ac4300c0 	sw	v1,192(v0)
  400834:	8fa30020 	lw	v1,32(sp)
  400838:	8fa20008 	lw	v0,8(sp)
  40083c:	00000000 	nop
  400840:	00621021 	addu	v0,v1,v0
  400844:	afa20034 	sw	v0,52(sp)
  400848:	8fa30018 	lw	v1,24(sp)
  40084c:	8fa20010 	lw	v0,16(sp)
  400850:	00000000 	nop
  400854:	00621021 	addu	v0,v1,v0
  400858:	afa20038 	sw	v0,56(sp)
  40085c:	8fa30020 	lw	v1,32(sp)
  400860:	8fa20010 	lw	v0,16(sp)
  400864:	00000000 	nop
  400868:	00621021 	addu	v0,v1,v0
  40086c:	afa2003c 	sw	v0,60(sp)
  400870:	8fa30018 	lw	v1,24(sp)
  400874:	8fa20008 	lw	v0,8(sp)
  400878:	00000000 	nop
  40087c:	00621021 	addu	v0,v1,v0
  400880:	afa20040 	sw	v0,64(sp)
  400884:	8fa3003c 	lw	v1,60(sp)
  400888:	8fa20040 	lw	v0,64(sp)
  40088c:	00000000 	nop
  400890:	00622021 	addu	a0,v1,v0
  400894:	00801821 	move	v1,a0
  400898:	00031080 	sll	v0,v1,0x2
  40089c:	00401821 	move	v1,v0
  4008a0:	00031080 	sll	v0,v1,0x2
  4008a4:	00621821 	addu	v1,v1,v0
  4008a8:	00031100 	sll	v0,v1,0x4
  4008ac:	00431023 	subu	v0,v0,v1
  4008b0:	00441021 	addu	v0,v0,a0
  4008b4:	00021140 	sll	v0,v0,0x5
  4008b8:	00441021 	addu	v0,v0,a0
  4008bc:	afa20044 	sw	v0,68(sp)
  4008c0:	8fa30020 	lw	v1,32(sp)
  4008c4:	00000000 	nop
  4008c8:	00601021 	move	v0,v1
  4008cc:	000210c0 	sll	v0,v0,0x3
  4008d0:	000220c0 	sll	a0,v0,0x3
  4008d4:	00441021 	addu	v0,v0,a0
  4008d8:	00022100 	sll	a0,v0,0x4
  4008dc:	00441021 	addu	v0,v0,a0
  4008e0:	00431023 	subu	v0,v0,v1
  4008e4:	00021040 	sll	v0,v0,0x1
  4008e8:	afa20020 	sw	v0,32(sp)
  4008ec:	8fa40018 	lw	a0,24(sp)
  4008f0:	00000000 	nop
  4008f4:	00801021 	move	v0,a0
  4008f8:	000210c0 	sll	v0,v0,0x3
  4008fc:	000218c0 	sll	v1,v0,0x3
  400900:	00621823 	subu	v1,v1,v0
  400904:	00031100 	sll	v0,v1,0x4
  400908:	00431023 	subu	v0,v0,v1
  40090c:	00441021 	addu	v0,v0,a0
  400910:	00021880 	sll	v1,v0,0x2
  400914:	00431021 	addu	v0,v0,v1
  400918:	00021080 	sll	v0,v0,0x2
  40091c:	00441023 	subu	v0,v0,a0
  400920:	afa20018 	sw	v0,24(sp)
  400924:	8fa40010 	lw	a0,16(sp)
  400928:	00000000 	nop
  40092c:	00801821 	move	v1,a0
  400930:	00031080 	sll	v0,v1,0x2
  400934:	00401821 	move	v1,v0
  400938:	00031080 	sll	v0,v1,0x2
  40093c:	00431023 	subu	v0,v0,v1
  400940:	00021900 	sll	v1,v0,0x4
  400944:	00431021 	addu	v0,v0,v1
  400948:	00441023 	subu	v0,v0,a0
  40094c:	00021940 	sll	v1,v0,0x5
  400950:	00621823 	subu	v1,v1,v0
  400954:	00031080 	sll	v0,v1,0x2
  400958:	00401821 	move	v1,v0
  40095c:	afa30010 	sw	v1,16(sp)
  400960:	8fa40008 	lw	a0,8(sp)
  400964:	00000000 	nop
  400968:	00801821 	move	v1,a0
  40096c:	00031080 	sll	v0,v1,0x2
  400970:	00401821 	move	v1,v0
  400974:	00031080 	sll	v0,v1,0x2
  400978:	00431023 	subu	v0,v0,v1
  40097c:	00021a80 	sll	v1,v0,0xa
  400980:	00431021 	addu	v0,v0,v1
  400984:	00441023 	subu	v0,v0,a0
  400988:	afa20008 	sw	v0,8(sp)
  40098c:	8fa30034 	lw	v1,52(sp)
  400990:	2402e333 	li	v0,-7373
  400994:	00620018 	mult	v1,v0
  400998:	00001012 	mflo	v0
  40099c:	afa20034 	sw	v0,52(sp)
  4009a0:	8fa30038 	lw	v1,56(sp)
  4009a4:	00000000 	nop
  4009a8:	00601021 	move	v0,v1
  4009ac:	00021080 	sll	v0,v0,0x2
  4009b0:	000220c0 	sll	a0,v0,0x3
  4009b4:	00441021 	addu	v0,v0,a0
  4009b8:	000220c0 	sll	a0,v0,0x3
  4009bc:	00441021 	addu	v0,v0,a0
  4009c0:	00431023 	subu	v0,v0,v1
  4009c4:	00021980 	sll	v1,v0,0x6
  4009c8:	00431021 	addu	v0,v0,v1
  4009cc:	00021023 	negu	v0,v0
  4009d0:	afa20038 	sw	v0,56(sp)
  4009d4:	8fa3003c 	lw	v1,60(sp)
  4009d8:	00000000 	nop
  4009dc:	00602021 	move	a0,v1
  4009e0:	00041080 	sll	v0,a0,0x2
  4009e4:	00402021 	move	a0,v0
  4009e8:	00041180 	sll	v0,a0,0x6
  4009ec:	00441023 	subu	v0,v0,a0
  4009f0:	00431023 	subu	v0,v0,v1
  4009f4:	00021100 	sll	v0,v0,0x4
  4009f8:	00431021 	addu	v0,v0,v1
  4009fc:	00021080 	sll	v0,v0,0x2
  400a00:	00431021 	addu	v0,v0,v1
  400a04:	00021023 	negu	v0,v0
  400a08:	afa2003c 	sw	v0,60(sp)
  400a0c:	8fa30040 	lw	v1,64(sp)
  400a10:	00000000 	nop
  400a14:	00601021 	move	v0,v1
  400a18:	00021140 	sll	v0,v0,0x5
  400a1c:	00022080 	sll	a0,v0,0x2
  400a20:	00441021 	addu	v0,v0,a0
  400a24:	00022080 	sll	a0,v0,0x2
  400a28:	00441021 	addu	v0,v0,a0
  400a2c:	00431023 	subu	v0,v0,v1
  400a30:	00021080 	sll	v0,v0,0x2
  400a34:	00021023 	negu	v0,v0
  400a38:	afa20040 	sw	v0,64(sp)
  400a3c:	8fa3003c 	lw	v1,60(sp)
  400a40:	8fa20044 	lw	v0,68(sp)
  400a44:	00000000 	nop
  400a48:	00621021 	addu	v0,v1,v0
  400a4c:	afa2003c 	sw	v0,60(sp)
  400a50:	8fa30040 	lw	v1,64(sp)
  400a54:	8fa20044 	lw	v0,68(sp)
  400a58:	00000000 	nop
  400a5c:	00621021 	addu	v0,v1,v0
  400a60:	afa20040 	sw	v0,64(sp)
  400a64:	8fa30020 	lw	v1,32(sp)
  400a68:	8fa20034 	lw	v0,52(sp)
  400a6c:	00000000 	nop
  400a70:	00621821 	addu	v1,v1,v0
  400a74:	8fa2003c 	lw	v0,60(sp)
  400a78:	00000000 	nop
  400a7c:	00621021 	addu	v0,v1,v0
  400a80:	24424000 	addiu	v0,v0,16384
  400a84:	00021bc3 	sra	v1,v0,0xf
  400a88:	3c020040 	lui	v0,0x40
  400a8c:	24421c00 	addiu	v0,v0,7168
  400a90:	ac4300e0 	sw	v1,224(v0)
  400a94:	8fa30018 	lw	v1,24(sp)
  400a98:	8fa20038 	lw	v0,56(sp)
  400a9c:	00000000 	nop
  400aa0:	00621821 	addu	v1,v1,v0
  400aa4:	8fa20040 	lw	v0,64(sp)
  400aa8:	00000000 	nop
  400aac:	00621021 	addu	v0,v1,v0
  400ab0:	24424000 	addiu	v0,v0,16384
  400ab4:	00021bc3 	sra	v1,v0,0xf
  400ab8:	3c020040 	lui	v0,0x40
  400abc:	24421c00 	addiu	v0,v0,7168
  400ac0:	ac4300a0 	sw	v1,160(v0)
  400ac4:	8fa30010 	lw	v1,16(sp)
  400ac8:	8fa20038 	lw	v0,56(sp)
  400acc:	00000000 	nop
  400ad0:	00621821 	addu	v1,v1,v0
  400ad4:	8fa2003c 	lw	v0,60(sp)
  400ad8:	00000000 	nop
  400adc:	00621021 	addu	v0,v1,v0
  400ae0:	24424000 	addiu	v0,v0,16384
  400ae4:	00021bc3 	sra	v1,v0,0xf
  400ae8:	3c020040 	lui	v0,0x40
  400aec:	24421c00 	addiu	v0,v0,7168
  400af0:	ac430060 	sw	v1,96(v0)
  400af4:	8fa30008 	lw	v1,8(sp)
  400af8:	8fa20034 	lw	v0,52(sp)
  400afc:	00000000 	nop
  400b00:	00621821 	addu	v1,v1,v0
  400b04:	8fa20040 	lw	v0,64(sp)
  400b08:	00000000 	nop
  400b0c:	00621021 	addu	v0,v1,v0
  400b10:	24424000 	addiu	v0,v0,16384
  400b14:	00021bc3 	sra	v1,v0,0xf
  400b18:	3c020040 	lui	v0,0x40
  400b1c:	24421c00 	addiu	v0,v0,7168
  400b20:	ac430020 	sw	v1,32(v0)
  400b24:	8fa20000 	lw	v0,0(sp)
  400b28:	00000000 	nop
  400b2c:	2442ffff 	addiu	v0,v0,-1
  400b30:	afa20000 	sw	v0,0(sp)
  400b34:	8fa20000 	lw	v0,0(sp)
  400b38:	00000000 	nop
  400b3c:	0441fe9e 	bgez	v0,4005b8 <jpeg_fdct_islow+0x5a0>
  400b40:	00000000 	nop
  400b44:	03e00008 	jr	ra
  400b48:	27bd0048 	addiu	sp,sp,72

00400b4c <main>:
  400b4c:	27bdffe0 	addiu	sp,sp,-32
  400b50:	afbf001c 	sw	ra,28(sp)
  400b54:	24020001 	li	v0,1
  400b58:	afa20014 	sw	v0,20(sp)
  400b5c:	081002f4 	j	400bd0 <main+0x84>
  400b60:	afa00010 	sw	zero,16(sp)
  400b64:	8fa30014 	lw	v1,20(sp)
  400b68:	00000000 	nop
  400b6c:	00601021 	move	v0,v1
  400b70:	00021080 	sll	v0,v0,0x2
  400b74:	00022140 	sll	a0,v0,0x5
  400b78:	00441021 	addu	v0,v0,a0
  400b7c:	00431021 	addu	v0,v0,v1
  400b80:	24430051 	addiu	v1,v0,81
  400b84:	3402ffff 	li	v0,0xffff
  400b88:	14400002 	bnez	v0,400b94 <main+0x48>
  400b8c:	0062001a 	div	zero,v1,v0
  400b90:	0007000d 	break	0x7
  400b94:	00001010 	mfhi	v0
  400b98:	afa20014 	sw	v0,20(sp)
  400b9c:	3c020040 	lui	v0,0x40
  400ba0:	8fa30010 	lw	v1,16(sp)
  400ba4:	00000000 	nop
  400ba8:	00031880 	sll	v1,v1,0x2
  400bac:	24421c00 	addiu	v0,v0,7168
  400bb0:	00621021 	addu	v0,v1,v0
  400bb4:	8fa30014 	lw	v1,20(sp)
  400bb8:	00000000 	nop
  400bbc:	ac430000 	sw	v1,0(v0)
  400bc0:	8fa20010 	lw	v0,16(sp)
  400bc4:	00000000 	nop
  400bc8:	24420001 	addiu	v0,v0,1
  400bcc:	afa20010 	sw	v0,16(sp)
  400bd0:	8fa20010 	lw	v0,16(sp)
  400bd4:	00000000 	nop
  400bd8:	28420040 	slti	v0,v0,64
  400bdc:	1440ffe1 	bnez	v0,400b64 <main+0x18>
  400be0:	00000000 	nop
  400be4:	0c100006 	jal	400018 <jpeg_fdct_islow>
  400be8:	00000000 	nop
  400bec:	00001021 	move	v0,zero
  400bf0:	8fbf001c 	lw	ra,28(sp)
  400bf4:	27bd0020 	addiu	sp,sp,32
  400bf8:	03e00008 	jr	ra
  400bfc:	00000000 	nop
