
/tmp/nsichneu:     file format elf32-bigmips

SYMBOL TABLE:
00400000 l    d  .reginfo	00000000 .reginfo
00400018 l    d  .text	00000000 .text
0040bc14 l    d  .sdata	00000000 .sdata
0040bc1c l    d  .sbss	00000000 .sbss
0040bc20 l    d  .bss	00000000 .bss
00000000 l    d  .pdr	00000000 .pdr
00000000 l    d  .wcet_annot	00000000 .wcet_annot
00000000 l    d  .comment	00000000 .comment
00000000 l    d  .debug_aranges	00000000 .debug_aranges
00000000 l    d  .debug_info	00000000 .debug_info
00000000 l    d  .debug_abbrev	00000000 .debug_abbrev
00000000 l    d  .debug_line	00000000 .debug_line
00000000 l    d  .debug_frame	00000000 .debug_frame
00000000 l    d  .debug_str	00000000 .debug_str
00000000 l    d  .debug_loc	00000000 .debug_loc
00000000 l    d  .gnu.attributes	00000000 .gnu.attributes
00000010 l    d  .mdebug.abi32	00000000 .mdebug.abi32
00000000 l    df *ABS*	00000000 nsichneu.c
0040bc20 g     O .bss	00000018 P3_marking_member_0
0040bc14 g       .sdata	00000000 _fdata
00413c10 g       *ABS*	00000000 _gp
0040bc38 g     O .bss	0000000c P1_marking_member_0
00400018 g       .text	00000000 _ftext
0040bc18 g     O .sdata	00000004 P2_is_marked
0040bc1c g       *ABS*	00000000 __bss_start
00400018 g     F .text	0000abfc main
0040bc1c g     O .sbss	00000004 P3_is_marked
0040bc14 g     O .sdata	00000004 P1_is_marked
0040bc44 g     O .bss	00000014 P2_marking_member_0
0040bc1c g       *ABS*	00000000 _edata
0040bc58 g       *ABS*	00000000 _end
0040bc1c g       *ABS*	00000000 _fbss



Disassembly of section .text:

00400018 <main>:
  400018:	27bdfa10 	addiu	sp,sp,-1520
  40001c:	24020002 	li	v0,2
  400020:	08102afc 	j	40abf0 <main+0xabd8>
  400024:	afa20000 	sw	v0,0(sp)
  400028:	8fa20000 	lw	v0,0(sp)
  40002c:	00000000 	nop
  400030:	2442ffff 	addiu	v0,v0,-1
  400034:	afa20000 	sw	v0,0(sp)
  400038:	8f828004 	lw	v0,-32764(gp)
  40003c:	00000000 	nop
  400040:	28420003 	slti	v0,v0,3
  400044:	14400048 	bnez	v0,400168 <main+0x150>
  400048:	00000000 	nop
  40004c:	8f82800c 	lw	v0,-32756(gp)
  400050:	00000000 	nop
  400054:	24420003 	addiu	v0,v0,3
  400058:	28420007 	slti	v0,v0,7
  40005c:	10400042 	beqz	v0,400168 <main+0x150>
  400060:	00000000 	nop
  400064:	3c020041 	lui	v0,0x41
  400068:	2442bc38 	addiu	v0,v0,-17352
  40006c:	8c430004 	lw	v1,4(v0)
  400070:	3c020041 	lui	v0,0x41
  400074:	2442bc38 	addiu	v0,v0,-17352
  400078:	8c420008 	lw	v0,8(v0)
  40007c:	00000000 	nop
  400080:	14620039 	bne	v1,v0,400168 <main+0x150>
  400084:	00000000 	nop
  400088:	3c020041 	lui	v0,0x41
  40008c:	8c42bc38 	lw	v0,-17352(v0)
  400090:	00000000 	nop
  400094:	afa20004 	sw	v0,4(sp)
  400098:	3c020041 	lui	v0,0x41
  40009c:	2442bc38 	addiu	v0,v0,-17352
  4000a0:	8c420004 	lw	v0,4(v0)
  4000a4:	00000000 	nop
  4000a8:	afa20008 	sw	v0,8(sp)
  4000ac:	8fa30004 	lw	v1,4(sp)
  4000b0:	8fa20008 	lw	v0,8(sp)
  4000b4:	00000000 	nop
  4000b8:	0062102a 	slt	v0,v1,v0
  4000bc:	1040002a 	beqz	v0,400168 <main+0x150>
  4000c0:	00000000 	nop
  4000c4:	8f828004 	lw	v0,-32764(gp)
  4000c8:	00000000 	nop
  4000cc:	2442fffd 	addiu	v0,v0,-3
  4000d0:	af828004 	sw	v0,-32764(gp)
  4000d4:	8fa30004 	lw	v1,4(sp)
  4000d8:	8fa20008 	lw	v0,8(sp)
  4000dc:	00000000 	nop
  4000e0:	00621023 	subu	v0,v1,v0
  4000e4:	afa2000c 	sw	v0,12(sp)
  4000e8:	8f83800c 	lw	v1,-32756(gp)
  4000ec:	3c020041 	lui	v0,0x41
  4000f0:	00031880 	sll	v1,v1,0x2
  4000f4:	2442bc20 	addiu	v0,v0,-17376
  4000f8:	00621021 	addu	v0,v1,v0
  4000fc:	8fa30004 	lw	v1,4(sp)
  400100:	00000000 	nop
  400104:	ac430000 	sw	v1,0(v0)
  400108:	8f82800c 	lw	v0,-32756(gp)
  40010c:	00000000 	nop
  400110:	24430001 	addiu	v1,v0,1
  400114:	3c020041 	lui	v0,0x41
  400118:	00031880 	sll	v1,v1,0x2
  40011c:	2442bc20 	addiu	v0,v0,-17376
  400120:	00621021 	addu	v0,v1,v0
  400124:	8fa30008 	lw	v1,8(sp)
  400128:	00000000 	nop
  40012c:	ac430000 	sw	v1,0(v0)
  400130:	8f82800c 	lw	v0,-32756(gp)
  400134:	00000000 	nop
  400138:	24430002 	addiu	v1,v0,2
  40013c:	3c020041 	lui	v0,0x41
  400140:	00031880 	sll	v1,v1,0x2
  400144:	2442bc20 	addiu	v0,v0,-17376
  400148:	00621021 	addu	v0,v1,v0
  40014c:	8fa3000c 	lw	v1,12(sp)
  400150:	00000000 	nop
  400154:	ac430000 	sw	v1,0(v0)
  400158:	8f82800c 	lw	v0,-32756(gp)
  40015c:	00000000 	nop
  400160:	24420003 	addiu	v0,v0,3
  400164:	af82800c 	sw	v0,-32756(gp)
  400168:	8f828004 	lw	v0,-32764(gp)
  40016c:	00000000 	nop
  400170:	28420003 	slti	v0,v0,3
  400174:	14400048 	bnez	v0,400298 <main+0x280>
  400178:	00000000 	nop
  40017c:	8f82800c 	lw	v0,-32756(gp)
  400180:	00000000 	nop
  400184:	24420003 	addiu	v0,v0,3
  400188:	28420007 	slti	v0,v0,7
  40018c:	10400042 	beqz	v0,400298 <main+0x280>
  400190:	00000000 	nop
  400194:	3c020041 	lui	v0,0x41
  400198:	2442bc38 	addiu	v0,v0,-17352
  40019c:	8c430008 	lw	v1,8(v0)
  4001a0:	3c020041 	lui	v0,0x41
  4001a4:	2442bc38 	addiu	v0,v0,-17352
  4001a8:	8c420004 	lw	v0,4(v0)
  4001ac:	00000000 	nop
  4001b0:	14620039 	bne	v1,v0,400298 <main+0x280>
  4001b4:	00000000 	nop
  4001b8:	3c020041 	lui	v0,0x41
  4001bc:	8c42bc38 	lw	v0,-17352(v0)
  4001c0:	00000000 	nop
  4001c4:	afa20010 	sw	v0,16(sp)
  4001c8:	3c020041 	lui	v0,0x41
  4001cc:	2442bc38 	addiu	v0,v0,-17352
  4001d0:	8c420008 	lw	v0,8(v0)
  4001d4:	00000000 	nop
  4001d8:	afa20014 	sw	v0,20(sp)
  4001dc:	8fa30010 	lw	v1,16(sp)
  4001e0:	8fa20014 	lw	v0,20(sp)
  4001e4:	00000000 	nop
  4001e8:	0062102a 	slt	v0,v1,v0
  4001ec:	1040002a 	beqz	v0,400298 <main+0x280>
  4001f0:	00000000 	nop
  4001f4:	8f828004 	lw	v0,-32764(gp)
  4001f8:	00000000 	nop
  4001fc:	2442fffd 	addiu	v0,v0,-3
  400200:	af828004 	sw	v0,-32764(gp)
  400204:	8fa30010 	lw	v1,16(sp)
  400208:	8fa20014 	lw	v0,20(sp)
  40020c:	00000000 	nop
  400210:	00621023 	subu	v0,v1,v0
  400214:	afa20018 	sw	v0,24(sp)
  400218:	8f83800c 	lw	v1,-32756(gp)
  40021c:	3c020041 	lui	v0,0x41
  400220:	00031880 	sll	v1,v1,0x2
  400224:	2442bc20 	addiu	v0,v0,-17376
  400228:	00621021 	addu	v0,v1,v0
  40022c:	8fa30010 	lw	v1,16(sp)
  400230:	00000000 	nop
  400234:	ac430000 	sw	v1,0(v0)
  400238:	8f82800c 	lw	v0,-32756(gp)
  40023c:	00000000 	nop
  400240:	24430001 	addiu	v1,v0,1
  400244:	3c020041 	lui	v0,0x41
  400248:	00031880 	sll	v1,v1,0x2
  40024c:	2442bc20 	addiu	v0,v0,-17376
  400250:	00621021 	addu	v0,v1,v0
  400254:	8fa30014 	lw	v1,20(sp)
  400258:	00000000 	nop
  40025c:	ac430000 	sw	v1,0(v0)
  400260:	8f82800c 	lw	v0,-32756(gp)
  400264:	00000000 	nop
  400268:	24430002 	addiu	v1,v0,2
  40026c:	3c020041 	lui	v0,0x41
  400270:	00031880 	sll	v1,v1,0x2
  400274:	2442bc20 	addiu	v0,v0,-17376
  400278:	00621021 	addu	v0,v1,v0
  40027c:	8fa30018 	lw	v1,24(sp)
  400280:	00000000 	nop
  400284:	ac430000 	sw	v1,0(v0)
  400288:	8f82800c 	lw	v0,-32756(gp)
  40028c:	00000000 	nop
  400290:	24420003 	addiu	v0,v0,3
  400294:	af82800c 	sw	v0,-32756(gp)
  400298:	8f828004 	lw	v0,-32764(gp)
  40029c:	00000000 	nop
  4002a0:	28420003 	slti	v0,v0,3
  4002a4:	14400047 	bnez	v0,4003c4 <main+0x3ac>
  4002a8:	00000000 	nop
  4002ac:	8f82800c 	lw	v0,-32756(gp)
  4002b0:	00000000 	nop
  4002b4:	24420003 	addiu	v0,v0,3
  4002b8:	28420007 	slti	v0,v0,7
  4002bc:	10400041 	beqz	v0,4003c4 <main+0x3ac>
  4002c0:	00000000 	nop
  4002c4:	3c020041 	lui	v0,0x41
  4002c8:	8c43bc38 	lw	v1,-17352(v0)
  4002cc:	3c020041 	lui	v0,0x41
  4002d0:	2442bc38 	addiu	v0,v0,-17352
  4002d4:	8c420008 	lw	v0,8(v0)
  4002d8:	00000000 	nop
  4002dc:	14620039 	bne	v1,v0,4003c4 <main+0x3ac>
  4002e0:	00000000 	nop
  4002e4:	3c020041 	lui	v0,0x41
  4002e8:	2442bc38 	addiu	v0,v0,-17352
  4002ec:	8c420004 	lw	v0,4(v0)
  4002f0:	00000000 	nop
  4002f4:	afa2001c 	sw	v0,28(sp)
  4002f8:	3c020041 	lui	v0,0x41
  4002fc:	8c42bc38 	lw	v0,-17352(v0)
  400300:	00000000 	nop
  400304:	afa20020 	sw	v0,32(sp)
  400308:	8fa3001c 	lw	v1,28(sp)
  40030c:	8fa20020 	lw	v0,32(sp)
  400310:	00000000 	nop
  400314:	0062102a 	slt	v0,v1,v0
  400318:	1040002a 	beqz	v0,4003c4 <main+0x3ac>
  40031c:	00000000 	nop
  400320:	8f828004 	lw	v0,-32764(gp)
  400324:	00000000 	nop
  400328:	2442fffd 	addiu	v0,v0,-3
  40032c:	af828004 	sw	v0,-32764(gp)
  400330:	8fa3001c 	lw	v1,28(sp)
  400334:	8fa20020 	lw	v0,32(sp)
  400338:	00000000 	nop
  40033c:	00621023 	subu	v0,v1,v0
  400340:	afa20024 	sw	v0,36(sp)
  400344:	8f83800c 	lw	v1,-32756(gp)
  400348:	3c020041 	lui	v0,0x41
  40034c:	00031880 	sll	v1,v1,0x2
  400350:	2442bc20 	addiu	v0,v0,-17376
  400354:	00621021 	addu	v0,v1,v0
  400358:	8fa3001c 	lw	v1,28(sp)
  40035c:	00000000 	nop
  400360:	ac430000 	sw	v1,0(v0)
  400364:	8f82800c 	lw	v0,-32756(gp)
  400368:	00000000 	nop
  40036c:	24430001 	addiu	v1,v0,1
  400370:	3c020041 	lui	v0,0x41
  400374:	00031880 	sll	v1,v1,0x2
  400378:	2442bc20 	addiu	v0,v0,-17376
  40037c:	00621021 	addu	v0,v1,v0
  400380:	8fa30020 	lw	v1,32(sp)
  400384:	00000000 	nop
  400388:	ac430000 	sw	v1,0(v0)
  40038c:	8f82800c 	lw	v0,-32756(gp)
  400390:	00000000 	nop
  400394:	24430002 	addiu	v1,v0,2
  400398:	3c020041 	lui	v0,0x41
  40039c:	00031880 	sll	v1,v1,0x2
  4003a0:	2442bc20 	addiu	v0,v0,-17376
  4003a4:	00621021 	addu	v0,v1,v0
  4003a8:	8fa30024 	lw	v1,36(sp)
  4003ac:	00000000 	nop
  4003b0:	ac430000 	sw	v1,0(v0)
  4003b4:	8f82800c 	lw	v0,-32756(gp)
  4003b8:	00000000 	nop
  4003bc:	24420003 	addiu	v0,v0,3
  4003c0:	af82800c 	sw	v0,-32756(gp)
  4003c4:	8f828004 	lw	v0,-32764(gp)
  4003c8:	00000000 	nop
  4003cc:	28420003 	slti	v0,v0,3
  4003d0:	14400048 	bnez	v0,4004f4 <main+0x4dc>
  4003d4:	00000000 	nop
  4003d8:	8f82800c 	lw	v0,-32756(gp)
  4003dc:	00000000 	nop
  4003e0:	24420003 	addiu	v0,v0,3
  4003e4:	28420007 	slti	v0,v0,7
  4003e8:	10400042 	beqz	v0,4004f4 <main+0x4dc>
  4003ec:	00000000 	nop
  4003f0:	3c020041 	lui	v0,0x41
  4003f4:	2442bc38 	addiu	v0,v0,-17352
  4003f8:	8c430008 	lw	v1,8(v0)
  4003fc:	3c020041 	lui	v0,0x41
  400400:	8c42bc38 	lw	v0,-17352(v0)
  400404:	00000000 	nop
  400408:	1462003a 	bne	v1,v0,4004f4 <main+0x4dc>
  40040c:	00000000 	nop
  400410:	3c020041 	lui	v0,0x41
  400414:	2442bc38 	addiu	v0,v0,-17352
  400418:	8c420004 	lw	v0,4(v0)
  40041c:	00000000 	nop
  400420:	afa20028 	sw	v0,40(sp)
  400424:	3c020041 	lui	v0,0x41
  400428:	2442bc38 	addiu	v0,v0,-17352
  40042c:	8c420008 	lw	v0,8(v0)
  400430:	00000000 	nop
  400434:	afa2002c 	sw	v0,44(sp)
  400438:	8fa30028 	lw	v1,40(sp)
  40043c:	8fa2002c 	lw	v0,44(sp)
  400440:	00000000 	nop
  400444:	0062102a 	slt	v0,v1,v0
  400448:	1040002a 	beqz	v0,4004f4 <main+0x4dc>
  40044c:	00000000 	nop
  400450:	8f828004 	lw	v0,-32764(gp)
  400454:	00000000 	nop
  400458:	2442fffd 	addiu	v0,v0,-3
  40045c:	af828004 	sw	v0,-32764(gp)
  400460:	8fa30028 	lw	v1,40(sp)
  400464:	8fa2002c 	lw	v0,44(sp)
  400468:	00000000 	nop
  40046c:	00621023 	subu	v0,v1,v0
  400470:	afa20030 	sw	v0,48(sp)
  400474:	8f83800c 	lw	v1,-32756(gp)
  400478:	3c020041 	lui	v0,0x41
  40047c:	00031880 	sll	v1,v1,0x2
  400480:	2442bc20 	addiu	v0,v0,-17376
  400484:	00621021 	addu	v0,v1,v0
  400488:	8fa30028 	lw	v1,40(sp)
  40048c:	00000000 	nop
  400490:	ac430000 	sw	v1,0(v0)
  400494:	8f82800c 	lw	v0,-32756(gp)
  400498:	00000000 	nop
  40049c:	24430001 	addiu	v1,v0,1
  4004a0:	3c020041 	lui	v0,0x41
  4004a4:	00031880 	sll	v1,v1,0x2
  4004a8:	2442bc20 	addiu	v0,v0,-17376
  4004ac:	00621021 	addu	v0,v1,v0
  4004b0:	8fa3002c 	lw	v1,44(sp)
  4004b4:	00000000 	nop
  4004b8:	ac430000 	sw	v1,0(v0)
  4004bc:	8f82800c 	lw	v0,-32756(gp)
  4004c0:	00000000 	nop
  4004c4:	24430002 	addiu	v1,v0,2
  4004c8:	3c020041 	lui	v0,0x41
  4004cc:	00031880 	sll	v1,v1,0x2
  4004d0:	2442bc20 	addiu	v0,v0,-17376
  4004d4:	00621021 	addu	v0,v1,v0
  4004d8:	8fa30030 	lw	v1,48(sp)
  4004dc:	00000000 	nop
  4004e0:	ac430000 	sw	v1,0(v0)
  4004e4:	8f82800c 	lw	v0,-32756(gp)
  4004e8:	00000000 	nop
  4004ec:	24420003 	addiu	v0,v0,3
  4004f0:	af82800c 	sw	v0,-32756(gp)
  4004f4:	8f828004 	lw	v0,-32764(gp)
  4004f8:	00000000 	nop
  4004fc:	28420003 	slti	v0,v0,3
  400500:	14400047 	bnez	v0,400620 <main+0x608>
  400504:	00000000 	nop
  400508:	8f82800c 	lw	v0,-32756(gp)
  40050c:	00000000 	nop
  400510:	24420003 	addiu	v0,v0,3
  400514:	28420007 	slti	v0,v0,7
  400518:	10400041 	beqz	v0,400620 <main+0x608>
  40051c:	00000000 	nop
  400520:	3c020041 	lui	v0,0x41
  400524:	8c43bc38 	lw	v1,-17352(v0)
  400528:	3c020041 	lui	v0,0x41
  40052c:	2442bc38 	addiu	v0,v0,-17352
  400530:	8c420004 	lw	v0,4(v0)
  400534:	00000000 	nop
  400538:	14620039 	bne	v1,v0,400620 <main+0x608>
  40053c:	00000000 	nop
  400540:	3c020041 	lui	v0,0x41
  400544:	2442bc38 	addiu	v0,v0,-17352
  400548:	8c420008 	lw	v0,8(v0)
  40054c:	00000000 	nop
  400550:	afa20034 	sw	v0,52(sp)
  400554:	3c020041 	lui	v0,0x41
  400558:	8c42bc38 	lw	v0,-17352(v0)
  40055c:	00000000 	nop
  400560:	afa20038 	sw	v0,56(sp)
  400564:	8fa30034 	lw	v1,52(sp)
  400568:	8fa20038 	lw	v0,56(sp)
  40056c:	00000000 	nop
  400570:	0062102a 	slt	v0,v1,v0
  400574:	1040002a 	beqz	v0,400620 <main+0x608>
  400578:	00000000 	nop
  40057c:	8f828004 	lw	v0,-32764(gp)
  400580:	00000000 	nop
  400584:	2442fffd 	addiu	v0,v0,-3
  400588:	af828004 	sw	v0,-32764(gp)
  40058c:	8fa30034 	lw	v1,52(sp)
  400590:	8fa20038 	lw	v0,56(sp)
  400594:	00000000 	nop
  400598:	00621023 	subu	v0,v1,v0
  40059c:	afa2003c 	sw	v0,60(sp)
  4005a0:	8f83800c 	lw	v1,-32756(gp)
  4005a4:	3c020041 	lui	v0,0x41
  4005a8:	00031880 	sll	v1,v1,0x2
  4005ac:	2442bc20 	addiu	v0,v0,-17376
  4005b0:	00621021 	addu	v0,v1,v0
  4005b4:	8fa30034 	lw	v1,52(sp)
  4005b8:	00000000 	nop
  4005bc:	ac430000 	sw	v1,0(v0)
  4005c0:	8f82800c 	lw	v0,-32756(gp)
  4005c4:	00000000 	nop
  4005c8:	24430001 	addiu	v1,v0,1
  4005cc:	3c020041 	lui	v0,0x41
  4005d0:	00031880 	sll	v1,v1,0x2
  4005d4:	2442bc20 	addiu	v0,v0,-17376
  4005d8:	00621021 	addu	v0,v1,v0
  4005dc:	8fa30038 	lw	v1,56(sp)
  4005e0:	00000000 	nop
  4005e4:	ac430000 	sw	v1,0(v0)
  4005e8:	8f82800c 	lw	v0,-32756(gp)
  4005ec:	00000000 	nop
  4005f0:	24430002 	addiu	v1,v0,2
  4005f4:	3c020041 	lui	v0,0x41
  4005f8:	00031880 	sll	v1,v1,0x2
  4005fc:	2442bc20 	addiu	v0,v0,-17376
  400600:	00621021 	addu	v0,v1,v0
  400604:	8fa3003c 	lw	v1,60(sp)
  400608:	00000000 	nop
  40060c:	ac430000 	sw	v1,0(v0)
  400610:	8f82800c 	lw	v0,-32756(gp)
  400614:	00000000 	nop
  400618:	24420003 	addiu	v0,v0,3
  40061c:	af82800c 	sw	v0,-32756(gp)
  400620:	8f828004 	lw	v0,-32764(gp)
  400624:	00000000 	nop
  400628:	28420003 	slti	v0,v0,3
  40062c:	14400048 	bnez	v0,400750 <main+0x738>
  400630:	00000000 	nop
  400634:	8f82800c 	lw	v0,-32756(gp)
  400638:	00000000 	nop
  40063c:	24420003 	addiu	v0,v0,3
  400640:	28420007 	slti	v0,v0,7
  400644:	10400042 	beqz	v0,400750 <main+0x738>
  400648:	00000000 	nop
  40064c:	3c020041 	lui	v0,0x41
  400650:	2442bc38 	addiu	v0,v0,-17352
  400654:	8c430004 	lw	v1,4(v0)
  400658:	3c020041 	lui	v0,0x41
  40065c:	8c42bc38 	lw	v0,-17352(v0)
  400660:	00000000 	nop
  400664:	1462003a 	bne	v1,v0,400750 <main+0x738>
  400668:	00000000 	nop
  40066c:	3c020041 	lui	v0,0x41
  400670:	2442bc38 	addiu	v0,v0,-17352
  400674:	8c420008 	lw	v0,8(v0)
  400678:	00000000 	nop
  40067c:	afa20040 	sw	v0,64(sp)
  400680:	3c020041 	lui	v0,0x41
  400684:	2442bc38 	addiu	v0,v0,-17352
  400688:	8c420004 	lw	v0,4(v0)
  40068c:	00000000 	nop
  400690:	afa20044 	sw	v0,68(sp)
  400694:	8fa30040 	lw	v1,64(sp)
  400698:	8fa20044 	lw	v0,68(sp)
  40069c:	00000000 	nop
  4006a0:	0062102a 	slt	v0,v1,v0
  4006a4:	1040002a 	beqz	v0,400750 <main+0x738>
  4006a8:	00000000 	nop
  4006ac:	8f828004 	lw	v0,-32764(gp)
  4006b0:	00000000 	nop
  4006b4:	2442fffd 	addiu	v0,v0,-3
  4006b8:	af828004 	sw	v0,-32764(gp)
  4006bc:	8fa30040 	lw	v1,64(sp)
  4006c0:	8fa20044 	lw	v0,68(sp)
  4006c4:	00000000 	nop
  4006c8:	00621023 	subu	v0,v1,v0
  4006cc:	afa20048 	sw	v0,72(sp)
  4006d0:	8f83800c 	lw	v1,-32756(gp)
  4006d4:	3c020041 	lui	v0,0x41
  4006d8:	00031880 	sll	v1,v1,0x2
  4006dc:	2442bc20 	addiu	v0,v0,-17376
  4006e0:	00621021 	addu	v0,v1,v0
  4006e4:	8fa30040 	lw	v1,64(sp)
  4006e8:	00000000 	nop
  4006ec:	ac430000 	sw	v1,0(v0)
  4006f0:	8f82800c 	lw	v0,-32756(gp)
  4006f4:	00000000 	nop
  4006f8:	24430001 	addiu	v1,v0,1
  4006fc:	3c020041 	lui	v0,0x41
  400700:	00031880 	sll	v1,v1,0x2
  400704:	2442bc20 	addiu	v0,v0,-17376
  400708:	00621021 	addu	v0,v1,v0
  40070c:	8fa30044 	lw	v1,68(sp)
  400710:	00000000 	nop
  400714:	ac430000 	sw	v1,0(v0)
  400718:	8f82800c 	lw	v0,-32756(gp)
  40071c:	00000000 	nop
  400720:	24430002 	addiu	v1,v0,2
  400724:	3c020041 	lui	v0,0x41
  400728:	00031880 	sll	v1,v1,0x2
  40072c:	2442bc20 	addiu	v0,v0,-17376
  400730:	00621021 	addu	v0,v1,v0
  400734:	8fa30048 	lw	v1,72(sp)
  400738:	00000000 	nop
  40073c:	ac430000 	sw	v1,0(v0)
  400740:	8f82800c 	lw	v0,-32756(gp)
  400744:	00000000 	nop
  400748:	24420003 	addiu	v0,v0,3
  40074c:	af82800c 	sw	v0,-32756(gp)
  400750:	8f828008 	lw	v0,-32760(gp)
  400754:	00000000 	nop
  400758:	28420004 	slti	v0,v0,4
  40075c:	14400051 	bnez	v0,4008a4 <main+0x88c>
  400760:	00000000 	nop
  400764:	8f82800c 	lw	v0,-32756(gp)
  400768:	00000000 	nop
  40076c:	24420003 	addiu	v0,v0,3
  400770:	28420007 	slti	v0,v0,7
  400774:	1040004b 	beqz	v0,4008a4 <main+0x88c>
  400778:	00000000 	nop
  40077c:	3c020041 	lui	v0,0x41
  400780:	2442bc44 	addiu	v0,v0,-17340
  400784:	8c430004 	lw	v1,4(v0)
  400788:	3c020041 	lui	v0,0x41
  40078c:	2442bc44 	addiu	v0,v0,-17340
  400790:	8c420008 	lw	v0,8(v0)
  400794:	00000000 	nop
  400798:	14620042 	bne	v1,v0,4008a4 <main+0x88c>
  40079c:	00000000 	nop
  4007a0:	3c020041 	lui	v0,0x41
  4007a4:	2442bc44 	addiu	v0,v0,-17340
  4007a8:	8c430004 	lw	v1,4(v0)
  4007ac:	3c020041 	lui	v0,0x41
  4007b0:	2442bc44 	addiu	v0,v0,-17340
  4007b4:	8c42000c 	lw	v0,12(v0)
  4007b8:	00000000 	nop
  4007bc:	14620039 	bne	v1,v0,4008a4 <main+0x88c>
  4007c0:	00000000 	nop
  4007c4:	3c020041 	lui	v0,0x41
  4007c8:	8c42bc44 	lw	v0,-17340(v0)
  4007cc:	00000000 	nop
  4007d0:	afa2004c 	sw	v0,76(sp)
  4007d4:	3c020041 	lui	v0,0x41
  4007d8:	2442bc44 	addiu	v0,v0,-17340
  4007dc:	8c420004 	lw	v0,4(v0)
  4007e0:	00000000 	nop
  4007e4:	afa20050 	sw	v0,80(sp)
  4007e8:	8fa30050 	lw	v1,80(sp)
  4007ec:	8fa2004c 	lw	v0,76(sp)
  4007f0:	00000000 	nop
  4007f4:	0043102a 	slt	v0,v0,v1
  4007f8:	1040002a 	beqz	v0,4008a4 <main+0x88c>
  4007fc:	00000000 	nop
  400800:	8f828008 	lw	v0,-32760(gp)
  400804:	00000000 	nop
  400808:	2442fffc 	addiu	v0,v0,-4
  40080c:	af828008 	sw	v0,-32760(gp)
  400810:	8fa3004c 	lw	v1,76(sp)
  400814:	8fa20050 	lw	v0,80(sp)
  400818:	00000000 	nop
  40081c:	00621021 	addu	v0,v1,v0
  400820:	afa20054 	sw	v0,84(sp)
  400824:	8f83800c 	lw	v1,-32756(gp)
  400828:	3c020041 	lui	v0,0x41
  40082c:	00031880 	sll	v1,v1,0x2
  400830:	2442bc20 	addiu	v0,v0,-17376
  400834:	00621021 	addu	v0,v1,v0
  400838:	8fa3004c 	lw	v1,76(sp)
  40083c:	00000000 	nop
  400840:	ac430000 	sw	v1,0(v0)
  400844:	8f82800c 	lw	v0,-32756(gp)
  400848:	00000000 	nop
  40084c:	24430001 	addiu	v1,v0,1
  400850:	3c020041 	lui	v0,0x41
  400854:	00031880 	sll	v1,v1,0x2
  400858:	2442bc20 	addiu	v0,v0,-17376
  40085c:	00621021 	addu	v0,v1,v0
  400860:	8fa30050 	lw	v1,80(sp)
  400864:	00000000 	nop
  400868:	ac430000 	sw	v1,0(v0)
  40086c:	8f82800c 	lw	v0,-32756(gp)
  400870:	00000000 	nop
  400874:	24430002 	addiu	v1,v0,2
  400878:	3c020041 	lui	v0,0x41
  40087c:	00031880 	sll	v1,v1,0x2
  400880:	2442bc20 	addiu	v0,v0,-17376
  400884:	00621021 	addu	v0,v1,v0
  400888:	8fa30054 	lw	v1,84(sp)
  40088c:	00000000 	nop
  400890:	ac430000 	sw	v1,0(v0)
  400894:	8f82800c 	lw	v0,-32756(gp)
  400898:	00000000 	nop
  40089c:	24420003 	addiu	v0,v0,3
  4008a0:	af82800c 	sw	v0,-32756(gp)
  4008a4:	8f828008 	lw	v0,-32760(gp)
  4008a8:	00000000 	nop
  4008ac:	28420004 	slti	v0,v0,4
  4008b0:	14400051 	bnez	v0,4009f8 <main+0x9e0>
  4008b4:	00000000 	nop
  4008b8:	8f82800c 	lw	v0,-32756(gp)
  4008bc:	00000000 	nop
  4008c0:	24420003 	addiu	v0,v0,3
  4008c4:	28420007 	slti	v0,v0,7
  4008c8:	1040004b 	beqz	v0,4009f8 <main+0x9e0>
  4008cc:	00000000 	nop
  4008d0:	3c020041 	lui	v0,0x41
  4008d4:	2442bc44 	addiu	v0,v0,-17340
  4008d8:	8c430004 	lw	v1,4(v0)
  4008dc:	3c020041 	lui	v0,0x41
  4008e0:	2442bc44 	addiu	v0,v0,-17340
  4008e4:	8c42000c 	lw	v0,12(v0)
  4008e8:	00000000 	nop
  4008ec:	14620042 	bne	v1,v0,4009f8 <main+0x9e0>
  4008f0:	00000000 	nop
  4008f4:	3c020041 	lui	v0,0x41
  4008f8:	2442bc44 	addiu	v0,v0,-17340
  4008fc:	8c430004 	lw	v1,4(v0)
  400900:	3c020041 	lui	v0,0x41
  400904:	2442bc44 	addiu	v0,v0,-17340
  400908:	8c420008 	lw	v0,8(v0)
  40090c:	00000000 	nop
  400910:	14620039 	bne	v1,v0,4009f8 <main+0x9e0>
  400914:	00000000 	nop
  400918:	3c020041 	lui	v0,0x41
  40091c:	8c42bc44 	lw	v0,-17340(v0)
  400920:	00000000 	nop
  400924:	afa20058 	sw	v0,88(sp)
  400928:	3c020041 	lui	v0,0x41
  40092c:	2442bc44 	addiu	v0,v0,-17340
  400930:	8c420004 	lw	v0,4(v0)
  400934:	00000000 	nop
  400938:	afa2005c 	sw	v0,92(sp)
  40093c:	8fa3005c 	lw	v1,92(sp)
  400940:	8fa20058 	lw	v0,88(sp)
  400944:	00000000 	nop
  400948:	0043102a 	slt	v0,v0,v1
  40094c:	1040002a 	beqz	v0,4009f8 <main+0x9e0>
  400950:	00000000 	nop
  400954:	8f828008 	lw	v0,-32760(gp)
  400958:	00000000 	nop
  40095c:	2442fffc 	addiu	v0,v0,-4
  400960:	af828008 	sw	v0,-32760(gp)
  400964:	8fa30058 	lw	v1,88(sp)
  400968:	8fa2005c 	lw	v0,92(sp)
  40096c:	00000000 	nop
  400970:	00621021 	addu	v0,v1,v0
  400974:	afa20060 	sw	v0,96(sp)
  400978:	8f83800c 	lw	v1,-32756(gp)
  40097c:	3c020041 	lui	v0,0x41
  400980:	00031880 	sll	v1,v1,0x2
  400984:	2442bc20 	addiu	v0,v0,-17376
  400988:	00621021 	addu	v0,v1,v0
  40098c:	8fa30058 	lw	v1,88(sp)
  400990:	00000000 	nop
  400994:	ac430000 	sw	v1,0(v0)
  400998:	8f82800c 	lw	v0,-32756(gp)
  40099c:	00000000 	nop
  4009a0:	24430001 	addiu	v1,v0,1
  4009a4:	3c020041 	lui	v0,0x41
  4009a8:	00031880 	sll	v1,v1,0x2
  4009ac:	2442bc20 	addiu	v0,v0,-17376
  4009b0:	00621021 	addu	v0,v1,v0
  4009b4:	8fa3005c 	lw	v1,92(sp)
  4009b8:	00000000 	nop
  4009bc:	ac430000 	sw	v1,0(v0)
  4009c0:	8f82800c 	lw	v0,-32756(gp)
  4009c4:	00000000 	nop
  4009c8:	24430002 	addiu	v1,v0,2
  4009cc:	3c020041 	lui	v0,0x41
  4009d0:	00031880 	sll	v1,v1,0x2
  4009d4:	2442bc20 	addiu	v0,v0,-17376
  4009d8:	00621021 	addu	v0,v1,v0
  4009dc:	8fa30060 	lw	v1,96(sp)
  4009e0:	00000000 	nop
  4009e4:	ac430000 	sw	v1,0(v0)
  4009e8:	8f82800c 	lw	v0,-32756(gp)
  4009ec:	00000000 	nop
  4009f0:	24420003 	addiu	v0,v0,3
  4009f4:	af82800c 	sw	v0,-32756(gp)
  4009f8:	8f828008 	lw	v0,-32760(gp)
  4009fc:	00000000 	nop
  400a00:	28420004 	slti	v0,v0,4
  400a04:	14400051 	bnez	v0,400b4c <main+0xb34>
  400a08:	00000000 	nop
  400a0c:	8f82800c 	lw	v0,-32756(gp)
  400a10:	00000000 	nop
  400a14:	24420003 	addiu	v0,v0,3
  400a18:	28420007 	slti	v0,v0,7
  400a1c:	1040004b 	beqz	v0,400b4c <main+0xb34>
  400a20:	00000000 	nop
  400a24:	3c020041 	lui	v0,0x41
  400a28:	2442bc44 	addiu	v0,v0,-17340
  400a2c:	8c430008 	lw	v1,8(v0)
  400a30:	3c020041 	lui	v0,0x41
  400a34:	2442bc44 	addiu	v0,v0,-17340
  400a38:	8c420004 	lw	v0,4(v0)
  400a3c:	00000000 	nop
  400a40:	14620042 	bne	v1,v0,400b4c <main+0xb34>
  400a44:	00000000 	nop
  400a48:	3c020041 	lui	v0,0x41
  400a4c:	2442bc44 	addiu	v0,v0,-17340
  400a50:	8c430008 	lw	v1,8(v0)
  400a54:	3c020041 	lui	v0,0x41
  400a58:	2442bc44 	addiu	v0,v0,-17340
  400a5c:	8c42000c 	lw	v0,12(v0)
  400a60:	00000000 	nop
  400a64:	14620039 	bne	v1,v0,400b4c <main+0xb34>
  400a68:	00000000 	nop
  400a6c:	3c020041 	lui	v0,0x41
  400a70:	8c42bc44 	lw	v0,-17340(v0)
  400a74:	00000000 	nop
  400a78:	afa20064 	sw	v0,100(sp)
  400a7c:	3c020041 	lui	v0,0x41
  400a80:	2442bc44 	addiu	v0,v0,-17340
  400a84:	8c420008 	lw	v0,8(v0)
  400a88:	00000000 	nop
  400a8c:	afa20068 	sw	v0,104(sp)
  400a90:	8fa30068 	lw	v1,104(sp)
  400a94:	8fa20064 	lw	v0,100(sp)
  400a98:	00000000 	nop
  400a9c:	0043102a 	slt	v0,v0,v1
  400aa0:	1040002a 	beqz	v0,400b4c <main+0xb34>
  400aa4:	00000000 	nop
  400aa8:	8f828008 	lw	v0,-32760(gp)
  400aac:	00000000 	nop
  400ab0:	2442fffc 	addiu	v0,v0,-4
  400ab4:	af828008 	sw	v0,-32760(gp)
  400ab8:	8fa30064 	lw	v1,100(sp)
  400abc:	8fa20068 	lw	v0,104(sp)
  400ac0:	00000000 	nop
  400ac4:	00621021 	addu	v0,v1,v0
  400ac8:	afa2006c 	sw	v0,108(sp)
  400acc:	8f83800c 	lw	v1,-32756(gp)
  400ad0:	3c020041 	lui	v0,0x41
  400ad4:	00031880 	sll	v1,v1,0x2
  400ad8:	2442bc20 	addiu	v0,v0,-17376
  400adc:	00621021 	addu	v0,v1,v0
  400ae0:	8fa30064 	lw	v1,100(sp)
  400ae4:	00000000 	nop
  400ae8:	ac430000 	sw	v1,0(v0)
  400aec:	8f82800c 	lw	v0,-32756(gp)
  400af0:	00000000 	nop
  400af4:	24430001 	addiu	v1,v0,1
  400af8:	3c020041 	lui	v0,0x41
  400afc:	00031880 	sll	v1,v1,0x2
  400b00:	2442bc20 	addiu	v0,v0,-17376
  400b04:	00621021 	addu	v0,v1,v0
  400b08:	8fa30068 	lw	v1,104(sp)
  400b0c:	00000000 	nop
  400b10:	ac430000 	sw	v1,0(v0)
  400b14:	8f82800c 	lw	v0,-32756(gp)
  400b18:	00000000 	nop
  400b1c:	24430002 	addiu	v1,v0,2
  400b20:	3c020041 	lui	v0,0x41
  400b24:	00031880 	sll	v1,v1,0x2
  400b28:	2442bc20 	addiu	v0,v0,-17376
  400b2c:	00621021 	addu	v0,v1,v0
  400b30:	8fa3006c 	lw	v1,108(sp)
  400b34:	00000000 	nop
  400b38:	ac430000 	sw	v1,0(v0)
  400b3c:	8f82800c 	lw	v0,-32756(gp)
  400b40:	00000000 	nop
  400b44:	24420003 	addiu	v0,v0,3
  400b48:	af82800c 	sw	v0,-32756(gp)
  400b4c:	8f828008 	lw	v0,-32760(gp)
  400b50:	00000000 	nop
  400b54:	28420004 	slti	v0,v0,4
  400b58:	14400051 	bnez	v0,400ca0 <main+0xc88>
  400b5c:	00000000 	nop
  400b60:	8f82800c 	lw	v0,-32756(gp)
  400b64:	00000000 	nop
  400b68:	24420003 	addiu	v0,v0,3
  400b6c:	28420007 	slti	v0,v0,7
  400b70:	1040004b 	beqz	v0,400ca0 <main+0xc88>
  400b74:	00000000 	nop
  400b78:	3c020041 	lui	v0,0x41
  400b7c:	2442bc44 	addiu	v0,v0,-17340
  400b80:	8c430008 	lw	v1,8(v0)
  400b84:	3c020041 	lui	v0,0x41
  400b88:	2442bc44 	addiu	v0,v0,-17340
  400b8c:	8c42000c 	lw	v0,12(v0)
  400b90:	00000000 	nop
  400b94:	14620042 	bne	v1,v0,400ca0 <main+0xc88>
  400b98:	00000000 	nop
  400b9c:	3c020041 	lui	v0,0x41
  400ba0:	2442bc44 	addiu	v0,v0,-17340
  400ba4:	8c430008 	lw	v1,8(v0)
  400ba8:	3c020041 	lui	v0,0x41
  400bac:	2442bc44 	addiu	v0,v0,-17340
  400bb0:	8c420004 	lw	v0,4(v0)
  400bb4:	00000000 	nop
  400bb8:	14620039 	bne	v1,v0,400ca0 <main+0xc88>
  400bbc:	00000000 	nop
  400bc0:	3c020041 	lui	v0,0x41
  400bc4:	8c42bc44 	lw	v0,-17340(v0)
  400bc8:	00000000 	nop
  400bcc:	afa20070 	sw	v0,112(sp)
  400bd0:	3c020041 	lui	v0,0x41
  400bd4:	2442bc44 	addiu	v0,v0,-17340
  400bd8:	8c420008 	lw	v0,8(v0)
  400bdc:	00000000 	nop
  400be0:	afa20074 	sw	v0,116(sp)
  400be4:	8fa30074 	lw	v1,116(sp)
  400be8:	8fa20070 	lw	v0,112(sp)
  400bec:	00000000 	nop
  400bf0:	0043102a 	slt	v0,v0,v1
  400bf4:	1040002a 	beqz	v0,400ca0 <main+0xc88>
  400bf8:	00000000 	nop
  400bfc:	8f828008 	lw	v0,-32760(gp)
  400c00:	00000000 	nop
  400c04:	2442fffc 	addiu	v0,v0,-4
  400c08:	af828008 	sw	v0,-32760(gp)
  400c0c:	8fa30070 	lw	v1,112(sp)
  400c10:	8fa20074 	lw	v0,116(sp)
  400c14:	00000000 	nop
  400c18:	00621021 	addu	v0,v1,v0
  400c1c:	afa20078 	sw	v0,120(sp)
  400c20:	8f83800c 	lw	v1,-32756(gp)
  400c24:	3c020041 	lui	v0,0x41
  400c28:	00031880 	sll	v1,v1,0x2
  400c2c:	2442bc20 	addiu	v0,v0,-17376
  400c30:	00621021 	addu	v0,v1,v0
  400c34:	8fa30070 	lw	v1,112(sp)
  400c38:	00000000 	nop
  400c3c:	ac430000 	sw	v1,0(v0)
  400c40:	8f82800c 	lw	v0,-32756(gp)
  400c44:	00000000 	nop
  400c48:	24430001 	addiu	v1,v0,1
  400c4c:	3c020041 	lui	v0,0x41
  400c50:	00031880 	sll	v1,v1,0x2
  400c54:	2442bc20 	addiu	v0,v0,-17376
  400c58:	00621021 	addu	v0,v1,v0
  400c5c:	8fa30074 	lw	v1,116(sp)
  400c60:	00000000 	nop
  400c64:	ac430000 	sw	v1,0(v0)
  400c68:	8f82800c 	lw	v0,-32756(gp)
  400c6c:	00000000 	nop
  400c70:	24430002 	addiu	v1,v0,2
  400c74:	3c020041 	lui	v0,0x41
  400c78:	00031880 	sll	v1,v1,0x2
  400c7c:	2442bc20 	addiu	v0,v0,-17376
  400c80:	00621021 	addu	v0,v1,v0
  400c84:	8fa30078 	lw	v1,120(sp)
  400c88:	00000000 	nop
  400c8c:	ac430000 	sw	v1,0(v0)
  400c90:	8f82800c 	lw	v0,-32756(gp)
  400c94:	00000000 	nop
  400c98:	24420003 	addiu	v0,v0,3
  400c9c:	af82800c 	sw	v0,-32756(gp)
  400ca0:	8f828008 	lw	v0,-32760(gp)
  400ca4:	00000000 	nop
  400ca8:	28420004 	slti	v0,v0,4
  400cac:	14400051 	bnez	v0,400df4 <main+0xddc>
  400cb0:	00000000 	nop
  400cb4:	8f82800c 	lw	v0,-32756(gp)
  400cb8:	00000000 	nop
  400cbc:	24420003 	addiu	v0,v0,3
  400cc0:	28420007 	slti	v0,v0,7
  400cc4:	1040004b 	beqz	v0,400df4 <main+0xddc>
  400cc8:	00000000 	nop
  400ccc:	3c020041 	lui	v0,0x41
  400cd0:	2442bc44 	addiu	v0,v0,-17340
  400cd4:	8c43000c 	lw	v1,12(v0)
  400cd8:	3c020041 	lui	v0,0x41
  400cdc:	2442bc44 	addiu	v0,v0,-17340
  400ce0:	8c420004 	lw	v0,4(v0)
  400ce4:	00000000 	nop
  400ce8:	14620042 	bne	v1,v0,400df4 <main+0xddc>
  400cec:	00000000 	nop
  400cf0:	3c020041 	lui	v0,0x41
  400cf4:	2442bc44 	addiu	v0,v0,-17340
  400cf8:	8c43000c 	lw	v1,12(v0)
  400cfc:	3c020041 	lui	v0,0x41
  400d00:	2442bc44 	addiu	v0,v0,-17340
  400d04:	8c420008 	lw	v0,8(v0)
  400d08:	00000000 	nop
  400d0c:	14620039 	bne	v1,v0,400df4 <main+0xddc>
  400d10:	00000000 	nop
  400d14:	3c020041 	lui	v0,0x41
  400d18:	8c42bc44 	lw	v0,-17340(v0)
  400d1c:	00000000 	nop
  400d20:	afa2007c 	sw	v0,124(sp)
  400d24:	3c020041 	lui	v0,0x41
  400d28:	2442bc44 	addiu	v0,v0,-17340
  400d2c:	8c42000c 	lw	v0,12(v0)
  400d30:	00000000 	nop
  400d34:	afa20080 	sw	v0,128(sp)
  400d38:	8fa30080 	lw	v1,128(sp)
  400d3c:	8fa2007c 	lw	v0,124(sp)
  400d40:	00000000 	nop
  400d44:	0043102a 	slt	v0,v0,v1
  400d48:	1040002a 	beqz	v0,400df4 <main+0xddc>
  400d4c:	00000000 	nop
  400d50:	8f828008 	lw	v0,-32760(gp)
  400d54:	00000000 	nop
  400d58:	2442fffc 	addiu	v0,v0,-4
  400d5c:	af828008 	sw	v0,-32760(gp)
  400d60:	8fa3007c 	lw	v1,124(sp)
  400d64:	8fa20080 	lw	v0,128(sp)
  400d68:	00000000 	nop
  400d6c:	00621021 	addu	v0,v1,v0
  400d70:	afa20084 	sw	v0,132(sp)
  400d74:	8f83800c 	lw	v1,-32756(gp)
  400d78:	3c020041 	lui	v0,0x41
  400d7c:	00031880 	sll	v1,v1,0x2
  400d80:	2442bc20 	addiu	v0,v0,-17376
  400d84:	00621021 	addu	v0,v1,v0
  400d88:	8fa3007c 	lw	v1,124(sp)
  400d8c:	00000000 	nop
  400d90:	ac430000 	sw	v1,0(v0)
  400d94:	8f82800c 	lw	v0,-32756(gp)
  400d98:	00000000 	nop
  400d9c:	24430001 	addiu	v1,v0,1
  400da0:	3c020041 	lui	v0,0x41
  400da4:	00031880 	sll	v1,v1,0x2
  400da8:	2442bc20 	addiu	v0,v0,-17376
  400dac:	00621021 	addu	v0,v1,v0
  400db0:	8fa30080 	lw	v1,128(sp)
  400db4:	00000000 	nop
  400db8:	ac430000 	sw	v1,0(v0)
  400dbc:	8f82800c 	lw	v0,-32756(gp)
  400dc0:	00000000 	nop
  400dc4:	24430002 	addiu	v1,v0,2
  400dc8:	3c020041 	lui	v0,0x41
  400dcc:	00031880 	sll	v1,v1,0x2
  400dd0:	2442bc20 	addiu	v0,v0,-17376
  400dd4:	00621021 	addu	v0,v1,v0
  400dd8:	8fa30084 	lw	v1,132(sp)
  400ddc:	00000000 	nop
  400de0:	ac430000 	sw	v1,0(v0)
  400de4:	8f82800c 	lw	v0,-32756(gp)
  400de8:	00000000 	nop
  400dec:	24420003 	addiu	v0,v0,3
  400df0:	af82800c 	sw	v0,-32756(gp)
  400df4:	8f828008 	lw	v0,-32760(gp)
  400df8:	00000000 	nop
  400dfc:	28420004 	slti	v0,v0,4
  400e00:	14400051 	bnez	v0,400f48 <main+0xf30>
  400e04:	00000000 	nop
  400e08:	8f82800c 	lw	v0,-32756(gp)
  400e0c:	00000000 	nop
  400e10:	24420003 	addiu	v0,v0,3
  400e14:	28420007 	slti	v0,v0,7
  400e18:	1040004b 	beqz	v0,400f48 <main+0xf30>
  400e1c:	00000000 	nop
  400e20:	3c020041 	lui	v0,0x41
  400e24:	2442bc44 	addiu	v0,v0,-17340
  400e28:	8c43000c 	lw	v1,12(v0)
  400e2c:	3c020041 	lui	v0,0x41
  400e30:	2442bc44 	addiu	v0,v0,-17340
  400e34:	8c420008 	lw	v0,8(v0)
  400e38:	00000000 	nop
  400e3c:	14620042 	bne	v1,v0,400f48 <main+0xf30>
  400e40:	00000000 	nop
  400e44:	3c020041 	lui	v0,0x41
  400e48:	2442bc44 	addiu	v0,v0,-17340
  400e4c:	8c43000c 	lw	v1,12(v0)
  400e50:	3c020041 	lui	v0,0x41
  400e54:	2442bc44 	addiu	v0,v0,-17340
  400e58:	8c420004 	lw	v0,4(v0)
  400e5c:	00000000 	nop
  400e60:	14620039 	bne	v1,v0,400f48 <main+0xf30>
  400e64:	00000000 	nop
  400e68:	3c020041 	lui	v0,0x41
  400e6c:	8c42bc44 	lw	v0,-17340(v0)
  400e70:	00000000 	nop
  400e74:	afa20088 	sw	v0,136(sp)
  400e78:	3c020041 	lui	v0,0x41
  400e7c:	2442bc44 	addiu	v0,v0,-17340
  400e80:	8c42000c 	lw	v0,12(v0)
  400e84:	00000000 	nop
  400e88:	afa2008c 	sw	v0,140(sp)
  400e8c:	8fa3008c 	lw	v1,140(sp)
  400e90:	8fa20088 	lw	v0,136(sp)
  400e94:	00000000 	nop
  400e98:	0043102a 	slt	v0,v0,v1
  400e9c:	1040002a 	beqz	v0,400f48 <main+0xf30>
  400ea0:	00000000 	nop
  400ea4:	8f828008 	lw	v0,-32760(gp)
  400ea8:	00000000 	nop
  400eac:	2442fffc 	addiu	v0,v0,-4
  400eb0:	af828008 	sw	v0,-32760(gp)
  400eb4:	8fa30088 	lw	v1,136(sp)
  400eb8:	8fa2008c 	lw	v0,140(sp)
  400ebc:	00000000 	nop
  400ec0:	00621021 	addu	v0,v1,v0
  400ec4:	afa20090 	sw	v0,144(sp)
  400ec8:	8f83800c 	lw	v1,-32756(gp)
  400ecc:	3c020041 	lui	v0,0x41
  400ed0:	00031880 	sll	v1,v1,0x2
  400ed4:	2442bc20 	addiu	v0,v0,-17376
  400ed8:	00621021 	addu	v0,v1,v0
  400edc:	8fa30088 	lw	v1,136(sp)
  400ee0:	00000000 	nop
  400ee4:	ac430000 	sw	v1,0(v0)
  400ee8:	8f82800c 	lw	v0,-32756(gp)
  400eec:	00000000 	nop
  400ef0:	24430001 	addiu	v1,v0,1
  400ef4:	3c020041 	lui	v0,0x41
  400ef8:	00031880 	sll	v1,v1,0x2
  400efc:	2442bc20 	addiu	v0,v0,-17376
  400f00:	00621021 	addu	v0,v1,v0
  400f04:	8fa3008c 	lw	v1,140(sp)
  400f08:	00000000 	nop
  400f0c:	ac430000 	sw	v1,0(v0)
  400f10:	8f82800c 	lw	v0,-32756(gp)
  400f14:	00000000 	nop
  400f18:	24430002 	addiu	v1,v0,2
  400f1c:	3c020041 	lui	v0,0x41
  400f20:	00031880 	sll	v1,v1,0x2
  400f24:	2442bc20 	addiu	v0,v0,-17376
  400f28:	00621021 	addu	v0,v1,v0
  400f2c:	8fa30090 	lw	v1,144(sp)
  400f30:	00000000 	nop
  400f34:	ac430000 	sw	v1,0(v0)
  400f38:	8f82800c 	lw	v0,-32756(gp)
  400f3c:	00000000 	nop
  400f40:	24420003 	addiu	v0,v0,3
  400f44:	af82800c 	sw	v0,-32756(gp)
  400f48:	8f828008 	lw	v0,-32760(gp)
  400f4c:	00000000 	nop
  400f50:	28420004 	slti	v0,v0,4
  400f54:	1440004f 	bnez	v0,401094 <main+0x107c>
  400f58:	00000000 	nop
  400f5c:	8f82800c 	lw	v0,-32756(gp)
  400f60:	00000000 	nop
  400f64:	24420003 	addiu	v0,v0,3
  400f68:	28420007 	slti	v0,v0,7
  400f6c:	10400049 	beqz	v0,401094 <main+0x107c>
  400f70:	00000000 	nop
  400f74:	3c020041 	lui	v0,0x41
  400f78:	8c43bc44 	lw	v1,-17340(v0)
  400f7c:	3c020041 	lui	v0,0x41
  400f80:	2442bc44 	addiu	v0,v0,-17340
  400f84:	8c420008 	lw	v0,8(v0)
  400f88:	00000000 	nop
  400f8c:	14620041 	bne	v1,v0,401094 <main+0x107c>
  400f90:	00000000 	nop
  400f94:	3c020041 	lui	v0,0x41
  400f98:	8c43bc44 	lw	v1,-17340(v0)
  400f9c:	3c020041 	lui	v0,0x41
  400fa0:	2442bc44 	addiu	v0,v0,-17340
  400fa4:	8c42000c 	lw	v0,12(v0)
  400fa8:	00000000 	nop
  400fac:	14620039 	bne	v1,v0,401094 <main+0x107c>
  400fb0:	00000000 	nop
  400fb4:	3c020041 	lui	v0,0x41
  400fb8:	2442bc44 	addiu	v0,v0,-17340
  400fbc:	8c420004 	lw	v0,4(v0)
  400fc0:	00000000 	nop
  400fc4:	afa20094 	sw	v0,148(sp)
  400fc8:	3c020041 	lui	v0,0x41
  400fcc:	8c42bc44 	lw	v0,-17340(v0)
  400fd0:	00000000 	nop
  400fd4:	afa20098 	sw	v0,152(sp)
  400fd8:	8fa30098 	lw	v1,152(sp)
  400fdc:	8fa20094 	lw	v0,148(sp)
  400fe0:	00000000 	nop
  400fe4:	0043102a 	slt	v0,v0,v1
  400fe8:	1040002a 	beqz	v0,401094 <main+0x107c>
  400fec:	00000000 	nop
  400ff0:	8f828008 	lw	v0,-32760(gp)
  400ff4:	00000000 	nop
  400ff8:	2442fffc 	addiu	v0,v0,-4
  400ffc:	af828008 	sw	v0,-32760(gp)
  401000:	8fa30094 	lw	v1,148(sp)
  401004:	8fa20098 	lw	v0,152(sp)
  401008:	00000000 	nop
  40100c:	00621021 	addu	v0,v1,v0
  401010:	afa2009c 	sw	v0,156(sp)
  401014:	8f83800c 	lw	v1,-32756(gp)
  401018:	3c020041 	lui	v0,0x41
  40101c:	00031880 	sll	v1,v1,0x2
  401020:	2442bc20 	addiu	v0,v0,-17376
  401024:	00621021 	addu	v0,v1,v0
  401028:	8fa30094 	lw	v1,148(sp)
  40102c:	00000000 	nop
  401030:	ac430000 	sw	v1,0(v0)
  401034:	8f82800c 	lw	v0,-32756(gp)
  401038:	00000000 	nop
  40103c:	24430001 	addiu	v1,v0,1
  401040:	3c020041 	lui	v0,0x41
  401044:	00031880 	sll	v1,v1,0x2
  401048:	2442bc20 	addiu	v0,v0,-17376
  40104c:	00621021 	addu	v0,v1,v0
  401050:	8fa30098 	lw	v1,152(sp)
  401054:	00000000 	nop
  401058:	ac430000 	sw	v1,0(v0)
  40105c:	8f82800c 	lw	v0,-32756(gp)
  401060:	00000000 	nop
  401064:	24430002 	addiu	v1,v0,2
  401068:	3c020041 	lui	v0,0x41
  40106c:	00031880 	sll	v1,v1,0x2
  401070:	2442bc20 	addiu	v0,v0,-17376
  401074:	00621021 	addu	v0,v1,v0
  401078:	8fa3009c 	lw	v1,156(sp)
  40107c:	00000000 	nop
  401080:	ac430000 	sw	v1,0(v0)
  401084:	8f82800c 	lw	v0,-32756(gp)
  401088:	00000000 	nop
  40108c:	24420003 	addiu	v0,v0,3
  401090:	af82800c 	sw	v0,-32756(gp)
  401094:	8f828008 	lw	v0,-32760(gp)
  401098:	00000000 	nop
  40109c:	28420004 	slti	v0,v0,4
  4010a0:	1440004f 	bnez	v0,4011e0 <main+0x11c8>
  4010a4:	00000000 	nop
  4010a8:	8f82800c 	lw	v0,-32756(gp)
  4010ac:	00000000 	nop
  4010b0:	24420003 	addiu	v0,v0,3
  4010b4:	28420007 	slti	v0,v0,7
  4010b8:	10400049 	beqz	v0,4011e0 <main+0x11c8>
  4010bc:	00000000 	nop
  4010c0:	3c020041 	lui	v0,0x41
  4010c4:	8c43bc44 	lw	v1,-17340(v0)
  4010c8:	3c020041 	lui	v0,0x41
  4010cc:	2442bc44 	addiu	v0,v0,-17340
  4010d0:	8c42000c 	lw	v0,12(v0)
  4010d4:	00000000 	nop
  4010d8:	14620041 	bne	v1,v0,4011e0 <main+0x11c8>
  4010dc:	00000000 	nop
  4010e0:	3c020041 	lui	v0,0x41
  4010e4:	8c43bc44 	lw	v1,-17340(v0)
  4010e8:	3c020041 	lui	v0,0x41
  4010ec:	2442bc44 	addiu	v0,v0,-17340
  4010f0:	8c420008 	lw	v0,8(v0)
  4010f4:	00000000 	nop
  4010f8:	14620039 	bne	v1,v0,4011e0 <main+0x11c8>
  4010fc:	00000000 	nop
  401100:	3c020041 	lui	v0,0x41
  401104:	2442bc44 	addiu	v0,v0,-17340
  401108:	8c420004 	lw	v0,4(v0)
  40110c:	00000000 	nop
  401110:	afa200a0 	sw	v0,160(sp)
  401114:	3c020041 	lui	v0,0x41
  401118:	8c42bc44 	lw	v0,-17340(v0)
  40111c:	00000000 	nop
  401120:	afa200a4 	sw	v0,164(sp)
  401124:	8fa300a4 	lw	v1,164(sp)
  401128:	8fa200a0 	lw	v0,160(sp)
  40112c:	00000000 	nop
  401130:	0043102a 	slt	v0,v0,v1
  401134:	1040002a 	beqz	v0,4011e0 <main+0x11c8>
  401138:	00000000 	nop
  40113c:	8f828008 	lw	v0,-32760(gp)
  401140:	00000000 	nop
  401144:	2442fffc 	addiu	v0,v0,-4
  401148:	af828008 	sw	v0,-32760(gp)
  40114c:	8fa300a0 	lw	v1,160(sp)
  401150:	8fa200a4 	lw	v0,164(sp)
  401154:	00000000 	nop
  401158:	00621021 	addu	v0,v1,v0
  40115c:	afa200a8 	sw	v0,168(sp)
  401160:	8f83800c 	lw	v1,-32756(gp)
  401164:	3c020041 	lui	v0,0x41
  401168:	00031880 	sll	v1,v1,0x2
  40116c:	2442bc20 	addiu	v0,v0,-17376
  401170:	00621021 	addu	v0,v1,v0
  401174:	8fa300a0 	lw	v1,160(sp)
  401178:	00000000 	nop
  40117c:	ac430000 	sw	v1,0(v0)
  401180:	8f82800c 	lw	v0,-32756(gp)
  401184:	00000000 	nop
  401188:	24430001 	addiu	v1,v0,1
  40118c:	3c020041 	lui	v0,0x41
  401190:	00031880 	sll	v1,v1,0x2
  401194:	2442bc20 	addiu	v0,v0,-17376
  401198:	00621021 	addu	v0,v1,v0
  40119c:	8fa300a4 	lw	v1,164(sp)
  4011a0:	00000000 	nop
  4011a4:	ac430000 	sw	v1,0(v0)
  4011a8:	8f82800c 	lw	v0,-32756(gp)
  4011ac:	00000000 	nop
  4011b0:	24430002 	addiu	v1,v0,2
  4011b4:	3c020041 	lui	v0,0x41
  4011b8:	00031880 	sll	v1,v1,0x2
  4011bc:	2442bc20 	addiu	v0,v0,-17376
  4011c0:	00621021 	addu	v0,v1,v0
  4011c4:	8fa300a8 	lw	v1,168(sp)
  4011c8:	00000000 	nop
  4011cc:	ac430000 	sw	v1,0(v0)
  4011d0:	8f82800c 	lw	v0,-32756(gp)
  4011d4:	00000000 	nop
  4011d8:	24420003 	addiu	v0,v0,3
  4011dc:	af82800c 	sw	v0,-32756(gp)
  4011e0:	8f828008 	lw	v0,-32760(gp)
  4011e4:	00000000 	nop
  4011e8:	28420004 	slti	v0,v0,4
  4011ec:	14400051 	bnez	v0,401334 <main+0x131c>
  4011f0:	00000000 	nop
  4011f4:	8f82800c 	lw	v0,-32756(gp)
  4011f8:	00000000 	nop
  4011fc:	24420003 	addiu	v0,v0,3
  401200:	28420007 	slti	v0,v0,7
  401204:	1040004b 	beqz	v0,401334 <main+0x131c>
  401208:	00000000 	nop
  40120c:	3c020041 	lui	v0,0x41
  401210:	2442bc44 	addiu	v0,v0,-17340
  401214:	8c430008 	lw	v1,8(v0)
  401218:	3c020041 	lui	v0,0x41
  40121c:	8c42bc44 	lw	v0,-17340(v0)
  401220:	00000000 	nop
  401224:	14620043 	bne	v1,v0,401334 <main+0x131c>
  401228:	00000000 	nop
  40122c:	3c020041 	lui	v0,0x41
  401230:	2442bc44 	addiu	v0,v0,-17340
  401234:	8c430008 	lw	v1,8(v0)
  401238:	3c020041 	lui	v0,0x41
  40123c:	2442bc44 	addiu	v0,v0,-17340
  401240:	8c42000c 	lw	v0,12(v0)
  401244:	00000000 	nop
  401248:	1462003a 	bne	v1,v0,401334 <main+0x131c>
  40124c:	00000000 	nop
  401250:	3c020041 	lui	v0,0x41
  401254:	2442bc44 	addiu	v0,v0,-17340
  401258:	8c420004 	lw	v0,4(v0)
  40125c:	00000000 	nop
  401260:	afa200ac 	sw	v0,172(sp)
  401264:	3c020041 	lui	v0,0x41
  401268:	2442bc44 	addiu	v0,v0,-17340
  40126c:	8c420008 	lw	v0,8(v0)
  401270:	00000000 	nop
  401274:	afa200b0 	sw	v0,176(sp)
  401278:	8fa300b0 	lw	v1,176(sp)
  40127c:	8fa200ac 	lw	v0,172(sp)
  401280:	00000000 	nop
  401284:	0043102a 	slt	v0,v0,v1
  401288:	1040002a 	beqz	v0,401334 <main+0x131c>
  40128c:	00000000 	nop
  401290:	8f828008 	lw	v0,-32760(gp)
  401294:	00000000 	nop
  401298:	2442fffc 	addiu	v0,v0,-4
  40129c:	af828008 	sw	v0,-32760(gp)
  4012a0:	8fa300ac 	lw	v1,172(sp)
  4012a4:	8fa200b0 	lw	v0,176(sp)
  4012a8:	00000000 	nop
  4012ac:	00621021 	addu	v0,v1,v0
  4012b0:	afa200b4 	sw	v0,180(sp)
  4012b4:	8f83800c 	lw	v1,-32756(gp)
  4012b8:	3c020041 	lui	v0,0x41
  4012bc:	00031880 	sll	v1,v1,0x2
  4012c0:	2442bc20 	addiu	v0,v0,-17376
  4012c4:	00621021 	addu	v0,v1,v0
  4012c8:	8fa300ac 	lw	v1,172(sp)
  4012cc:	00000000 	nop
  4012d0:	ac430000 	sw	v1,0(v0)
  4012d4:	8f82800c 	lw	v0,-32756(gp)
  4012d8:	00000000 	nop
  4012dc:	24430001 	addiu	v1,v0,1
  4012e0:	3c020041 	lui	v0,0x41
  4012e4:	00031880 	sll	v1,v1,0x2
  4012e8:	2442bc20 	addiu	v0,v0,-17376
  4012ec:	00621021 	addu	v0,v1,v0
  4012f0:	8fa300b0 	lw	v1,176(sp)
  4012f4:	00000000 	nop
  4012f8:	ac430000 	sw	v1,0(v0)
  4012fc:	8f82800c 	lw	v0,-32756(gp)
  401300:	00000000 	nop
  401304:	24430002 	addiu	v1,v0,2
  401308:	3c020041 	lui	v0,0x41
  40130c:	00031880 	sll	v1,v1,0x2
  401310:	2442bc20 	addiu	v0,v0,-17376
  401314:	00621021 	addu	v0,v1,v0
  401318:	8fa300b4 	lw	v1,180(sp)
  40131c:	00000000 	nop
  401320:	ac430000 	sw	v1,0(v0)
  401324:	8f82800c 	lw	v0,-32756(gp)
  401328:	00000000 	nop
  40132c:	24420003 	addiu	v0,v0,3
  401330:	af82800c 	sw	v0,-32756(gp)
  401334:	8f828008 	lw	v0,-32760(gp)
  401338:	00000000 	nop
  40133c:	28420004 	slti	v0,v0,4
  401340:	14400051 	bnez	v0,401488 <main+0x1470>
  401344:	00000000 	nop
  401348:	8f82800c 	lw	v0,-32756(gp)
  40134c:	00000000 	nop
  401350:	24420003 	addiu	v0,v0,3
  401354:	28420007 	slti	v0,v0,7
  401358:	1040004b 	beqz	v0,401488 <main+0x1470>
  40135c:	00000000 	nop
  401360:	3c020041 	lui	v0,0x41
  401364:	2442bc44 	addiu	v0,v0,-17340
  401368:	8c430008 	lw	v1,8(v0)
  40136c:	3c020041 	lui	v0,0x41
  401370:	2442bc44 	addiu	v0,v0,-17340
  401374:	8c42000c 	lw	v0,12(v0)
  401378:	00000000 	nop
  40137c:	14620042 	bne	v1,v0,401488 <main+0x1470>
  401380:	00000000 	nop
  401384:	3c020041 	lui	v0,0x41
  401388:	2442bc44 	addiu	v0,v0,-17340
  40138c:	8c430008 	lw	v1,8(v0)
  401390:	3c020041 	lui	v0,0x41
  401394:	8c42bc44 	lw	v0,-17340(v0)
  401398:	00000000 	nop
  40139c:	1462003a 	bne	v1,v0,401488 <main+0x1470>
  4013a0:	00000000 	nop
  4013a4:	3c020041 	lui	v0,0x41
  4013a8:	2442bc44 	addiu	v0,v0,-17340
  4013ac:	8c420004 	lw	v0,4(v0)
  4013b0:	00000000 	nop
  4013b4:	afa200b8 	sw	v0,184(sp)
  4013b8:	3c020041 	lui	v0,0x41
  4013bc:	2442bc44 	addiu	v0,v0,-17340
  4013c0:	8c420008 	lw	v0,8(v0)
  4013c4:	00000000 	nop
  4013c8:	afa200bc 	sw	v0,188(sp)
  4013cc:	8fa300bc 	lw	v1,188(sp)
  4013d0:	8fa200b8 	lw	v0,184(sp)
  4013d4:	00000000 	nop
  4013d8:	0043102a 	slt	v0,v0,v1
  4013dc:	1040002a 	beqz	v0,401488 <main+0x1470>
  4013e0:	00000000 	nop
  4013e4:	8f828008 	lw	v0,-32760(gp)
  4013e8:	00000000 	nop
  4013ec:	2442fffc 	addiu	v0,v0,-4
  4013f0:	af828008 	sw	v0,-32760(gp)
  4013f4:	8fa300b8 	lw	v1,184(sp)
  4013f8:	8fa200bc 	lw	v0,188(sp)
  4013fc:	00000000 	nop
  401400:	00621021 	addu	v0,v1,v0
  401404:	afa200c0 	sw	v0,192(sp)
  401408:	8f83800c 	lw	v1,-32756(gp)
  40140c:	3c020041 	lui	v0,0x41
  401410:	00031880 	sll	v1,v1,0x2
  401414:	2442bc20 	addiu	v0,v0,-17376
  401418:	00621021 	addu	v0,v1,v0
  40141c:	8fa300b8 	lw	v1,184(sp)
  401420:	00000000 	nop
  401424:	ac430000 	sw	v1,0(v0)
  401428:	8f82800c 	lw	v0,-32756(gp)
  40142c:	00000000 	nop
  401430:	24430001 	addiu	v1,v0,1
  401434:	3c020041 	lui	v0,0x41
  401438:	00031880 	sll	v1,v1,0x2
  40143c:	2442bc20 	addiu	v0,v0,-17376
  401440:	00621021 	addu	v0,v1,v0
  401444:	8fa300bc 	lw	v1,188(sp)
  401448:	00000000 	nop
  40144c:	ac430000 	sw	v1,0(v0)
  401450:	8f82800c 	lw	v0,-32756(gp)
  401454:	00000000 	nop
  401458:	24430002 	addiu	v1,v0,2
  40145c:	3c020041 	lui	v0,0x41
  401460:	00031880 	sll	v1,v1,0x2
  401464:	2442bc20 	addiu	v0,v0,-17376
  401468:	00621021 	addu	v0,v1,v0
  40146c:	8fa300c0 	lw	v1,192(sp)
  401470:	00000000 	nop
  401474:	ac430000 	sw	v1,0(v0)
  401478:	8f82800c 	lw	v0,-32756(gp)
  40147c:	00000000 	nop
  401480:	24420003 	addiu	v0,v0,3
  401484:	af82800c 	sw	v0,-32756(gp)
  401488:	8f828008 	lw	v0,-32760(gp)
  40148c:	00000000 	nop
  401490:	28420004 	slti	v0,v0,4
  401494:	14400051 	bnez	v0,4015dc <main+0x15c4>
  401498:	00000000 	nop
  40149c:	8f82800c 	lw	v0,-32756(gp)
  4014a0:	00000000 	nop
  4014a4:	24420003 	addiu	v0,v0,3
  4014a8:	28420007 	slti	v0,v0,7
  4014ac:	1040004b 	beqz	v0,4015dc <main+0x15c4>
  4014b0:	00000000 	nop
  4014b4:	3c020041 	lui	v0,0x41
  4014b8:	2442bc44 	addiu	v0,v0,-17340
  4014bc:	8c43000c 	lw	v1,12(v0)
  4014c0:	3c020041 	lui	v0,0x41
  4014c4:	8c42bc44 	lw	v0,-17340(v0)
  4014c8:	00000000 	nop
  4014cc:	14620043 	bne	v1,v0,4015dc <main+0x15c4>
  4014d0:	00000000 	nop
  4014d4:	3c020041 	lui	v0,0x41
  4014d8:	2442bc44 	addiu	v0,v0,-17340
  4014dc:	8c43000c 	lw	v1,12(v0)
  4014e0:	3c020041 	lui	v0,0x41
  4014e4:	2442bc44 	addiu	v0,v0,-17340
  4014e8:	8c420008 	lw	v0,8(v0)
  4014ec:	00000000 	nop
  4014f0:	1462003a 	bne	v1,v0,4015dc <main+0x15c4>
  4014f4:	00000000 	nop
  4014f8:	3c020041 	lui	v0,0x41
  4014fc:	2442bc44 	addiu	v0,v0,-17340
  401500:	8c420004 	lw	v0,4(v0)
  401504:	00000000 	nop
  401508:	afa200c4 	sw	v0,196(sp)
  40150c:	3c020041 	lui	v0,0x41
  401510:	2442bc44 	addiu	v0,v0,-17340
  401514:	8c42000c 	lw	v0,12(v0)
  401518:	00000000 	nop
  40151c:	afa200c8 	sw	v0,200(sp)
  401520:	8fa300c8 	lw	v1,200(sp)
  401524:	8fa200c4 	lw	v0,196(sp)
  401528:	00000000 	nop
  40152c:	0043102a 	slt	v0,v0,v1
  401530:	1040002a 	beqz	v0,4015dc <main+0x15c4>
  401534:	00000000 	nop
  401538:	8f828008 	lw	v0,-32760(gp)
  40153c:	00000000 	nop
  401540:	2442fffc 	addiu	v0,v0,-4
  401544:	af828008 	sw	v0,-32760(gp)
  401548:	8fa300c4 	lw	v1,196(sp)
  40154c:	8fa200c8 	lw	v0,200(sp)
  401550:	00000000 	nop
  401554:	00621021 	addu	v0,v1,v0
  401558:	afa200cc 	sw	v0,204(sp)
  40155c:	8f83800c 	lw	v1,-32756(gp)
  401560:	3c020041 	lui	v0,0x41
  401564:	00031880 	sll	v1,v1,0x2
  401568:	2442bc20 	addiu	v0,v0,-17376
  40156c:	00621021 	addu	v0,v1,v0
  401570:	8fa300c4 	lw	v1,196(sp)
  401574:	00000000 	nop
  401578:	ac430000 	sw	v1,0(v0)
  40157c:	8f82800c 	lw	v0,-32756(gp)
  401580:	00000000 	nop
  401584:	24430001 	addiu	v1,v0,1
  401588:	3c020041 	lui	v0,0x41
  40158c:	00031880 	sll	v1,v1,0x2
  401590:	2442bc20 	addiu	v0,v0,-17376
  401594:	00621021 	addu	v0,v1,v0
  401598:	8fa300c8 	lw	v1,200(sp)
  40159c:	00000000 	nop
  4015a0:	ac430000 	sw	v1,0(v0)
  4015a4:	8f82800c 	lw	v0,-32756(gp)
  4015a8:	00000000 	nop
  4015ac:	24430002 	addiu	v1,v0,2
  4015b0:	3c020041 	lui	v0,0x41
  4015b4:	00031880 	sll	v1,v1,0x2
  4015b8:	2442bc20 	addiu	v0,v0,-17376
  4015bc:	00621021 	addu	v0,v1,v0
  4015c0:	8fa300cc 	lw	v1,204(sp)
  4015c4:	00000000 	nop
  4015c8:	ac430000 	sw	v1,0(v0)
  4015cc:	8f82800c 	lw	v0,-32756(gp)
  4015d0:	00000000 	nop
  4015d4:	24420003 	addiu	v0,v0,3
  4015d8:	af82800c 	sw	v0,-32756(gp)
  4015dc:	8f828008 	lw	v0,-32760(gp)
  4015e0:	00000000 	nop
  4015e4:	28420004 	slti	v0,v0,4
  4015e8:	14400051 	bnez	v0,401730 <main+0x1718>
  4015ec:	00000000 	nop
  4015f0:	8f82800c 	lw	v0,-32756(gp)
  4015f4:	00000000 	nop
  4015f8:	24420003 	addiu	v0,v0,3
  4015fc:	28420007 	slti	v0,v0,7
  401600:	1040004b 	beqz	v0,401730 <main+0x1718>
  401604:	00000000 	nop
  401608:	3c020041 	lui	v0,0x41
  40160c:	2442bc44 	addiu	v0,v0,-17340
  401610:	8c43000c 	lw	v1,12(v0)
  401614:	3c020041 	lui	v0,0x41
  401618:	2442bc44 	addiu	v0,v0,-17340
  40161c:	8c420008 	lw	v0,8(v0)
  401620:	00000000 	nop
  401624:	14620042 	bne	v1,v0,401730 <main+0x1718>
  401628:	00000000 	nop
  40162c:	3c020041 	lui	v0,0x41
  401630:	2442bc44 	addiu	v0,v0,-17340
  401634:	8c43000c 	lw	v1,12(v0)
  401638:	3c020041 	lui	v0,0x41
  40163c:	8c42bc44 	lw	v0,-17340(v0)
  401640:	00000000 	nop
  401644:	1462003a 	bne	v1,v0,401730 <main+0x1718>
  401648:	00000000 	nop
  40164c:	3c020041 	lui	v0,0x41
  401650:	2442bc44 	addiu	v0,v0,-17340
  401654:	8c420004 	lw	v0,4(v0)
  401658:	00000000 	nop
  40165c:	afa200d0 	sw	v0,208(sp)
  401660:	3c020041 	lui	v0,0x41
  401664:	2442bc44 	addiu	v0,v0,-17340
  401668:	8c42000c 	lw	v0,12(v0)
  40166c:	00000000 	nop
  401670:	afa200d4 	sw	v0,212(sp)
  401674:	8fa300d4 	lw	v1,212(sp)
  401678:	8fa200d0 	lw	v0,208(sp)
  40167c:	00000000 	nop
  401680:	0043102a 	slt	v0,v0,v1
  401684:	1040002a 	beqz	v0,401730 <main+0x1718>
  401688:	00000000 	nop
  40168c:	8f828008 	lw	v0,-32760(gp)
  401690:	00000000 	nop
  401694:	2442fffc 	addiu	v0,v0,-4
  401698:	af828008 	sw	v0,-32760(gp)
  40169c:	8fa300d0 	lw	v1,208(sp)
  4016a0:	8fa200d4 	lw	v0,212(sp)
  4016a4:	00000000 	nop
  4016a8:	00621021 	addu	v0,v1,v0
  4016ac:	afa200d8 	sw	v0,216(sp)
  4016b0:	8f83800c 	lw	v1,-32756(gp)
  4016b4:	3c020041 	lui	v0,0x41
  4016b8:	00031880 	sll	v1,v1,0x2
  4016bc:	2442bc20 	addiu	v0,v0,-17376
  4016c0:	00621021 	addu	v0,v1,v0
  4016c4:	8fa300d0 	lw	v1,208(sp)
  4016c8:	00000000 	nop
  4016cc:	ac430000 	sw	v1,0(v0)
  4016d0:	8f82800c 	lw	v0,-32756(gp)
  4016d4:	00000000 	nop
  4016d8:	24430001 	addiu	v1,v0,1
  4016dc:	3c020041 	lui	v0,0x41
  4016e0:	00031880 	sll	v1,v1,0x2
  4016e4:	2442bc20 	addiu	v0,v0,-17376
  4016e8:	00621021 	addu	v0,v1,v0
  4016ec:	8fa300d4 	lw	v1,212(sp)
  4016f0:	00000000 	nop
  4016f4:	ac430000 	sw	v1,0(v0)
  4016f8:	8f82800c 	lw	v0,-32756(gp)
  4016fc:	00000000 	nop
  401700:	24430002 	addiu	v1,v0,2
  401704:	3c020041 	lui	v0,0x41
  401708:	00031880 	sll	v1,v1,0x2
  40170c:	2442bc20 	addiu	v0,v0,-17376
  401710:	00621021 	addu	v0,v1,v0
  401714:	8fa300d8 	lw	v1,216(sp)
  401718:	00000000 	nop
  40171c:	ac430000 	sw	v1,0(v0)
  401720:	8f82800c 	lw	v0,-32756(gp)
  401724:	00000000 	nop
  401728:	24420003 	addiu	v0,v0,3
  40172c:	af82800c 	sw	v0,-32756(gp)
  401730:	8f828008 	lw	v0,-32760(gp)
  401734:	00000000 	nop
  401738:	28420004 	slti	v0,v0,4
  40173c:	1440004f 	bnez	v0,40187c <main+0x1864>
  401740:	00000000 	nop
  401744:	8f82800c 	lw	v0,-32756(gp)
  401748:	00000000 	nop
  40174c:	24420003 	addiu	v0,v0,3
  401750:	28420007 	slti	v0,v0,7
  401754:	10400049 	beqz	v0,40187c <main+0x1864>
  401758:	00000000 	nop
  40175c:	3c020041 	lui	v0,0x41
  401760:	8c43bc44 	lw	v1,-17340(v0)
  401764:	3c020041 	lui	v0,0x41
  401768:	2442bc44 	addiu	v0,v0,-17340
  40176c:	8c420004 	lw	v0,4(v0)
  401770:	00000000 	nop
  401774:	14620041 	bne	v1,v0,40187c <main+0x1864>
  401778:	00000000 	nop
  40177c:	3c020041 	lui	v0,0x41
  401780:	8c43bc44 	lw	v1,-17340(v0)
  401784:	3c020041 	lui	v0,0x41
  401788:	2442bc44 	addiu	v0,v0,-17340
  40178c:	8c42000c 	lw	v0,12(v0)
  401790:	00000000 	nop
  401794:	14620039 	bne	v1,v0,40187c <main+0x1864>
  401798:	00000000 	nop
  40179c:	3c020041 	lui	v0,0x41
  4017a0:	2442bc44 	addiu	v0,v0,-17340
  4017a4:	8c420008 	lw	v0,8(v0)
  4017a8:	00000000 	nop
  4017ac:	afa200dc 	sw	v0,220(sp)
  4017b0:	3c020041 	lui	v0,0x41
  4017b4:	8c42bc44 	lw	v0,-17340(v0)
  4017b8:	00000000 	nop
  4017bc:	afa200e0 	sw	v0,224(sp)
  4017c0:	8fa300e0 	lw	v1,224(sp)
  4017c4:	8fa200dc 	lw	v0,220(sp)
  4017c8:	00000000 	nop
  4017cc:	0043102a 	slt	v0,v0,v1
  4017d0:	1040002a 	beqz	v0,40187c <main+0x1864>
  4017d4:	00000000 	nop
  4017d8:	8f828008 	lw	v0,-32760(gp)
  4017dc:	00000000 	nop
  4017e0:	2442fffc 	addiu	v0,v0,-4
  4017e4:	af828008 	sw	v0,-32760(gp)
  4017e8:	8fa300dc 	lw	v1,220(sp)
  4017ec:	8fa200e0 	lw	v0,224(sp)
  4017f0:	00000000 	nop
  4017f4:	00621021 	addu	v0,v1,v0
  4017f8:	afa200e4 	sw	v0,228(sp)
  4017fc:	8f83800c 	lw	v1,-32756(gp)
  401800:	3c020041 	lui	v0,0x41
  401804:	00031880 	sll	v1,v1,0x2
  401808:	2442bc20 	addiu	v0,v0,-17376
  40180c:	00621021 	addu	v0,v1,v0
  401810:	8fa300dc 	lw	v1,220(sp)
  401814:	00000000 	nop
  401818:	ac430000 	sw	v1,0(v0)
  40181c:	8f82800c 	lw	v0,-32756(gp)
  401820:	00000000 	nop
  401824:	24430001 	addiu	v1,v0,1
  401828:	3c020041 	lui	v0,0x41
  40182c:	00031880 	sll	v1,v1,0x2
  401830:	2442bc20 	addiu	v0,v0,-17376
  401834:	00621021 	addu	v0,v1,v0
  401838:	8fa300e0 	lw	v1,224(sp)
  40183c:	00000000 	nop
  401840:	ac430000 	sw	v1,0(v0)
  401844:	8f82800c 	lw	v0,-32756(gp)
  401848:	00000000 	nop
  40184c:	24430002 	addiu	v1,v0,2
  401850:	3c020041 	lui	v0,0x41
  401854:	00031880 	sll	v1,v1,0x2
  401858:	2442bc20 	addiu	v0,v0,-17376
  40185c:	00621021 	addu	v0,v1,v0
  401860:	8fa300e4 	lw	v1,228(sp)
  401864:	00000000 	nop
  401868:	ac430000 	sw	v1,0(v0)
  40186c:	8f82800c 	lw	v0,-32756(gp)
  401870:	00000000 	nop
  401874:	24420003 	addiu	v0,v0,3
  401878:	af82800c 	sw	v0,-32756(gp)
  40187c:	8f828008 	lw	v0,-32760(gp)
  401880:	00000000 	nop
  401884:	28420004 	slti	v0,v0,4
  401888:	1440004f 	bnez	v0,4019c8 <main+0x19b0>
  40188c:	00000000 	nop
  401890:	8f82800c 	lw	v0,-32756(gp)
  401894:	00000000 	nop
  401898:	24420003 	addiu	v0,v0,3
  40189c:	28420007 	slti	v0,v0,7
  4018a0:	10400049 	beqz	v0,4019c8 <main+0x19b0>
  4018a4:	00000000 	nop
  4018a8:	3c020041 	lui	v0,0x41
  4018ac:	8c43bc44 	lw	v1,-17340(v0)
  4018b0:	3c020041 	lui	v0,0x41
  4018b4:	2442bc44 	addiu	v0,v0,-17340
  4018b8:	8c42000c 	lw	v0,12(v0)
  4018bc:	00000000 	nop
  4018c0:	14620041 	bne	v1,v0,4019c8 <main+0x19b0>
  4018c4:	00000000 	nop
  4018c8:	3c020041 	lui	v0,0x41
  4018cc:	8c43bc44 	lw	v1,-17340(v0)
  4018d0:	3c020041 	lui	v0,0x41
  4018d4:	2442bc44 	addiu	v0,v0,-17340
  4018d8:	8c420004 	lw	v0,4(v0)
  4018dc:	00000000 	nop
  4018e0:	14620039 	bne	v1,v0,4019c8 <main+0x19b0>
  4018e4:	00000000 	nop
  4018e8:	3c020041 	lui	v0,0x41
  4018ec:	2442bc44 	addiu	v0,v0,-17340
  4018f0:	8c420008 	lw	v0,8(v0)
  4018f4:	00000000 	nop
  4018f8:	afa200e8 	sw	v0,232(sp)
  4018fc:	3c020041 	lui	v0,0x41
  401900:	8c42bc44 	lw	v0,-17340(v0)
  401904:	00000000 	nop
  401908:	afa200ec 	sw	v0,236(sp)
  40190c:	8fa300ec 	lw	v1,236(sp)
  401910:	8fa200e8 	lw	v0,232(sp)
  401914:	00000000 	nop
  401918:	0043102a 	slt	v0,v0,v1
  40191c:	1040002a 	beqz	v0,4019c8 <main+0x19b0>
  401920:	00000000 	nop
  401924:	8f828008 	lw	v0,-32760(gp)
  401928:	00000000 	nop
  40192c:	2442fffc 	addiu	v0,v0,-4
  401930:	af828008 	sw	v0,-32760(gp)
  401934:	8fa300e8 	lw	v1,232(sp)
  401938:	8fa200ec 	lw	v0,236(sp)
  40193c:	00000000 	nop
  401940:	00621021 	addu	v0,v1,v0
  401944:	afa200f0 	sw	v0,240(sp)
  401948:	8f83800c 	lw	v1,-32756(gp)
  40194c:	3c020041 	lui	v0,0x41
  401950:	00031880 	sll	v1,v1,0x2
  401954:	2442bc20 	addiu	v0,v0,-17376
  401958:	00621021 	addu	v0,v1,v0
  40195c:	8fa300e8 	lw	v1,232(sp)
  401960:	00000000 	nop
  401964:	ac430000 	sw	v1,0(v0)
  401968:	8f82800c 	lw	v0,-32756(gp)
  40196c:	00000000 	nop
  401970:	24430001 	addiu	v1,v0,1
  401974:	3c020041 	lui	v0,0x41
  401978:	00031880 	sll	v1,v1,0x2
  40197c:	2442bc20 	addiu	v0,v0,-17376
  401980:	00621021 	addu	v0,v1,v0
  401984:	8fa300ec 	lw	v1,236(sp)
  401988:	00000000 	nop
  40198c:	ac430000 	sw	v1,0(v0)
  401990:	8f82800c 	lw	v0,-32756(gp)
  401994:	00000000 	nop
  401998:	24430002 	addiu	v1,v0,2
  40199c:	3c020041 	lui	v0,0x41
  4019a0:	00031880 	sll	v1,v1,0x2
  4019a4:	2442bc20 	addiu	v0,v0,-17376
  4019a8:	00621021 	addu	v0,v1,v0
  4019ac:	8fa300f0 	lw	v1,240(sp)
  4019b0:	00000000 	nop
  4019b4:	ac430000 	sw	v1,0(v0)
  4019b8:	8f82800c 	lw	v0,-32756(gp)
  4019bc:	00000000 	nop
  4019c0:	24420003 	addiu	v0,v0,3
  4019c4:	af82800c 	sw	v0,-32756(gp)
  4019c8:	8f828008 	lw	v0,-32760(gp)
  4019cc:	00000000 	nop
  4019d0:	28420004 	slti	v0,v0,4
  4019d4:	14400051 	bnez	v0,401b1c <main+0x1b04>
  4019d8:	00000000 	nop
  4019dc:	8f82800c 	lw	v0,-32756(gp)
  4019e0:	00000000 	nop
  4019e4:	24420003 	addiu	v0,v0,3
  4019e8:	28420007 	slti	v0,v0,7
  4019ec:	1040004b 	beqz	v0,401b1c <main+0x1b04>
  4019f0:	00000000 	nop
  4019f4:	3c020041 	lui	v0,0x41
  4019f8:	2442bc44 	addiu	v0,v0,-17340
  4019fc:	8c430004 	lw	v1,4(v0)
  401a00:	3c020041 	lui	v0,0x41
  401a04:	8c42bc44 	lw	v0,-17340(v0)
  401a08:	00000000 	nop
  401a0c:	14620043 	bne	v1,v0,401b1c <main+0x1b04>
  401a10:	00000000 	nop
  401a14:	3c020041 	lui	v0,0x41
  401a18:	2442bc44 	addiu	v0,v0,-17340
  401a1c:	8c430004 	lw	v1,4(v0)
  401a20:	3c020041 	lui	v0,0x41
  401a24:	2442bc44 	addiu	v0,v0,-17340
  401a28:	8c42000c 	lw	v0,12(v0)
  401a2c:	00000000 	nop
  401a30:	1462003a 	bne	v1,v0,401b1c <main+0x1b04>
  401a34:	00000000 	nop
  401a38:	3c020041 	lui	v0,0x41
  401a3c:	2442bc44 	addiu	v0,v0,-17340
  401a40:	8c420008 	lw	v0,8(v0)
  401a44:	00000000 	nop
  401a48:	afa200f4 	sw	v0,244(sp)
  401a4c:	3c020041 	lui	v0,0x41
  401a50:	2442bc44 	addiu	v0,v0,-17340
  401a54:	8c420004 	lw	v0,4(v0)
  401a58:	00000000 	nop
  401a5c:	afa200f8 	sw	v0,248(sp)
  401a60:	8fa300f8 	lw	v1,248(sp)
  401a64:	8fa200f4 	lw	v0,244(sp)
  401a68:	00000000 	nop
  401a6c:	0043102a 	slt	v0,v0,v1
  401a70:	1040002a 	beqz	v0,401b1c <main+0x1b04>
  401a74:	00000000 	nop
  401a78:	8f828008 	lw	v0,-32760(gp)
  401a7c:	00000000 	nop
  401a80:	2442fffc 	addiu	v0,v0,-4
  401a84:	af828008 	sw	v0,-32760(gp)
  401a88:	8fa300f4 	lw	v1,244(sp)
  401a8c:	8fa200f8 	lw	v0,248(sp)
  401a90:	00000000 	nop
  401a94:	00621021 	addu	v0,v1,v0
  401a98:	afa200fc 	sw	v0,252(sp)
  401a9c:	8f83800c 	lw	v1,-32756(gp)
  401aa0:	3c020041 	lui	v0,0x41
  401aa4:	00031880 	sll	v1,v1,0x2
  401aa8:	2442bc20 	addiu	v0,v0,-17376
  401aac:	00621021 	addu	v0,v1,v0
  401ab0:	8fa300f4 	lw	v1,244(sp)
  401ab4:	00000000 	nop
  401ab8:	ac430000 	sw	v1,0(v0)
  401abc:	8f82800c 	lw	v0,-32756(gp)
  401ac0:	00000000 	nop
  401ac4:	24430001 	addiu	v1,v0,1
  401ac8:	3c020041 	lui	v0,0x41
  401acc:	00031880 	sll	v1,v1,0x2
  401ad0:	2442bc20 	addiu	v0,v0,-17376
  401ad4:	00621021 	addu	v0,v1,v0
  401ad8:	8fa300f8 	lw	v1,248(sp)
  401adc:	00000000 	nop
  401ae0:	ac430000 	sw	v1,0(v0)
  401ae4:	8f82800c 	lw	v0,-32756(gp)
  401ae8:	00000000 	nop
  401aec:	24430002 	addiu	v1,v0,2
  401af0:	3c020041 	lui	v0,0x41
  401af4:	00031880 	sll	v1,v1,0x2
  401af8:	2442bc20 	addiu	v0,v0,-17376
  401afc:	00621021 	addu	v0,v1,v0
  401b00:	8fa300fc 	lw	v1,252(sp)
  401b04:	00000000 	nop
  401b08:	ac430000 	sw	v1,0(v0)
  401b0c:	8f82800c 	lw	v0,-32756(gp)
  401b10:	00000000 	nop
  401b14:	24420003 	addiu	v0,v0,3
  401b18:	af82800c 	sw	v0,-32756(gp)
  401b1c:	8f828008 	lw	v0,-32760(gp)
  401b20:	00000000 	nop
  401b24:	28420004 	slti	v0,v0,4
  401b28:	14400051 	bnez	v0,401c70 <main+0x1c58>
  401b2c:	00000000 	nop
  401b30:	8f82800c 	lw	v0,-32756(gp)
  401b34:	00000000 	nop
  401b38:	24420003 	addiu	v0,v0,3
  401b3c:	28420007 	slti	v0,v0,7
  401b40:	1040004b 	beqz	v0,401c70 <main+0x1c58>
  401b44:	00000000 	nop
  401b48:	3c020041 	lui	v0,0x41
  401b4c:	2442bc44 	addiu	v0,v0,-17340
  401b50:	8c430004 	lw	v1,4(v0)
  401b54:	3c020041 	lui	v0,0x41
  401b58:	2442bc44 	addiu	v0,v0,-17340
  401b5c:	8c42000c 	lw	v0,12(v0)
  401b60:	00000000 	nop
  401b64:	14620042 	bne	v1,v0,401c70 <main+0x1c58>
  401b68:	00000000 	nop
  401b6c:	3c020041 	lui	v0,0x41
  401b70:	2442bc44 	addiu	v0,v0,-17340
  401b74:	8c430004 	lw	v1,4(v0)
  401b78:	3c020041 	lui	v0,0x41
  401b7c:	8c42bc44 	lw	v0,-17340(v0)
  401b80:	00000000 	nop
  401b84:	1462003a 	bne	v1,v0,401c70 <main+0x1c58>
  401b88:	00000000 	nop
  401b8c:	3c020041 	lui	v0,0x41
  401b90:	2442bc44 	addiu	v0,v0,-17340
  401b94:	8c420008 	lw	v0,8(v0)
  401b98:	00000000 	nop
  401b9c:	afa20100 	sw	v0,256(sp)
  401ba0:	3c020041 	lui	v0,0x41
  401ba4:	2442bc44 	addiu	v0,v0,-17340
  401ba8:	8c420004 	lw	v0,4(v0)
  401bac:	00000000 	nop
  401bb0:	afa20104 	sw	v0,260(sp)
  401bb4:	8fa30104 	lw	v1,260(sp)
  401bb8:	8fa20100 	lw	v0,256(sp)
  401bbc:	00000000 	nop
  401bc0:	0043102a 	slt	v0,v0,v1
  401bc4:	1040002a 	beqz	v0,401c70 <main+0x1c58>
  401bc8:	00000000 	nop
  401bcc:	8f828008 	lw	v0,-32760(gp)
  401bd0:	00000000 	nop
  401bd4:	2442fffc 	addiu	v0,v0,-4
  401bd8:	af828008 	sw	v0,-32760(gp)
  401bdc:	8fa30100 	lw	v1,256(sp)
  401be0:	8fa20104 	lw	v0,260(sp)
  401be4:	00000000 	nop
  401be8:	00621021 	addu	v0,v1,v0
  401bec:	afa20108 	sw	v0,264(sp)
  401bf0:	8f83800c 	lw	v1,-32756(gp)
  401bf4:	3c020041 	lui	v0,0x41
  401bf8:	00031880 	sll	v1,v1,0x2
  401bfc:	2442bc20 	addiu	v0,v0,-17376
  401c00:	00621021 	addu	v0,v1,v0
  401c04:	8fa30100 	lw	v1,256(sp)
  401c08:	00000000 	nop
  401c0c:	ac430000 	sw	v1,0(v0)
  401c10:	8f82800c 	lw	v0,-32756(gp)
  401c14:	00000000 	nop
  401c18:	24430001 	addiu	v1,v0,1
  401c1c:	3c020041 	lui	v0,0x41
  401c20:	00031880 	sll	v1,v1,0x2
  401c24:	2442bc20 	addiu	v0,v0,-17376
  401c28:	00621021 	addu	v0,v1,v0
  401c2c:	8fa30104 	lw	v1,260(sp)
  401c30:	00000000 	nop
  401c34:	ac430000 	sw	v1,0(v0)
  401c38:	8f82800c 	lw	v0,-32756(gp)
  401c3c:	00000000 	nop
  401c40:	24430002 	addiu	v1,v0,2
  401c44:	3c020041 	lui	v0,0x41
  401c48:	00031880 	sll	v1,v1,0x2
  401c4c:	2442bc20 	addiu	v0,v0,-17376
  401c50:	00621021 	addu	v0,v1,v0
  401c54:	8fa30108 	lw	v1,264(sp)
  401c58:	00000000 	nop
  401c5c:	ac430000 	sw	v1,0(v0)
  401c60:	8f82800c 	lw	v0,-32756(gp)
  401c64:	00000000 	nop
  401c68:	24420003 	addiu	v0,v0,3
  401c6c:	af82800c 	sw	v0,-32756(gp)
  401c70:	8f828008 	lw	v0,-32760(gp)
  401c74:	00000000 	nop
  401c78:	28420004 	slti	v0,v0,4
  401c7c:	14400051 	bnez	v0,401dc4 <main+0x1dac>
  401c80:	00000000 	nop
  401c84:	8f82800c 	lw	v0,-32756(gp)
  401c88:	00000000 	nop
  401c8c:	24420003 	addiu	v0,v0,3
  401c90:	28420007 	slti	v0,v0,7
  401c94:	1040004b 	beqz	v0,401dc4 <main+0x1dac>
  401c98:	00000000 	nop
  401c9c:	3c020041 	lui	v0,0x41
  401ca0:	2442bc44 	addiu	v0,v0,-17340
  401ca4:	8c43000c 	lw	v1,12(v0)
  401ca8:	3c020041 	lui	v0,0x41
  401cac:	8c42bc44 	lw	v0,-17340(v0)
  401cb0:	00000000 	nop
  401cb4:	14620043 	bne	v1,v0,401dc4 <main+0x1dac>
  401cb8:	00000000 	nop
  401cbc:	3c020041 	lui	v0,0x41
  401cc0:	2442bc44 	addiu	v0,v0,-17340
  401cc4:	8c43000c 	lw	v1,12(v0)
  401cc8:	3c020041 	lui	v0,0x41
  401ccc:	2442bc44 	addiu	v0,v0,-17340
  401cd0:	8c420004 	lw	v0,4(v0)
  401cd4:	00000000 	nop
  401cd8:	1462003a 	bne	v1,v0,401dc4 <main+0x1dac>
  401cdc:	00000000 	nop
  401ce0:	3c020041 	lui	v0,0x41
  401ce4:	2442bc44 	addiu	v0,v0,-17340
  401ce8:	8c420008 	lw	v0,8(v0)
  401cec:	00000000 	nop
  401cf0:	afa2010c 	sw	v0,268(sp)
  401cf4:	3c020041 	lui	v0,0x41
  401cf8:	2442bc44 	addiu	v0,v0,-17340
  401cfc:	8c42000c 	lw	v0,12(v0)
  401d00:	00000000 	nop
  401d04:	afa20110 	sw	v0,272(sp)
  401d08:	8fa30110 	lw	v1,272(sp)
  401d0c:	8fa2010c 	lw	v0,268(sp)
  401d10:	00000000 	nop
  401d14:	0043102a 	slt	v0,v0,v1
  401d18:	1040002a 	beqz	v0,401dc4 <main+0x1dac>
  401d1c:	00000000 	nop
  401d20:	8f828008 	lw	v0,-32760(gp)
  401d24:	00000000 	nop
  401d28:	2442fffc 	addiu	v0,v0,-4
  401d2c:	af828008 	sw	v0,-32760(gp)
  401d30:	8fa3010c 	lw	v1,268(sp)
  401d34:	8fa20110 	lw	v0,272(sp)
  401d38:	00000000 	nop
  401d3c:	00621021 	addu	v0,v1,v0
  401d40:	afa20114 	sw	v0,276(sp)
  401d44:	8f83800c 	lw	v1,-32756(gp)
  401d48:	3c020041 	lui	v0,0x41
  401d4c:	00031880 	sll	v1,v1,0x2
  401d50:	2442bc20 	addiu	v0,v0,-17376
  401d54:	00621021 	addu	v0,v1,v0
  401d58:	8fa3010c 	lw	v1,268(sp)
  401d5c:	00000000 	nop
  401d60:	ac430000 	sw	v1,0(v0)
  401d64:	8f82800c 	lw	v0,-32756(gp)
  401d68:	00000000 	nop
  401d6c:	24430001 	addiu	v1,v0,1
  401d70:	3c020041 	lui	v0,0x41
  401d74:	00031880 	sll	v1,v1,0x2
  401d78:	2442bc20 	addiu	v0,v0,-17376
  401d7c:	00621021 	addu	v0,v1,v0
  401d80:	8fa30110 	lw	v1,272(sp)
  401d84:	00000000 	nop
  401d88:	ac430000 	sw	v1,0(v0)
  401d8c:	8f82800c 	lw	v0,-32756(gp)
  401d90:	00000000 	nop
  401d94:	24430002 	addiu	v1,v0,2
  401d98:	3c020041 	lui	v0,0x41
  401d9c:	00031880 	sll	v1,v1,0x2
  401da0:	2442bc20 	addiu	v0,v0,-17376
  401da4:	00621021 	addu	v0,v1,v0
  401da8:	8fa30114 	lw	v1,276(sp)
  401dac:	00000000 	nop
  401db0:	ac430000 	sw	v1,0(v0)
  401db4:	8f82800c 	lw	v0,-32756(gp)
  401db8:	00000000 	nop
  401dbc:	24420003 	addiu	v0,v0,3
  401dc0:	af82800c 	sw	v0,-32756(gp)
  401dc4:	8f828008 	lw	v0,-32760(gp)
  401dc8:	00000000 	nop
  401dcc:	28420004 	slti	v0,v0,4
  401dd0:	14400051 	bnez	v0,401f18 <main+0x1f00>
  401dd4:	00000000 	nop
  401dd8:	8f82800c 	lw	v0,-32756(gp)
  401ddc:	00000000 	nop
  401de0:	24420003 	addiu	v0,v0,3
  401de4:	28420007 	slti	v0,v0,7
  401de8:	1040004b 	beqz	v0,401f18 <main+0x1f00>
  401dec:	00000000 	nop
  401df0:	3c020041 	lui	v0,0x41
  401df4:	2442bc44 	addiu	v0,v0,-17340
  401df8:	8c43000c 	lw	v1,12(v0)
  401dfc:	3c020041 	lui	v0,0x41
  401e00:	2442bc44 	addiu	v0,v0,-17340
  401e04:	8c420004 	lw	v0,4(v0)
  401e08:	00000000 	nop
  401e0c:	14620042 	bne	v1,v0,401f18 <main+0x1f00>
  401e10:	00000000 	nop
  401e14:	3c020041 	lui	v0,0x41
  401e18:	2442bc44 	addiu	v0,v0,-17340
  401e1c:	8c43000c 	lw	v1,12(v0)
  401e20:	3c020041 	lui	v0,0x41
  401e24:	8c42bc44 	lw	v0,-17340(v0)
  401e28:	00000000 	nop
  401e2c:	1462003a 	bne	v1,v0,401f18 <main+0x1f00>
  401e30:	00000000 	nop
  401e34:	3c020041 	lui	v0,0x41
  401e38:	2442bc44 	addiu	v0,v0,-17340
  401e3c:	8c420008 	lw	v0,8(v0)
  401e40:	00000000 	nop
  401e44:	afa20118 	sw	v0,280(sp)
  401e48:	3c020041 	lui	v0,0x41
  401e4c:	2442bc44 	addiu	v0,v0,-17340
  401e50:	8c42000c 	lw	v0,12(v0)
  401e54:	00000000 	nop
  401e58:	afa2011c 	sw	v0,284(sp)
  401e5c:	8fa3011c 	lw	v1,284(sp)
  401e60:	8fa20118 	lw	v0,280(sp)
  401e64:	00000000 	nop
  401e68:	0043102a 	slt	v0,v0,v1
  401e6c:	1040002a 	beqz	v0,401f18 <main+0x1f00>
  401e70:	00000000 	nop
  401e74:	8f828008 	lw	v0,-32760(gp)
  401e78:	00000000 	nop
  401e7c:	2442fffc 	addiu	v0,v0,-4
  401e80:	af828008 	sw	v0,-32760(gp)
  401e84:	8fa30118 	lw	v1,280(sp)
  401e88:	8fa2011c 	lw	v0,284(sp)
  401e8c:	00000000 	nop
  401e90:	00621021 	addu	v0,v1,v0
  401e94:	afa20120 	sw	v0,288(sp)
  401e98:	8f83800c 	lw	v1,-32756(gp)
  401e9c:	3c020041 	lui	v0,0x41
  401ea0:	00031880 	sll	v1,v1,0x2
  401ea4:	2442bc20 	addiu	v0,v0,-17376
  401ea8:	00621021 	addu	v0,v1,v0
  401eac:	8fa30118 	lw	v1,280(sp)
  401eb0:	00000000 	nop
  401eb4:	ac430000 	sw	v1,0(v0)
  401eb8:	8f82800c 	lw	v0,-32756(gp)
  401ebc:	00000000 	nop
  401ec0:	24430001 	addiu	v1,v0,1
  401ec4:	3c020041 	lui	v0,0x41
  401ec8:	00031880 	sll	v1,v1,0x2
  401ecc:	2442bc20 	addiu	v0,v0,-17376
  401ed0:	00621021 	addu	v0,v1,v0
  401ed4:	8fa3011c 	lw	v1,284(sp)
  401ed8:	00000000 	nop
  401edc:	ac430000 	sw	v1,0(v0)
  401ee0:	8f82800c 	lw	v0,-32756(gp)
  401ee4:	00000000 	nop
  401ee8:	24430002 	addiu	v1,v0,2
  401eec:	3c020041 	lui	v0,0x41
  401ef0:	00031880 	sll	v1,v1,0x2
  401ef4:	2442bc20 	addiu	v0,v0,-17376
  401ef8:	00621021 	addu	v0,v1,v0
  401efc:	8fa30120 	lw	v1,288(sp)
  401f00:	00000000 	nop
  401f04:	ac430000 	sw	v1,0(v0)
  401f08:	8f82800c 	lw	v0,-32756(gp)
  401f0c:	00000000 	nop
  401f10:	24420003 	addiu	v0,v0,3
  401f14:	af82800c 	sw	v0,-32756(gp)
  401f18:	8f828008 	lw	v0,-32760(gp)
  401f1c:	00000000 	nop
  401f20:	28420004 	slti	v0,v0,4
  401f24:	1440004f 	bnez	v0,402064 <main+0x204c>
  401f28:	00000000 	nop
  401f2c:	8f82800c 	lw	v0,-32756(gp)
  401f30:	00000000 	nop
  401f34:	24420003 	addiu	v0,v0,3
  401f38:	28420007 	slti	v0,v0,7
  401f3c:	10400049 	beqz	v0,402064 <main+0x204c>
  401f40:	00000000 	nop
  401f44:	3c020041 	lui	v0,0x41
  401f48:	8c43bc44 	lw	v1,-17340(v0)
  401f4c:	3c020041 	lui	v0,0x41
  401f50:	2442bc44 	addiu	v0,v0,-17340
  401f54:	8c420004 	lw	v0,4(v0)
  401f58:	00000000 	nop
  401f5c:	14620041 	bne	v1,v0,402064 <main+0x204c>
  401f60:	00000000 	nop
  401f64:	3c020041 	lui	v0,0x41
  401f68:	8c43bc44 	lw	v1,-17340(v0)
  401f6c:	3c020041 	lui	v0,0x41
  401f70:	2442bc44 	addiu	v0,v0,-17340
  401f74:	8c420008 	lw	v0,8(v0)
  401f78:	00000000 	nop
  401f7c:	14620039 	bne	v1,v0,402064 <main+0x204c>
  401f80:	00000000 	nop
  401f84:	3c020041 	lui	v0,0x41
  401f88:	2442bc44 	addiu	v0,v0,-17340
  401f8c:	8c42000c 	lw	v0,12(v0)
  401f90:	00000000 	nop
  401f94:	afa20124 	sw	v0,292(sp)
  401f98:	3c020041 	lui	v0,0x41
  401f9c:	8c42bc44 	lw	v0,-17340(v0)
  401fa0:	00000000 	nop
  401fa4:	afa20128 	sw	v0,296(sp)
  401fa8:	8fa30128 	lw	v1,296(sp)
  401fac:	8fa20124 	lw	v0,292(sp)
  401fb0:	00000000 	nop
  401fb4:	0043102a 	slt	v0,v0,v1
  401fb8:	1040002a 	beqz	v0,402064 <main+0x204c>
  401fbc:	00000000 	nop
  401fc0:	8f828008 	lw	v0,-32760(gp)
  401fc4:	00000000 	nop
  401fc8:	2442fffc 	addiu	v0,v0,-4
  401fcc:	af828008 	sw	v0,-32760(gp)
  401fd0:	8fa30124 	lw	v1,292(sp)
  401fd4:	8fa20128 	lw	v0,296(sp)
  401fd8:	00000000 	nop
  401fdc:	00621021 	addu	v0,v1,v0
  401fe0:	afa2012c 	sw	v0,300(sp)
  401fe4:	8f83800c 	lw	v1,-32756(gp)
  401fe8:	3c020041 	lui	v0,0x41
  401fec:	00031880 	sll	v1,v1,0x2
  401ff0:	2442bc20 	addiu	v0,v0,-17376
  401ff4:	00621021 	addu	v0,v1,v0
  401ff8:	8fa30124 	lw	v1,292(sp)
  401ffc:	00000000 	nop
  402000:	ac430000 	sw	v1,0(v0)
  402004:	8f82800c 	lw	v0,-32756(gp)
  402008:	00000000 	nop
  40200c:	24430001 	addiu	v1,v0,1
  402010:	3c020041 	lui	v0,0x41
  402014:	00031880 	sll	v1,v1,0x2
  402018:	2442bc20 	addiu	v0,v0,-17376
  40201c:	00621021 	addu	v0,v1,v0
  402020:	8fa30128 	lw	v1,296(sp)
  402024:	00000000 	nop
  402028:	ac430000 	sw	v1,0(v0)
  40202c:	8f82800c 	lw	v0,-32756(gp)
  402030:	00000000 	nop
  402034:	24430002 	addiu	v1,v0,2
  402038:	3c020041 	lui	v0,0x41
  40203c:	00031880 	sll	v1,v1,0x2
  402040:	2442bc20 	addiu	v0,v0,-17376
  402044:	00621021 	addu	v0,v1,v0
  402048:	8fa3012c 	lw	v1,300(sp)
  40204c:	00000000 	nop
  402050:	ac430000 	sw	v1,0(v0)
  402054:	8f82800c 	lw	v0,-32756(gp)
  402058:	00000000 	nop
  40205c:	24420003 	addiu	v0,v0,3
  402060:	af82800c 	sw	v0,-32756(gp)
  402064:	8f828008 	lw	v0,-32760(gp)
  402068:	00000000 	nop
  40206c:	28420004 	slti	v0,v0,4
  402070:	1440004f 	bnez	v0,4021b0 <main+0x2198>
  402074:	00000000 	nop
  402078:	8f82800c 	lw	v0,-32756(gp)
  40207c:	00000000 	nop
  402080:	24420003 	addiu	v0,v0,3
  402084:	28420007 	slti	v0,v0,7
  402088:	10400049 	beqz	v0,4021b0 <main+0x2198>
  40208c:	00000000 	nop
  402090:	3c020041 	lui	v0,0x41
  402094:	8c43bc44 	lw	v1,-17340(v0)
  402098:	3c020041 	lui	v0,0x41
  40209c:	2442bc44 	addiu	v0,v0,-17340
  4020a0:	8c420008 	lw	v0,8(v0)
  4020a4:	00000000 	nop
  4020a8:	14620041 	bne	v1,v0,4021b0 <main+0x2198>
  4020ac:	00000000 	nop
  4020b0:	3c020041 	lui	v0,0x41
  4020b4:	8c43bc44 	lw	v1,-17340(v0)
  4020b8:	3c020041 	lui	v0,0x41
  4020bc:	2442bc44 	addiu	v0,v0,-17340
  4020c0:	8c420004 	lw	v0,4(v0)
  4020c4:	00000000 	nop
  4020c8:	14620039 	bne	v1,v0,4021b0 <main+0x2198>
  4020cc:	00000000 	nop
  4020d0:	3c020041 	lui	v0,0x41
  4020d4:	2442bc44 	addiu	v0,v0,-17340
  4020d8:	8c42000c 	lw	v0,12(v0)
  4020dc:	00000000 	nop
  4020e0:	afa20130 	sw	v0,304(sp)
  4020e4:	3c020041 	lui	v0,0x41
  4020e8:	8c42bc44 	lw	v0,-17340(v0)
  4020ec:	00000000 	nop
  4020f0:	afa20134 	sw	v0,308(sp)
  4020f4:	8fa30134 	lw	v1,308(sp)
  4020f8:	8fa20130 	lw	v0,304(sp)
  4020fc:	00000000 	nop
  402100:	0043102a 	slt	v0,v0,v1
  402104:	1040002a 	beqz	v0,4021b0 <main+0x2198>
  402108:	00000000 	nop
  40210c:	8f828008 	lw	v0,-32760(gp)
  402110:	00000000 	nop
  402114:	2442fffc 	addiu	v0,v0,-4
  402118:	af828008 	sw	v0,-32760(gp)
  40211c:	8fa30130 	lw	v1,304(sp)
  402120:	8fa20134 	lw	v0,308(sp)
  402124:	00000000 	nop
  402128:	00621021 	addu	v0,v1,v0
  40212c:	afa20138 	sw	v0,312(sp)
  402130:	8f83800c 	lw	v1,-32756(gp)
  402134:	3c020041 	lui	v0,0x41
  402138:	00031880 	sll	v1,v1,0x2
  40213c:	2442bc20 	addiu	v0,v0,-17376
  402140:	00621021 	addu	v0,v1,v0
  402144:	8fa30130 	lw	v1,304(sp)
  402148:	00000000 	nop
  40214c:	ac430000 	sw	v1,0(v0)
  402150:	8f82800c 	lw	v0,-32756(gp)
  402154:	00000000 	nop
  402158:	24430001 	addiu	v1,v0,1
  40215c:	3c020041 	lui	v0,0x41
  402160:	00031880 	sll	v1,v1,0x2
  402164:	2442bc20 	addiu	v0,v0,-17376
  402168:	00621021 	addu	v0,v1,v0
  40216c:	8fa30134 	lw	v1,308(sp)
  402170:	00000000 	nop
  402174:	ac430000 	sw	v1,0(v0)
  402178:	8f82800c 	lw	v0,-32756(gp)
  40217c:	00000000 	nop
  402180:	24430002 	addiu	v1,v0,2
  402184:	3c020041 	lui	v0,0x41
  402188:	00031880 	sll	v1,v1,0x2
  40218c:	2442bc20 	addiu	v0,v0,-17376
  402190:	00621021 	addu	v0,v1,v0
  402194:	8fa30138 	lw	v1,312(sp)
  402198:	00000000 	nop
  40219c:	ac430000 	sw	v1,0(v0)
  4021a0:	8f82800c 	lw	v0,-32756(gp)
  4021a4:	00000000 	nop
  4021a8:	24420003 	addiu	v0,v0,3
  4021ac:	af82800c 	sw	v0,-32756(gp)
  4021b0:	8f828008 	lw	v0,-32760(gp)
  4021b4:	00000000 	nop
  4021b8:	28420004 	slti	v0,v0,4
  4021bc:	14400051 	bnez	v0,402304 <main+0x22ec>
  4021c0:	00000000 	nop
  4021c4:	8f82800c 	lw	v0,-32756(gp)
  4021c8:	00000000 	nop
  4021cc:	24420003 	addiu	v0,v0,3
  4021d0:	28420007 	slti	v0,v0,7
  4021d4:	1040004b 	beqz	v0,402304 <main+0x22ec>
  4021d8:	00000000 	nop
  4021dc:	3c020041 	lui	v0,0x41
  4021e0:	2442bc44 	addiu	v0,v0,-17340
  4021e4:	8c430004 	lw	v1,4(v0)
  4021e8:	3c020041 	lui	v0,0x41
  4021ec:	8c42bc44 	lw	v0,-17340(v0)
  4021f0:	00000000 	nop
  4021f4:	14620043 	bne	v1,v0,402304 <main+0x22ec>
  4021f8:	00000000 	nop
  4021fc:	3c020041 	lui	v0,0x41
  402200:	2442bc44 	addiu	v0,v0,-17340
  402204:	8c430004 	lw	v1,4(v0)
  402208:	3c020041 	lui	v0,0x41
  40220c:	2442bc44 	addiu	v0,v0,-17340
  402210:	8c420008 	lw	v0,8(v0)
  402214:	00000000 	nop
  402218:	1462003a 	bne	v1,v0,402304 <main+0x22ec>
  40221c:	00000000 	nop
  402220:	3c020041 	lui	v0,0x41
  402224:	2442bc44 	addiu	v0,v0,-17340
  402228:	8c42000c 	lw	v0,12(v0)
  40222c:	00000000 	nop
  402230:	afa2013c 	sw	v0,316(sp)
  402234:	3c020041 	lui	v0,0x41
  402238:	2442bc44 	addiu	v0,v0,-17340
  40223c:	8c420004 	lw	v0,4(v0)
  402240:	00000000 	nop
  402244:	afa20140 	sw	v0,320(sp)
  402248:	8fa30140 	lw	v1,320(sp)
  40224c:	8fa2013c 	lw	v0,316(sp)
  402250:	00000000 	nop
  402254:	0043102a 	slt	v0,v0,v1
  402258:	1040002a 	beqz	v0,402304 <main+0x22ec>
  40225c:	00000000 	nop
  402260:	8f828008 	lw	v0,-32760(gp)
  402264:	00000000 	nop
  402268:	2442fffc 	addiu	v0,v0,-4
  40226c:	af828008 	sw	v0,-32760(gp)
  402270:	8fa3013c 	lw	v1,316(sp)
  402274:	8fa20140 	lw	v0,320(sp)
  402278:	00000000 	nop
  40227c:	00621021 	addu	v0,v1,v0
  402280:	afa20144 	sw	v0,324(sp)
  402284:	8f83800c 	lw	v1,-32756(gp)
  402288:	3c020041 	lui	v0,0x41
  40228c:	00031880 	sll	v1,v1,0x2
  402290:	2442bc20 	addiu	v0,v0,-17376
  402294:	00621021 	addu	v0,v1,v0
  402298:	8fa3013c 	lw	v1,316(sp)
  40229c:	00000000 	nop
  4022a0:	ac430000 	sw	v1,0(v0)
  4022a4:	8f82800c 	lw	v0,-32756(gp)
  4022a8:	00000000 	nop
  4022ac:	24430001 	addiu	v1,v0,1
  4022b0:	3c020041 	lui	v0,0x41
  4022b4:	00031880 	sll	v1,v1,0x2
  4022b8:	2442bc20 	addiu	v0,v0,-17376
  4022bc:	00621021 	addu	v0,v1,v0
  4022c0:	8fa30140 	lw	v1,320(sp)
  4022c4:	00000000 	nop
  4022c8:	ac430000 	sw	v1,0(v0)
  4022cc:	8f82800c 	lw	v0,-32756(gp)
  4022d0:	00000000 	nop
  4022d4:	24430002 	addiu	v1,v0,2
  4022d8:	3c020041 	lui	v0,0x41
  4022dc:	00031880 	sll	v1,v1,0x2
  4022e0:	2442bc20 	addiu	v0,v0,-17376
  4022e4:	00621021 	addu	v0,v1,v0
  4022e8:	8fa30144 	lw	v1,324(sp)
  4022ec:	00000000 	nop
  4022f0:	ac430000 	sw	v1,0(v0)
  4022f4:	8f82800c 	lw	v0,-32756(gp)
  4022f8:	00000000 	nop
  4022fc:	24420003 	addiu	v0,v0,3
  402300:	af82800c 	sw	v0,-32756(gp)
  402304:	8f828008 	lw	v0,-32760(gp)
  402308:	00000000 	nop
  40230c:	28420004 	slti	v0,v0,4
  402310:	14400051 	bnez	v0,402458 <main+0x2440>
  402314:	00000000 	nop
  402318:	8f82800c 	lw	v0,-32756(gp)
  40231c:	00000000 	nop
  402320:	24420003 	addiu	v0,v0,3
  402324:	28420007 	slti	v0,v0,7
  402328:	1040004b 	beqz	v0,402458 <main+0x2440>
  40232c:	00000000 	nop
  402330:	3c020041 	lui	v0,0x41
  402334:	2442bc44 	addiu	v0,v0,-17340
  402338:	8c430004 	lw	v1,4(v0)
  40233c:	3c020041 	lui	v0,0x41
  402340:	2442bc44 	addiu	v0,v0,-17340
  402344:	8c420008 	lw	v0,8(v0)
  402348:	00000000 	nop
  40234c:	14620042 	bne	v1,v0,402458 <main+0x2440>
  402350:	00000000 	nop
  402354:	3c020041 	lui	v0,0x41
  402358:	2442bc44 	addiu	v0,v0,-17340
  40235c:	8c430004 	lw	v1,4(v0)
  402360:	3c020041 	lui	v0,0x41
  402364:	8c42bc44 	lw	v0,-17340(v0)
  402368:	00000000 	nop
  40236c:	1462003a 	bne	v1,v0,402458 <main+0x2440>
  402370:	00000000 	nop
  402374:	3c020041 	lui	v0,0x41
  402378:	2442bc44 	addiu	v0,v0,-17340
  40237c:	8c42000c 	lw	v0,12(v0)
  402380:	00000000 	nop
  402384:	afa20148 	sw	v0,328(sp)
  402388:	3c020041 	lui	v0,0x41
  40238c:	2442bc44 	addiu	v0,v0,-17340
  402390:	8c420004 	lw	v0,4(v0)
  402394:	00000000 	nop
  402398:	afa2014c 	sw	v0,332(sp)
  40239c:	8fa3014c 	lw	v1,332(sp)
  4023a0:	8fa20148 	lw	v0,328(sp)
  4023a4:	00000000 	nop
  4023a8:	0043102a 	slt	v0,v0,v1
  4023ac:	1040002a 	beqz	v0,402458 <main+0x2440>
  4023b0:	00000000 	nop
  4023b4:	8f828008 	lw	v0,-32760(gp)
  4023b8:	00000000 	nop
  4023bc:	2442fffc 	addiu	v0,v0,-4
  4023c0:	af828008 	sw	v0,-32760(gp)
  4023c4:	8fa30148 	lw	v1,328(sp)
  4023c8:	8fa2014c 	lw	v0,332(sp)
  4023cc:	00000000 	nop
  4023d0:	00621021 	addu	v0,v1,v0
  4023d4:	afa20150 	sw	v0,336(sp)
  4023d8:	8f83800c 	lw	v1,-32756(gp)
  4023dc:	3c020041 	lui	v0,0x41
  4023e0:	00031880 	sll	v1,v1,0x2
  4023e4:	2442bc20 	addiu	v0,v0,-17376
  4023e8:	00621021 	addu	v0,v1,v0
  4023ec:	8fa30148 	lw	v1,328(sp)
  4023f0:	00000000 	nop
  4023f4:	ac430000 	sw	v1,0(v0)
  4023f8:	8f82800c 	lw	v0,-32756(gp)
  4023fc:	00000000 	nop
  402400:	24430001 	addiu	v1,v0,1
  402404:	3c020041 	lui	v0,0x41
  402408:	00031880 	sll	v1,v1,0x2
  40240c:	2442bc20 	addiu	v0,v0,-17376
  402410:	00621021 	addu	v0,v1,v0
  402414:	8fa3014c 	lw	v1,332(sp)
  402418:	00000000 	nop
  40241c:	ac430000 	sw	v1,0(v0)
  402420:	8f82800c 	lw	v0,-32756(gp)
  402424:	00000000 	nop
  402428:	24430002 	addiu	v1,v0,2
  40242c:	3c020041 	lui	v0,0x41
  402430:	00031880 	sll	v1,v1,0x2
  402434:	2442bc20 	addiu	v0,v0,-17376
  402438:	00621021 	addu	v0,v1,v0
  40243c:	8fa30150 	lw	v1,336(sp)
  402440:	00000000 	nop
  402444:	ac430000 	sw	v1,0(v0)
  402448:	8f82800c 	lw	v0,-32756(gp)
  40244c:	00000000 	nop
  402450:	24420003 	addiu	v0,v0,3
  402454:	af82800c 	sw	v0,-32756(gp)
  402458:	8f828008 	lw	v0,-32760(gp)
  40245c:	00000000 	nop
  402460:	28420004 	slti	v0,v0,4
  402464:	14400051 	bnez	v0,4025ac <main+0x2594>
  402468:	00000000 	nop
  40246c:	8f82800c 	lw	v0,-32756(gp)
  402470:	00000000 	nop
  402474:	24420003 	addiu	v0,v0,3
  402478:	28420007 	slti	v0,v0,7
  40247c:	1040004b 	beqz	v0,4025ac <main+0x2594>
  402480:	00000000 	nop
  402484:	3c020041 	lui	v0,0x41
  402488:	2442bc44 	addiu	v0,v0,-17340
  40248c:	8c430008 	lw	v1,8(v0)
  402490:	3c020041 	lui	v0,0x41
  402494:	8c42bc44 	lw	v0,-17340(v0)
  402498:	00000000 	nop
  40249c:	14620043 	bne	v1,v0,4025ac <main+0x2594>
  4024a0:	00000000 	nop
  4024a4:	3c020041 	lui	v0,0x41
  4024a8:	2442bc44 	addiu	v0,v0,-17340
  4024ac:	8c430008 	lw	v1,8(v0)
  4024b0:	3c020041 	lui	v0,0x41
  4024b4:	2442bc44 	addiu	v0,v0,-17340
  4024b8:	8c420004 	lw	v0,4(v0)
  4024bc:	00000000 	nop
  4024c0:	1462003a 	bne	v1,v0,4025ac <main+0x2594>
  4024c4:	00000000 	nop
  4024c8:	3c020041 	lui	v0,0x41
  4024cc:	2442bc44 	addiu	v0,v0,-17340
  4024d0:	8c42000c 	lw	v0,12(v0)
  4024d4:	00000000 	nop
  4024d8:	afa20154 	sw	v0,340(sp)
  4024dc:	3c020041 	lui	v0,0x41
  4024e0:	2442bc44 	addiu	v0,v0,-17340
  4024e4:	8c420008 	lw	v0,8(v0)
  4024e8:	00000000 	nop
  4024ec:	afa20158 	sw	v0,344(sp)
  4024f0:	8fa30158 	lw	v1,344(sp)
  4024f4:	8fa20154 	lw	v0,340(sp)
  4024f8:	00000000 	nop
  4024fc:	0043102a 	slt	v0,v0,v1
  402500:	1040002a 	beqz	v0,4025ac <main+0x2594>
  402504:	00000000 	nop
  402508:	8f828008 	lw	v0,-32760(gp)
  40250c:	00000000 	nop
  402510:	2442fffc 	addiu	v0,v0,-4
  402514:	af828008 	sw	v0,-32760(gp)
  402518:	8fa30154 	lw	v1,340(sp)
  40251c:	8fa20158 	lw	v0,344(sp)
  402520:	00000000 	nop
  402524:	00621021 	addu	v0,v1,v0
  402528:	afa2015c 	sw	v0,348(sp)
  40252c:	8f83800c 	lw	v1,-32756(gp)
  402530:	3c020041 	lui	v0,0x41
  402534:	00031880 	sll	v1,v1,0x2
  402538:	2442bc20 	addiu	v0,v0,-17376
  40253c:	00621021 	addu	v0,v1,v0
  402540:	8fa30154 	lw	v1,340(sp)
  402544:	00000000 	nop
  402548:	ac430000 	sw	v1,0(v0)
  40254c:	8f82800c 	lw	v0,-32756(gp)
  402550:	00000000 	nop
  402554:	24430001 	addiu	v1,v0,1
  402558:	3c020041 	lui	v0,0x41
  40255c:	00031880 	sll	v1,v1,0x2
  402560:	2442bc20 	addiu	v0,v0,-17376
  402564:	00621021 	addu	v0,v1,v0
  402568:	8fa30158 	lw	v1,344(sp)
  40256c:	00000000 	nop
  402570:	ac430000 	sw	v1,0(v0)
  402574:	8f82800c 	lw	v0,-32756(gp)
  402578:	00000000 	nop
  40257c:	24430002 	addiu	v1,v0,2
  402580:	3c020041 	lui	v0,0x41
  402584:	00031880 	sll	v1,v1,0x2
  402588:	2442bc20 	addiu	v0,v0,-17376
  40258c:	00621021 	addu	v0,v1,v0
  402590:	8fa3015c 	lw	v1,348(sp)
  402594:	00000000 	nop
  402598:	ac430000 	sw	v1,0(v0)
  40259c:	8f82800c 	lw	v0,-32756(gp)
  4025a0:	00000000 	nop
  4025a4:	24420003 	addiu	v0,v0,3
  4025a8:	af82800c 	sw	v0,-32756(gp)
  4025ac:	8f828008 	lw	v0,-32760(gp)
  4025b0:	00000000 	nop
  4025b4:	28420004 	slti	v0,v0,4
  4025b8:	14400051 	bnez	v0,402700 <main+0x26e8>
  4025bc:	00000000 	nop
  4025c0:	8f82800c 	lw	v0,-32756(gp)
  4025c4:	00000000 	nop
  4025c8:	24420003 	addiu	v0,v0,3
  4025cc:	28420007 	slti	v0,v0,7
  4025d0:	1040004b 	beqz	v0,402700 <main+0x26e8>
  4025d4:	00000000 	nop
  4025d8:	3c020041 	lui	v0,0x41
  4025dc:	2442bc44 	addiu	v0,v0,-17340
  4025e0:	8c430008 	lw	v1,8(v0)
  4025e4:	3c020041 	lui	v0,0x41
  4025e8:	2442bc44 	addiu	v0,v0,-17340
  4025ec:	8c420004 	lw	v0,4(v0)
  4025f0:	00000000 	nop
  4025f4:	14620042 	bne	v1,v0,402700 <main+0x26e8>
  4025f8:	00000000 	nop
  4025fc:	3c020041 	lui	v0,0x41
  402600:	2442bc44 	addiu	v0,v0,-17340
  402604:	8c430008 	lw	v1,8(v0)
  402608:	3c020041 	lui	v0,0x41
  40260c:	8c42bc44 	lw	v0,-17340(v0)
  402610:	00000000 	nop
  402614:	1462003a 	bne	v1,v0,402700 <main+0x26e8>
  402618:	00000000 	nop
  40261c:	3c020041 	lui	v0,0x41
  402620:	2442bc44 	addiu	v0,v0,-17340
  402624:	8c42000c 	lw	v0,12(v0)
  402628:	00000000 	nop
  40262c:	afa20160 	sw	v0,352(sp)
  402630:	3c020041 	lui	v0,0x41
  402634:	2442bc44 	addiu	v0,v0,-17340
  402638:	8c420008 	lw	v0,8(v0)
  40263c:	00000000 	nop
  402640:	afa20164 	sw	v0,356(sp)
  402644:	8fa30164 	lw	v1,356(sp)
  402648:	8fa20160 	lw	v0,352(sp)
  40264c:	00000000 	nop
  402650:	0043102a 	slt	v0,v0,v1
  402654:	1040002a 	beqz	v0,402700 <main+0x26e8>
  402658:	00000000 	nop
  40265c:	8f828008 	lw	v0,-32760(gp)
  402660:	00000000 	nop
  402664:	2442fffc 	addiu	v0,v0,-4
  402668:	af828008 	sw	v0,-32760(gp)
  40266c:	8fa30160 	lw	v1,352(sp)
  402670:	8fa20164 	lw	v0,356(sp)
  402674:	00000000 	nop
  402678:	00621021 	addu	v0,v1,v0
  40267c:	afa20168 	sw	v0,360(sp)
  402680:	8f83800c 	lw	v1,-32756(gp)
  402684:	3c020041 	lui	v0,0x41
  402688:	00031880 	sll	v1,v1,0x2
  40268c:	2442bc20 	addiu	v0,v0,-17376
  402690:	00621021 	addu	v0,v1,v0
  402694:	8fa30160 	lw	v1,352(sp)
  402698:	00000000 	nop
  40269c:	ac430000 	sw	v1,0(v0)
  4026a0:	8f82800c 	lw	v0,-32756(gp)
  4026a4:	00000000 	nop
  4026a8:	24430001 	addiu	v1,v0,1
  4026ac:	3c020041 	lui	v0,0x41
  4026b0:	00031880 	sll	v1,v1,0x2
  4026b4:	2442bc20 	addiu	v0,v0,-17376
  4026b8:	00621021 	addu	v0,v1,v0
  4026bc:	8fa30164 	lw	v1,356(sp)
  4026c0:	00000000 	nop
  4026c4:	ac430000 	sw	v1,0(v0)
  4026c8:	8f82800c 	lw	v0,-32756(gp)
  4026cc:	00000000 	nop
  4026d0:	24430002 	addiu	v1,v0,2
  4026d4:	3c020041 	lui	v0,0x41
  4026d8:	00031880 	sll	v1,v1,0x2
  4026dc:	2442bc20 	addiu	v0,v0,-17376
  4026e0:	00621021 	addu	v0,v1,v0
  4026e4:	8fa30168 	lw	v1,360(sp)
  4026e8:	00000000 	nop
  4026ec:	ac430000 	sw	v1,0(v0)
  4026f0:	8f82800c 	lw	v0,-32756(gp)
  4026f4:	00000000 	nop
  4026f8:	24420003 	addiu	v0,v0,3
  4026fc:	af82800c 	sw	v0,-32756(gp)
  402700:	8f828008 	lw	v0,-32760(gp)
  402704:	00000000 	nop
  402708:	28420005 	slti	v0,v0,5
  40270c:	14400056 	bnez	v0,402868 <main+0x2850>
  402710:	00000000 	nop
  402714:	8f82800c 	lw	v0,-32756(gp)
  402718:	00000000 	nop
  40271c:	24420003 	addiu	v0,v0,3
  402720:	28420007 	slti	v0,v0,7
  402724:	10400050 	beqz	v0,402868 <main+0x2850>
  402728:	00000000 	nop
  40272c:	3c020041 	lui	v0,0x41
  402730:	2442bc44 	addiu	v0,v0,-17340
  402734:	8c430004 	lw	v1,4(v0)
  402738:	3c020041 	lui	v0,0x41
  40273c:	2442bc44 	addiu	v0,v0,-17340
  402740:	8c420008 	lw	v0,8(v0)
  402744:	00000000 	nop
  402748:	14620047 	bne	v1,v0,402868 <main+0x2850>
  40274c:	00000000 	nop
  402750:	3c020041 	lui	v0,0x41
  402754:	2442bc44 	addiu	v0,v0,-17340
  402758:	8c430004 	lw	v1,4(v0)
  40275c:	3c020041 	lui	v0,0x41
  402760:	2442bc44 	addiu	v0,v0,-17340
  402764:	8c420010 	lw	v0,16(v0)
  402768:	00000000 	nop
  40276c:	1462003e 	bne	v1,v0,402868 <main+0x2850>
  402770:	00000000 	nop
  402774:	3c020041 	lui	v0,0x41
  402778:	8c42bc44 	lw	v0,-17340(v0)
  40277c:	00000000 	nop
  402780:	afa2016c 	sw	v0,364(sp)
  402784:	3c020041 	lui	v0,0x41
  402788:	2442bc44 	addiu	v0,v0,-17340
  40278c:	8c420004 	lw	v0,4(v0)
  402790:	00000000 	nop
  402794:	afa20170 	sw	v0,368(sp)
  402798:	8fa30170 	lw	v1,368(sp)
  40279c:	8fa2016c 	lw	v0,364(sp)
  4027a0:	00000000 	nop
  4027a4:	0043102a 	slt	v0,v0,v1
  4027a8:	1040002f 	beqz	v0,402868 <main+0x2850>
  4027ac:	00000000 	nop
  4027b0:	3c020041 	lui	v0,0x41
  4027b4:	2442bc44 	addiu	v0,v0,-17340
  4027b8:	8c43000c 	lw	v1,12(v0)
  4027bc:	3c020041 	lui	v0,0x41
  4027c0:	ac43bc44 	sw	v1,-17340(v0)
  4027c4:	8f828008 	lw	v0,-32760(gp)
  4027c8:	00000000 	nop
  4027cc:	2442fffc 	addiu	v0,v0,-4
  4027d0:	af828008 	sw	v0,-32760(gp)
  4027d4:	8fa3016c 	lw	v1,364(sp)
  4027d8:	8fa20170 	lw	v0,368(sp)
  4027dc:	00000000 	nop
  4027e0:	00621021 	addu	v0,v1,v0
  4027e4:	afa20174 	sw	v0,372(sp)
  4027e8:	8f83800c 	lw	v1,-32756(gp)
  4027ec:	3c020041 	lui	v0,0x41
  4027f0:	00031880 	sll	v1,v1,0x2
  4027f4:	2442bc20 	addiu	v0,v0,-17376
  4027f8:	00621021 	addu	v0,v1,v0
  4027fc:	8fa3016c 	lw	v1,364(sp)
  402800:	00000000 	nop
  402804:	ac430000 	sw	v1,0(v0)
  402808:	8f82800c 	lw	v0,-32756(gp)
  40280c:	00000000 	nop
  402810:	24430001 	addiu	v1,v0,1
  402814:	3c020041 	lui	v0,0x41
  402818:	00031880 	sll	v1,v1,0x2
  40281c:	2442bc20 	addiu	v0,v0,-17376
  402820:	00621021 	addu	v0,v1,v0
  402824:	8fa30170 	lw	v1,368(sp)
  402828:	00000000 	nop
  40282c:	ac430000 	sw	v1,0(v0)
  402830:	8f82800c 	lw	v0,-32756(gp)
  402834:	00000000 	nop
  402838:	24430002 	addiu	v1,v0,2
  40283c:	3c020041 	lui	v0,0x41
  402840:	00031880 	sll	v1,v1,0x2
  402844:	2442bc20 	addiu	v0,v0,-17376
  402848:	00621021 	addu	v0,v1,v0
  40284c:	8fa30174 	lw	v1,372(sp)
  402850:	00000000 	nop
  402854:	ac430000 	sw	v1,0(v0)
  402858:	8f82800c 	lw	v0,-32756(gp)
  40285c:	00000000 	nop
  402860:	24420003 	addiu	v0,v0,3
  402864:	af82800c 	sw	v0,-32756(gp)
  402868:	8f828008 	lw	v0,-32760(gp)
  40286c:	00000000 	nop
  402870:	28420005 	slti	v0,v0,5
  402874:	14400056 	bnez	v0,4029d0 <main+0x29b8>
  402878:	00000000 	nop
  40287c:	8f82800c 	lw	v0,-32756(gp)
  402880:	00000000 	nop
  402884:	24420003 	addiu	v0,v0,3
  402888:	28420007 	slti	v0,v0,7
  40288c:	10400050 	beqz	v0,4029d0 <main+0x29b8>
  402890:	00000000 	nop
  402894:	3c020041 	lui	v0,0x41
  402898:	2442bc44 	addiu	v0,v0,-17340
  40289c:	8c430004 	lw	v1,4(v0)
  4028a0:	3c020041 	lui	v0,0x41
  4028a4:	2442bc44 	addiu	v0,v0,-17340
  4028a8:	8c42000c 	lw	v0,12(v0)
  4028ac:	00000000 	nop
  4028b0:	14620047 	bne	v1,v0,4029d0 <main+0x29b8>
  4028b4:	00000000 	nop
  4028b8:	3c020041 	lui	v0,0x41
  4028bc:	2442bc44 	addiu	v0,v0,-17340
  4028c0:	8c430004 	lw	v1,4(v0)
  4028c4:	3c020041 	lui	v0,0x41
  4028c8:	2442bc44 	addiu	v0,v0,-17340
  4028cc:	8c420010 	lw	v0,16(v0)
  4028d0:	00000000 	nop
  4028d4:	1462003e 	bne	v1,v0,4029d0 <main+0x29b8>
  4028d8:	00000000 	nop
  4028dc:	3c020041 	lui	v0,0x41
  4028e0:	8c42bc44 	lw	v0,-17340(v0)
  4028e4:	00000000 	nop
  4028e8:	afa20178 	sw	v0,376(sp)
  4028ec:	3c020041 	lui	v0,0x41
  4028f0:	2442bc44 	addiu	v0,v0,-17340
  4028f4:	8c420004 	lw	v0,4(v0)
  4028f8:	00000000 	nop
  4028fc:	afa2017c 	sw	v0,380(sp)
  402900:	8fa3017c 	lw	v1,380(sp)
  402904:	8fa20178 	lw	v0,376(sp)
  402908:	00000000 	nop
  40290c:	0043102a 	slt	v0,v0,v1
  402910:	1040002f 	beqz	v0,4029d0 <main+0x29b8>
  402914:	00000000 	nop
  402918:	3c020041 	lui	v0,0x41
  40291c:	2442bc44 	addiu	v0,v0,-17340
  402920:	8c430008 	lw	v1,8(v0)
  402924:	3c020041 	lui	v0,0x41
  402928:	ac43bc44 	sw	v1,-17340(v0)
  40292c:	8f828008 	lw	v0,-32760(gp)
  402930:	00000000 	nop
  402934:	2442fffc 	addiu	v0,v0,-4
  402938:	af828008 	sw	v0,-32760(gp)
  40293c:	8fa30178 	lw	v1,376(sp)
  402940:	8fa2017c 	lw	v0,380(sp)
  402944:	00000000 	nop
  402948:	00621021 	addu	v0,v1,v0
  40294c:	afa20180 	sw	v0,384(sp)
  402950:	8f83800c 	lw	v1,-32756(gp)
  402954:	3c020041 	lui	v0,0x41
  402958:	00031880 	sll	v1,v1,0x2
  40295c:	2442bc20 	addiu	v0,v0,-17376
  402960:	00621021 	addu	v0,v1,v0
  402964:	8fa30178 	lw	v1,376(sp)
  402968:	00000000 	nop
  40296c:	ac430000 	sw	v1,0(v0)
  402970:	8f82800c 	lw	v0,-32756(gp)
  402974:	00000000 	nop
  402978:	24430001 	addiu	v1,v0,1
  40297c:	3c020041 	lui	v0,0x41
  402980:	00031880 	sll	v1,v1,0x2
  402984:	2442bc20 	addiu	v0,v0,-17376
  402988:	00621021 	addu	v0,v1,v0
  40298c:	8fa3017c 	lw	v1,380(sp)
  402990:	00000000 	nop
  402994:	ac430000 	sw	v1,0(v0)
  402998:	8f82800c 	lw	v0,-32756(gp)
  40299c:	00000000 	nop
  4029a0:	24430002 	addiu	v1,v0,2
  4029a4:	3c020041 	lui	v0,0x41
  4029a8:	00031880 	sll	v1,v1,0x2
  4029ac:	2442bc20 	addiu	v0,v0,-17376
  4029b0:	00621021 	addu	v0,v1,v0
  4029b4:	8fa30180 	lw	v1,384(sp)
  4029b8:	00000000 	nop
  4029bc:	ac430000 	sw	v1,0(v0)
  4029c0:	8f82800c 	lw	v0,-32756(gp)
  4029c4:	00000000 	nop
  4029c8:	24420003 	addiu	v0,v0,3
  4029cc:	af82800c 	sw	v0,-32756(gp)
  4029d0:	8f828008 	lw	v0,-32760(gp)
  4029d4:	00000000 	nop
  4029d8:	28420005 	slti	v0,v0,5
  4029dc:	14400056 	bnez	v0,402b38 <main+0x2b20>
  4029e0:	00000000 	nop
  4029e4:	8f82800c 	lw	v0,-32756(gp)
  4029e8:	00000000 	nop
  4029ec:	24420003 	addiu	v0,v0,3
  4029f0:	28420007 	slti	v0,v0,7
  4029f4:	10400050 	beqz	v0,402b38 <main+0x2b20>
  4029f8:	00000000 	nop
  4029fc:	3c020041 	lui	v0,0x41
  402a00:	2442bc44 	addiu	v0,v0,-17340
  402a04:	8c430004 	lw	v1,4(v0)
  402a08:	3c020041 	lui	v0,0x41
  402a0c:	2442bc44 	addiu	v0,v0,-17340
  402a10:	8c420010 	lw	v0,16(v0)
  402a14:	00000000 	nop
  402a18:	14620047 	bne	v1,v0,402b38 <main+0x2b20>
  402a1c:	00000000 	nop
  402a20:	3c020041 	lui	v0,0x41
  402a24:	2442bc44 	addiu	v0,v0,-17340
  402a28:	8c430004 	lw	v1,4(v0)
  402a2c:	3c020041 	lui	v0,0x41
  402a30:	2442bc44 	addiu	v0,v0,-17340
  402a34:	8c420008 	lw	v0,8(v0)
  402a38:	00000000 	nop
  402a3c:	1462003e 	bne	v1,v0,402b38 <main+0x2b20>
  402a40:	00000000 	nop
  402a44:	3c020041 	lui	v0,0x41
  402a48:	8c42bc44 	lw	v0,-17340(v0)
  402a4c:	00000000 	nop
  402a50:	afa20184 	sw	v0,388(sp)
  402a54:	3c020041 	lui	v0,0x41
  402a58:	2442bc44 	addiu	v0,v0,-17340
  402a5c:	8c420004 	lw	v0,4(v0)
  402a60:	00000000 	nop
  402a64:	afa20188 	sw	v0,392(sp)
  402a68:	8fa30188 	lw	v1,392(sp)
  402a6c:	8fa20184 	lw	v0,388(sp)
  402a70:	00000000 	nop
  402a74:	0043102a 	slt	v0,v0,v1
  402a78:	1040002f 	beqz	v0,402b38 <main+0x2b20>
  402a7c:	00000000 	nop
  402a80:	3c020041 	lui	v0,0x41
  402a84:	2442bc44 	addiu	v0,v0,-17340
  402a88:	8c43000c 	lw	v1,12(v0)
  402a8c:	3c020041 	lui	v0,0x41
  402a90:	ac43bc44 	sw	v1,-17340(v0)
  402a94:	8f828008 	lw	v0,-32760(gp)
  402a98:	00000000 	nop
  402a9c:	2442fffc 	addiu	v0,v0,-4
  402aa0:	af828008 	sw	v0,-32760(gp)
  402aa4:	8fa30184 	lw	v1,388(sp)
  402aa8:	8fa20188 	lw	v0,392(sp)
  402aac:	00000000 	nop
  402ab0:	00621021 	addu	v0,v1,v0
  402ab4:	afa2018c 	sw	v0,396(sp)
  402ab8:	8f83800c 	lw	v1,-32756(gp)
  402abc:	3c020041 	lui	v0,0x41
  402ac0:	00031880 	sll	v1,v1,0x2
  402ac4:	2442bc20 	addiu	v0,v0,-17376
  402ac8:	00621021 	addu	v0,v1,v0
  402acc:	8fa30184 	lw	v1,388(sp)
  402ad0:	00000000 	nop
  402ad4:	ac430000 	sw	v1,0(v0)
  402ad8:	8f82800c 	lw	v0,-32756(gp)
  402adc:	00000000 	nop
  402ae0:	24430001 	addiu	v1,v0,1
  402ae4:	3c020041 	lui	v0,0x41
  402ae8:	00031880 	sll	v1,v1,0x2
  402aec:	2442bc20 	addiu	v0,v0,-17376
  402af0:	00621021 	addu	v0,v1,v0
  402af4:	8fa30188 	lw	v1,392(sp)
  402af8:	00000000 	nop
  402afc:	ac430000 	sw	v1,0(v0)
  402b00:	8f82800c 	lw	v0,-32756(gp)
  402b04:	00000000 	nop
  402b08:	24430002 	addiu	v1,v0,2
  402b0c:	3c020041 	lui	v0,0x41
  402b10:	00031880 	sll	v1,v1,0x2
  402b14:	2442bc20 	addiu	v0,v0,-17376
  402b18:	00621021 	addu	v0,v1,v0
  402b1c:	8fa3018c 	lw	v1,396(sp)
  402b20:	00000000 	nop
  402b24:	ac430000 	sw	v1,0(v0)
  402b28:	8f82800c 	lw	v0,-32756(gp)
  402b2c:	00000000 	nop
  402b30:	24420003 	addiu	v0,v0,3
  402b34:	af82800c 	sw	v0,-32756(gp)
  402b38:	8f828008 	lw	v0,-32760(gp)
  402b3c:	00000000 	nop
  402b40:	28420005 	slti	v0,v0,5
  402b44:	14400056 	bnez	v0,402ca0 <main+0x2c88>
  402b48:	00000000 	nop
  402b4c:	8f82800c 	lw	v0,-32756(gp)
  402b50:	00000000 	nop
  402b54:	24420003 	addiu	v0,v0,3
  402b58:	28420007 	slti	v0,v0,7
  402b5c:	10400050 	beqz	v0,402ca0 <main+0x2c88>
  402b60:	00000000 	nop
  402b64:	3c020041 	lui	v0,0x41
  402b68:	2442bc44 	addiu	v0,v0,-17340
  402b6c:	8c430004 	lw	v1,4(v0)
  402b70:	3c020041 	lui	v0,0x41
  402b74:	2442bc44 	addiu	v0,v0,-17340
  402b78:	8c420010 	lw	v0,16(v0)
  402b7c:	00000000 	nop
  402b80:	14620047 	bne	v1,v0,402ca0 <main+0x2c88>
  402b84:	00000000 	nop
  402b88:	3c020041 	lui	v0,0x41
  402b8c:	2442bc44 	addiu	v0,v0,-17340
  402b90:	8c430004 	lw	v1,4(v0)
  402b94:	3c020041 	lui	v0,0x41
  402b98:	2442bc44 	addiu	v0,v0,-17340
  402b9c:	8c42000c 	lw	v0,12(v0)
  402ba0:	00000000 	nop
  402ba4:	1462003e 	bne	v1,v0,402ca0 <main+0x2c88>
  402ba8:	00000000 	nop
  402bac:	3c020041 	lui	v0,0x41
  402bb0:	8c42bc44 	lw	v0,-17340(v0)
  402bb4:	00000000 	nop
  402bb8:	afa20190 	sw	v0,400(sp)
  402bbc:	3c020041 	lui	v0,0x41
  402bc0:	2442bc44 	addiu	v0,v0,-17340
  402bc4:	8c420004 	lw	v0,4(v0)
  402bc8:	00000000 	nop
  402bcc:	afa20194 	sw	v0,404(sp)
  402bd0:	8fa30194 	lw	v1,404(sp)
  402bd4:	8fa20190 	lw	v0,400(sp)
  402bd8:	00000000 	nop
  402bdc:	0043102a 	slt	v0,v0,v1
  402be0:	1040002f 	beqz	v0,402ca0 <main+0x2c88>
  402be4:	00000000 	nop
  402be8:	3c020041 	lui	v0,0x41
  402bec:	2442bc44 	addiu	v0,v0,-17340
  402bf0:	8c430008 	lw	v1,8(v0)
  402bf4:	3c020041 	lui	v0,0x41
  402bf8:	ac43bc44 	sw	v1,-17340(v0)
  402bfc:	8f828008 	lw	v0,-32760(gp)
  402c00:	00000000 	nop
  402c04:	2442fffc 	addiu	v0,v0,-4
  402c08:	af828008 	sw	v0,-32760(gp)
  402c0c:	8fa30190 	lw	v1,400(sp)
  402c10:	8fa20194 	lw	v0,404(sp)
  402c14:	00000000 	nop
  402c18:	00621021 	addu	v0,v1,v0
  402c1c:	afa20198 	sw	v0,408(sp)
  402c20:	8f83800c 	lw	v1,-32756(gp)
  402c24:	3c020041 	lui	v0,0x41
  402c28:	00031880 	sll	v1,v1,0x2
  402c2c:	2442bc20 	addiu	v0,v0,-17376
  402c30:	00621021 	addu	v0,v1,v0
  402c34:	8fa30190 	lw	v1,400(sp)
  402c38:	00000000 	nop
  402c3c:	ac430000 	sw	v1,0(v0)
  402c40:	8f82800c 	lw	v0,-32756(gp)
  402c44:	00000000 	nop
  402c48:	24430001 	addiu	v1,v0,1
  402c4c:	3c020041 	lui	v0,0x41
  402c50:	00031880 	sll	v1,v1,0x2
  402c54:	2442bc20 	addiu	v0,v0,-17376
  402c58:	00621021 	addu	v0,v1,v0
  402c5c:	8fa30194 	lw	v1,404(sp)
  402c60:	00000000 	nop
  402c64:	ac430000 	sw	v1,0(v0)
  402c68:	8f82800c 	lw	v0,-32756(gp)
  402c6c:	00000000 	nop
  402c70:	24430002 	addiu	v1,v0,2
  402c74:	3c020041 	lui	v0,0x41
  402c78:	00031880 	sll	v1,v1,0x2
  402c7c:	2442bc20 	addiu	v0,v0,-17376
  402c80:	00621021 	addu	v0,v1,v0
  402c84:	8fa30198 	lw	v1,408(sp)
  402c88:	00000000 	nop
  402c8c:	ac430000 	sw	v1,0(v0)
  402c90:	8f82800c 	lw	v0,-32756(gp)
  402c94:	00000000 	nop
  402c98:	24420003 	addiu	v0,v0,3
  402c9c:	af82800c 	sw	v0,-32756(gp)
  402ca0:	8f828008 	lw	v0,-32760(gp)
  402ca4:	00000000 	nop
  402ca8:	28420005 	slti	v0,v0,5
  402cac:	14400056 	bnez	v0,402e08 <main+0x2df0>
  402cb0:	00000000 	nop
  402cb4:	8f82800c 	lw	v0,-32756(gp)
  402cb8:	00000000 	nop
  402cbc:	24420003 	addiu	v0,v0,3
  402cc0:	28420007 	slti	v0,v0,7
  402cc4:	10400050 	beqz	v0,402e08 <main+0x2df0>
  402cc8:	00000000 	nop
  402ccc:	3c020041 	lui	v0,0x41
  402cd0:	2442bc44 	addiu	v0,v0,-17340
  402cd4:	8c430008 	lw	v1,8(v0)
  402cd8:	3c020041 	lui	v0,0x41
  402cdc:	2442bc44 	addiu	v0,v0,-17340
  402ce0:	8c420004 	lw	v0,4(v0)
  402ce4:	00000000 	nop
  402ce8:	14620047 	bne	v1,v0,402e08 <main+0x2df0>
  402cec:	00000000 	nop
  402cf0:	3c020041 	lui	v0,0x41
  402cf4:	2442bc44 	addiu	v0,v0,-17340
  402cf8:	8c430008 	lw	v1,8(v0)
  402cfc:	3c020041 	lui	v0,0x41
  402d00:	2442bc44 	addiu	v0,v0,-17340
  402d04:	8c420010 	lw	v0,16(v0)
  402d08:	00000000 	nop
  402d0c:	1462003e 	bne	v1,v0,402e08 <main+0x2df0>
  402d10:	00000000 	nop
  402d14:	3c020041 	lui	v0,0x41
  402d18:	8c42bc44 	lw	v0,-17340(v0)
  402d1c:	00000000 	nop
  402d20:	afa2019c 	sw	v0,412(sp)
  402d24:	3c020041 	lui	v0,0x41
  402d28:	2442bc44 	addiu	v0,v0,-17340
  402d2c:	8c420008 	lw	v0,8(v0)
  402d30:	00000000 	nop
  402d34:	afa201a0 	sw	v0,416(sp)
  402d38:	8fa301a0 	lw	v1,416(sp)
  402d3c:	8fa2019c 	lw	v0,412(sp)
  402d40:	00000000 	nop
  402d44:	0043102a 	slt	v0,v0,v1
  402d48:	1040002f 	beqz	v0,402e08 <main+0x2df0>
  402d4c:	00000000 	nop
  402d50:	3c020041 	lui	v0,0x41
  402d54:	2442bc44 	addiu	v0,v0,-17340
  402d58:	8c43000c 	lw	v1,12(v0)
  402d5c:	3c020041 	lui	v0,0x41
  402d60:	ac43bc44 	sw	v1,-17340(v0)
  402d64:	8f828008 	lw	v0,-32760(gp)
  402d68:	00000000 	nop
  402d6c:	2442fffc 	addiu	v0,v0,-4
  402d70:	af828008 	sw	v0,-32760(gp)
  402d74:	8fa3019c 	lw	v1,412(sp)
  402d78:	8fa201a0 	lw	v0,416(sp)
  402d7c:	00000000 	nop
  402d80:	00621021 	addu	v0,v1,v0
  402d84:	afa201a4 	sw	v0,420(sp)
  402d88:	8f83800c 	lw	v1,-32756(gp)
  402d8c:	3c020041 	lui	v0,0x41
  402d90:	00031880 	sll	v1,v1,0x2
  402d94:	2442bc20 	addiu	v0,v0,-17376
  402d98:	00621021 	addu	v0,v1,v0
  402d9c:	8fa3019c 	lw	v1,412(sp)
  402da0:	00000000 	nop
  402da4:	ac430000 	sw	v1,0(v0)
  402da8:	8f82800c 	lw	v0,-32756(gp)
  402dac:	00000000 	nop
  402db0:	24430001 	addiu	v1,v0,1
  402db4:	3c020041 	lui	v0,0x41
  402db8:	00031880 	sll	v1,v1,0x2
  402dbc:	2442bc20 	addiu	v0,v0,-17376
  402dc0:	00621021 	addu	v0,v1,v0
  402dc4:	8fa301a0 	lw	v1,416(sp)
  402dc8:	00000000 	nop
  402dcc:	ac430000 	sw	v1,0(v0)
  402dd0:	8f82800c 	lw	v0,-32756(gp)
  402dd4:	00000000 	nop
  402dd8:	24430002 	addiu	v1,v0,2
  402ddc:	3c020041 	lui	v0,0x41
  402de0:	00031880 	sll	v1,v1,0x2
  402de4:	2442bc20 	addiu	v0,v0,-17376
  402de8:	00621021 	addu	v0,v1,v0
  402dec:	8fa301a4 	lw	v1,420(sp)
  402df0:	00000000 	nop
  402df4:	ac430000 	sw	v1,0(v0)
  402df8:	8f82800c 	lw	v0,-32756(gp)
  402dfc:	00000000 	nop
  402e00:	24420003 	addiu	v0,v0,3
  402e04:	af82800c 	sw	v0,-32756(gp)
  402e08:	8f828008 	lw	v0,-32760(gp)
  402e0c:	00000000 	nop
  402e10:	28420005 	slti	v0,v0,5
  402e14:	14400056 	bnez	v0,402f70 <main+0x2f58>
  402e18:	00000000 	nop
  402e1c:	8f82800c 	lw	v0,-32756(gp)
  402e20:	00000000 	nop
  402e24:	24420003 	addiu	v0,v0,3
  402e28:	28420007 	slti	v0,v0,7
  402e2c:	10400050 	beqz	v0,402f70 <main+0x2f58>
  402e30:	00000000 	nop
  402e34:	3c020041 	lui	v0,0x41
  402e38:	2442bc44 	addiu	v0,v0,-17340
  402e3c:	8c430008 	lw	v1,8(v0)
  402e40:	3c020041 	lui	v0,0x41
  402e44:	2442bc44 	addiu	v0,v0,-17340
  402e48:	8c42000c 	lw	v0,12(v0)
  402e4c:	00000000 	nop
  402e50:	14620047 	bne	v1,v0,402f70 <main+0x2f58>
  402e54:	00000000 	nop
  402e58:	3c020041 	lui	v0,0x41
  402e5c:	2442bc44 	addiu	v0,v0,-17340
  402e60:	8c430008 	lw	v1,8(v0)
  402e64:	3c020041 	lui	v0,0x41
  402e68:	2442bc44 	addiu	v0,v0,-17340
  402e6c:	8c420010 	lw	v0,16(v0)
  402e70:	00000000 	nop
  402e74:	1462003e 	bne	v1,v0,402f70 <main+0x2f58>
  402e78:	00000000 	nop
  402e7c:	3c020041 	lui	v0,0x41
  402e80:	8c42bc44 	lw	v0,-17340(v0)
  402e84:	00000000 	nop
  402e88:	afa201a8 	sw	v0,424(sp)
  402e8c:	3c020041 	lui	v0,0x41
  402e90:	2442bc44 	addiu	v0,v0,-17340
  402e94:	8c420008 	lw	v0,8(v0)
  402e98:	00000000 	nop
  402e9c:	afa201ac 	sw	v0,428(sp)
  402ea0:	8fa301ac 	lw	v1,428(sp)
  402ea4:	8fa201a8 	lw	v0,424(sp)
  402ea8:	00000000 	nop
  402eac:	0043102a 	slt	v0,v0,v1
  402eb0:	1040002f 	beqz	v0,402f70 <main+0x2f58>
  402eb4:	00000000 	nop
  402eb8:	3c020041 	lui	v0,0x41
  402ebc:	2442bc44 	addiu	v0,v0,-17340
  402ec0:	8c430004 	lw	v1,4(v0)
  402ec4:	3c020041 	lui	v0,0x41
  402ec8:	ac43bc44 	sw	v1,-17340(v0)
  402ecc:	8f828008 	lw	v0,-32760(gp)
  402ed0:	00000000 	nop
  402ed4:	2442fffc 	addiu	v0,v0,-4
  402ed8:	af828008 	sw	v0,-32760(gp)
  402edc:	8fa301a8 	lw	v1,424(sp)
  402ee0:	8fa201ac 	lw	v0,428(sp)
  402ee4:	00000000 	nop
  402ee8:	00621021 	addu	v0,v1,v0
  402eec:	afa201b0 	sw	v0,432(sp)
  402ef0:	8f83800c 	lw	v1,-32756(gp)
  402ef4:	3c020041 	lui	v0,0x41
  402ef8:	00031880 	sll	v1,v1,0x2
  402efc:	2442bc20 	addiu	v0,v0,-17376
  402f00:	00621021 	addu	v0,v1,v0
  402f04:	8fa301a8 	lw	v1,424(sp)
  402f08:	00000000 	nop
  402f0c:	ac430000 	sw	v1,0(v0)
  402f10:	8f82800c 	lw	v0,-32756(gp)
  402f14:	00000000 	nop
  402f18:	24430001 	addiu	v1,v0,1
  402f1c:	3c020041 	lui	v0,0x41
  402f20:	00031880 	sll	v1,v1,0x2
  402f24:	2442bc20 	addiu	v0,v0,-17376
  402f28:	00621021 	addu	v0,v1,v0
  402f2c:	8fa301ac 	lw	v1,428(sp)
  402f30:	00000000 	nop
  402f34:	ac430000 	sw	v1,0(v0)
  402f38:	8f82800c 	lw	v0,-32756(gp)
  402f3c:	00000000 	nop
  402f40:	24430002 	addiu	v1,v0,2
  402f44:	3c020041 	lui	v0,0x41
  402f48:	00031880 	sll	v1,v1,0x2
  402f4c:	2442bc20 	addiu	v0,v0,-17376
  402f50:	00621021 	addu	v0,v1,v0
  402f54:	8fa301b0 	lw	v1,432(sp)
  402f58:	00000000 	nop
  402f5c:	ac430000 	sw	v1,0(v0)
  402f60:	8f82800c 	lw	v0,-32756(gp)
  402f64:	00000000 	nop
  402f68:	24420003 	addiu	v0,v0,3
  402f6c:	af82800c 	sw	v0,-32756(gp)
  402f70:	8f828008 	lw	v0,-32760(gp)
  402f74:	00000000 	nop
  402f78:	28420005 	slti	v0,v0,5
  402f7c:	14400056 	bnez	v0,4030d8 <main+0x30c0>
  402f80:	00000000 	nop
  402f84:	8f82800c 	lw	v0,-32756(gp)
  402f88:	00000000 	nop
  402f8c:	24420003 	addiu	v0,v0,3
  402f90:	28420007 	slti	v0,v0,7
  402f94:	10400050 	beqz	v0,4030d8 <main+0x30c0>
  402f98:	00000000 	nop
  402f9c:	3c020041 	lui	v0,0x41
  402fa0:	2442bc44 	addiu	v0,v0,-17340
  402fa4:	8c430008 	lw	v1,8(v0)
  402fa8:	3c020041 	lui	v0,0x41
  402fac:	2442bc44 	addiu	v0,v0,-17340
  402fb0:	8c420010 	lw	v0,16(v0)
  402fb4:	00000000 	nop
  402fb8:	14620047 	bne	v1,v0,4030d8 <main+0x30c0>
  402fbc:	00000000 	nop
  402fc0:	3c020041 	lui	v0,0x41
  402fc4:	2442bc44 	addiu	v0,v0,-17340
  402fc8:	8c430008 	lw	v1,8(v0)
  402fcc:	3c020041 	lui	v0,0x41
  402fd0:	2442bc44 	addiu	v0,v0,-17340
  402fd4:	8c420004 	lw	v0,4(v0)
  402fd8:	00000000 	nop
  402fdc:	1462003e 	bne	v1,v0,4030d8 <main+0x30c0>
  402fe0:	00000000 	nop
  402fe4:	3c020041 	lui	v0,0x41
  402fe8:	8c42bc44 	lw	v0,-17340(v0)
  402fec:	00000000 	nop
  402ff0:	afa201b4 	sw	v0,436(sp)
  402ff4:	3c020041 	lui	v0,0x41
  402ff8:	2442bc44 	addiu	v0,v0,-17340
  402ffc:	8c420008 	lw	v0,8(v0)
  403000:	00000000 	nop
  403004:	afa201b8 	sw	v0,440(sp)
  403008:	8fa301b8 	lw	v1,440(sp)
  40300c:	8fa201b4 	lw	v0,436(sp)
  403010:	00000000 	nop
  403014:	0043102a 	slt	v0,v0,v1
  403018:	1040002f 	beqz	v0,4030d8 <main+0x30c0>
  40301c:	00000000 	nop
  403020:	3c020041 	lui	v0,0x41
  403024:	2442bc44 	addiu	v0,v0,-17340
  403028:	8c43000c 	lw	v1,12(v0)
  40302c:	3c020041 	lui	v0,0x41
  403030:	ac43bc44 	sw	v1,-17340(v0)
  403034:	8f828008 	lw	v0,-32760(gp)
  403038:	00000000 	nop
  40303c:	2442fffc 	addiu	v0,v0,-4
  403040:	af828008 	sw	v0,-32760(gp)
  403044:	8fa301b4 	lw	v1,436(sp)
  403048:	8fa201b8 	lw	v0,440(sp)
  40304c:	00000000 	nop
  403050:	00621021 	addu	v0,v1,v0
  403054:	afa201bc 	sw	v0,444(sp)
  403058:	8f83800c 	lw	v1,-32756(gp)
  40305c:	3c020041 	lui	v0,0x41
  403060:	00031880 	sll	v1,v1,0x2
  403064:	2442bc20 	addiu	v0,v0,-17376
  403068:	00621021 	addu	v0,v1,v0
  40306c:	8fa301b4 	lw	v1,436(sp)
  403070:	00000000 	nop
  403074:	ac430000 	sw	v1,0(v0)
  403078:	8f82800c 	lw	v0,-32756(gp)
  40307c:	00000000 	nop
  403080:	24430001 	addiu	v1,v0,1
  403084:	3c020041 	lui	v0,0x41
  403088:	00031880 	sll	v1,v1,0x2
  40308c:	2442bc20 	addiu	v0,v0,-17376
  403090:	00621021 	addu	v0,v1,v0
  403094:	8fa301b8 	lw	v1,440(sp)
  403098:	00000000 	nop
  40309c:	ac430000 	sw	v1,0(v0)
  4030a0:	8f82800c 	lw	v0,-32756(gp)
  4030a4:	00000000 	nop
  4030a8:	24430002 	addiu	v1,v0,2
  4030ac:	3c020041 	lui	v0,0x41
  4030b0:	00031880 	sll	v1,v1,0x2
  4030b4:	2442bc20 	addiu	v0,v0,-17376
  4030b8:	00621021 	addu	v0,v1,v0
  4030bc:	8fa301bc 	lw	v1,444(sp)
  4030c0:	00000000 	nop
  4030c4:	ac430000 	sw	v1,0(v0)
  4030c8:	8f82800c 	lw	v0,-32756(gp)
  4030cc:	00000000 	nop
  4030d0:	24420003 	addiu	v0,v0,3
  4030d4:	af82800c 	sw	v0,-32756(gp)
  4030d8:	8f828008 	lw	v0,-32760(gp)
  4030dc:	00000000 	nop
  4030e0:	28420005 	slti	v0,v0,5
  4030e4:	14400056 	bnez	v0,403240 <main+0x3228>
  4030e8:	00000000 	nop
  4030ec:	8f82800c 	lw	v0,-32756(gp)
  4030f0:	00000000 	nop
  4030f4:	24420003 	addiu	v0,v0,3
  4030f8:	28420007 	slti	v0,v0,7
  4030fc:	10400050 	beqz	v0,403240 <main+0x3228>
  403100:	00000000 	nop
  403104:	3c020041 	lui	v0,0x41
  403108:	2442bc44 	addiu	v0,v0,-17340
  40310c:	8c430008 	lw	v1,8(v0)
  403110:	3c020041 	lui	v0,0x41
  403114:	2442bc44 	addiu	v0,v0,-17340
  403118:	8c420010 	lw	v0,16(v0)
  40311c:	00000000 	nop
  403120:	14620047 	bne	v1,v0,403240 <main+0x3228>
  403124:	00000000 	nop
  403128:	3c020041 	lui	v0,0x41
  40312c:	2442bc44 	addiu	v0,v0,-17340
  403130:	8c430008 	lw	v1,8(v0)
  403134:	3c020041 	lui	v0,0x41
  403138:	2442bc44 	addiu	v0,v0,-17340
  40313c:	8c42000c 	lw	v0,12(v0)
  403140:	00000000 	nop
  403144:	1462003e 	bne	v1,v0,403240 <main+0x3228>
  403148:	00000000 	nop
  40314c:	3c020041 	lui	v0,0x41
  403150:	8c42bc44 	lw	v0,-17340(v0)
  403154:	00000000 	nop
  403158:	afa201c0 	sw	v0,448(sp)
  40315c:	3c020041 	lui	v0,0x41
  403160:	2442bc44 	addiu	v0,v0,-17340
  403164:	8c420008 	lw	v0,8(v0)
  403168:	00000000 	nop
  40316c:	afa201c4 	sw	v0,452(sp)
  403170:	8fa301c4 	lw	v1,452(sp)
  403174:	8fa201c0 	lw	v0,448(sp)
  403178:	00000000 	nop
  40317c:	0043102a 	slt	v0,v0,v1
  403180:	1040002f 	beqz	v0,403240 <main+0x3228>
  403184:	00000000 	nop
  403188:	3c020041 	lui	v0,0x41
  40318c:	2442bc44 	addiu	v0,v0,-17340
  403190:	8c430004 	lw	v1,4(v0)
  403194:	3c020041 	lui	v0,0x41
  403198:	ac43bc44 	sw	v1,-17340(v0)
  40319c:	8f828008 	lw	v0,-32760(gp)
  4031a0:	00000000 	nop
  4031a4:	2442fffc 	addiu	v0,v0,-4
  4031a8:	af828008 	sw	v0,-32760(gp)
  4031ac:	8fa301c0 	lw	v1,448(sp)
  4031b0:	8fa201c4 	lw	v0,452(sp)
  4031b4:	00000000 	nop
  4031b8:	00621021 	addu	v0,v1,v0
  4031bc:	afa201c8 	sw	v0,456(sp)
  4031c0:	8f83800c 	lw	v1,-32756(gp)
  4031c4:	3c020041 	lui	v0,0x41
  4031c8:	00031880 	sll	v1,v1,0x2
  4031cc:	2442bc20 	addiu	v0,v0,-17376
  4031d0:	00621021 	addu	v0,v1,v0
  4031d4:	8fa301c0 	lw	v1,448(sp)
  4031d8:	00000000 	nop
  4031dc:	ac430000 	sw	v1,0(v0)
  4031e0:	8f82800c 	lw	v0,-32756(gp)
  4031e4:	00000000 	nop
  4031e8:	24430001 	addiu	v1,v0,1
  4031ec:	3c020041 	lui	v0,0x41
  4031f0:	00031880 	sll	v1,v1,0x2
  4031f4:	2442bc20 	addiu	v0,v0,-17376
  4031f8:	00621021 	addu	v0,v1,v0
  4031fc:	8fa301c4 	lw	v1,452(sp)
  403200:	00000000 	nop
  403204:	ac430000 	sw	v1,0(v0)
  403208:	8f82800c 	lw	v0,-32756(gp)
  40320c:	00000000 	nop
  403210:	24430002 	addiu	v1,v0,2
  403214:	3c020041 	lui	v0,0x41
  403218:	00031880 	sll	v1,v1,0x2
  40321c:	2442bc20 	addiu	v0,v0,-17376
  403220:	00621021 	addu	v0,v1,v0
  403224:	8fa301c8 	lw	v1,456(sp)
  403228:	00000000 	nop
  40322c:	ac430000 	sw	v1,0(v0)
  403230:	8f82800c 	lw	v0,-32756(gp)
  403234:	00000000 	nop
  403238:	24420003 	addiu	v0,v0,3
  40323c:	af82800c 	sw	v0,-32756(gp)
  403240:	8f828008 	lw	v0,-32760(gp)
  403244:	00000000 	nop
  403248:	28420005 	slti	v0,v0,5
  40324c:	14400056 	bnez	v0,4033a8 <main+0x3390>
  403250:	00000000 	nop
  403254:	8f82800c 	lw	v0,-32756(gp)
  403258:	00000000 	nop
  40325c:	24420003 	addiu	v0,v0,3
  403260:	28420007 	slti	v0,v0,7
  403264:	10400050 	beqz	v0,4033a8 <main+0x3390>
  403268:	00000000 	nop
  40326c:	3c020041 	lui	v0,0x41
  403270:	2442bc44 	addiu	v0,v0,-17340
  403274:	8c43000c 	lw	v1,12(v0)
  403278:	3c020041 	lui	v0,0x41
  40327c:	2442bc44 	addiu	v0,v0,-17340
  403280:	8c420004 	lw	v0,4(v0)
  403284:	00000000 	nop
  403288:	14620047 	bne	v1,v0,4033a8 <main+0x3390>
  40328c:	00000000 	nop
  403290:	3c020041 	lui	v0,0x41
  403294:	2442bc44 	addiu	v0,v0,-17340
  403298:	8c43000c 	lw	v1,12(v0)
  40329c:	3c020041 	lui	v0,0x41
  4032a0:	2442bc44 	addiu	v0,v0,-17340
  4032a4:	8c420010 	lw	v0,16(v0)
  4032a8:	00000000 	nop
  4032ac:	1462003e 	bne	v1,v0,4033a8 <main+0x3390>
  4032b0:	00000000 	nop
  4032b4:	3c020041 	lui	v0,0x41
  4032b8:	8c42bc44 	lw	v0,-17340(v0)
  4032bc:	00000000 	nop
  4032c0:	afa201cc 	sw	v0,460(sp)
  4032c4:	3c020041 	lui	v0,0x41
  4032c8:	2442bc44 	addiu	v0,v0,-17340
  4032cc:	8c42000c 	lw	v0,12(v0)
  4032d0:	00000000 	nop
  4032d4:	afa201d0 	sw	v0,464(sp)
  4032d8:	8fa301d0 	lw	v1,464(sp)
  4032dc:	8fa201cc 	lw	v0,460(sp)
  4032e0:	00000000 	nop
  4032e4:	0043102a 	slt	v0,v0,v1
  4032e8:	1040002f 	beqz	v0,4033a8 <main+0x3390>
  4032ec:	00000000 	nop
  4032f0:	3c020041 	lui	v0,0x41
  4032f4:	2442bc44 	addiu	v0,v0,-17340
  4032f8:	8c430008 	lw	v1,8(v0)
  4032fc:	3c020041 	lui	v0,0x41
  403300:	ac43bc44 	sw	v1,-17340(v0)
  403304:	8f828008 	lw	v0,-32760(gp)
  403308:	00000000 	nop
  40330c:	2442fffc 	addiu	v0,v0,-4
  403310:	af828008 	sw	v0,-32760(gp)
  403314:	8fa301cc 	lw	v1,460(sp)
  403318:	8fa201d0 	lw	v0,464(sp)
  40331c:	00000000 	nop
  403320:	00621021 	addu	v0,v1,v0
  403324:	afa201d4 	sw	v0,468(sp)
  403328:	8f83800c 	lw	v1,-32756(gp)
  40332c:	3c020041 	lui	v0,0x41
  403330:	00031880 	sll	v1,v1,0x2
  403334:	2442bc20 	addiu	v0,v0,-17376
  403338:	00621021 	addu	v0,v1,v0
  40333c:	8fa301cc 	lw	v1,460(sp)
  403340:	00000000 	nop
  403344:	ac430000 	sw	v1,0(v0)
  403348:	8f82800c 	lw	v0,-32756(gp)
  40334c:	00000000 	nop
  403350:	24430001 	addiu	v1,v0,1
  403354:	3c020041 	lui	v0,0x41
  403358:	00031880 	sll	v1,v1,0x2
  40335c:	2442bc20 	addiu	v0,v0,-17376
  403360:	00621021 	addu	v0,v1,v0
  403364:	8fa301d0 	lw	v1,464(sp)
  403368:	00000000 	nop
  40336c:	ac430000 	sw	v1,0(v0)
  403370:	8f82800c 	lw	v0,-32756(gp)
  403374:	00000000 	nop
  403378:	24430002 	addiu	v1,v0,2
  40337c:	3c020041 	lui	v0,0x41
  403380:	00031880 	sll	v1,v1,0x2
  403384:	2442bc20 	addiu	v0,v0,-17376
  403388:	00621021 	addu	v0,v1,v0
  40338c:	8fa301d4 	lw	v1,468(sp)
  403390:	00000000 	nop
  403394:	ac430000 	sw	v1,0(v0)
  403398:	8f82800c 	lw	v0,-32756(gp)
  40339c:	00000000 	nop
  4033a0:	24420003 	addiu	v0,v0,3
  4033a4:	af82800c 	sw	v0,-32756(gp)
  4033a8:	8f828008 	lw	v0,-32760(gp)
  4033ac:	00000000 	nop
  4033b0:	28420005 	slti	v0,v0,5
  4033b4:	14400056 	bnez	v0,403510 <main+0x34f8>
  4033b8:	00000000 	nop
  4033bc:	8f82800c 	lw	v0,-32756(gp)
  4033c0:	00000000 	nop
  4033c4:	24420003 	addiu	v0,v0,3
  4033c8:	28420007 	slti	v0,v0,7
  4033cc:	10400050 	beqz	v0,403510 <main+0x34f8>
  4033d0:	00000000 	nop
  4033d4:	3c020041 	lui	v0,0x41
  4033d8:	2442bc44 	addiu	v0,v0,-17340
  4033dc:	8c43000c 	lw	v1,12(v0)
  4033e0:	3c020041 	lui	v0,0x41
  4033e4:	2442bc44 	addiu	v0,v0,-17340
  4033e8:	8c420008 	lw	v0,8(v0)
  4033ec:	00000000 	nop
  4033f0:	14620047 	bne	v1,v0,403510 <main+0x34f8>
  4033f4:	00000000 	nop
  4033f8:	3c020041 	lui	v0,0x41
  4033fc:	2442bc44 	addiu	v0,v0,-17340
  403400:	8c43000c 	lw	v1,12(v0)
  403404:	3c020041 	lui	v0,0x41
  403408:	2442bc44 	addiu	v0,v0,-17340
  40340c:	8c420010 	lw	v0,16(v0)
  403410:	00000000 	nop
  403414:	1462003e 	bne	v1,v0,403510 <main+0x34f8>
  403418:	00000000 	nop
  40341c:	3c020041 	lui	v0,0x41
  403420:	8c42bc44 	lw	v0,-17340(v0)
  403424:	00000000 	nop
  403428:	afa201d8 	sw	v0,472(sp)
  40342c:	3c020041 	lui	v0,0x41
  403430:	2442bc44 	addiu	v0,v0,-17340
  403434:	8c42000c 	lw	v0,12(v0)
  403438:	00000000 	nop
  40343c:	afa201dc 	sw	v0,476(sp)
  403440:	8fa301dc 	lw	v1,476(sp)
  403444:	8fa201d8 	lw	v0,472(sp)
  403448:	00000000 	nop
  40344c:	0043102a 	slt	v0,v0,v1
  403450:	1040002f 	beqz	v0,403510 <main+0x34f8>
  403454:	00000000 	nop
  403458:	3c020041 	lui	v0,0x41
  40345c:	2442bc44 	addiu	v0,v0,-17340
  403460:	8c430004 	lw	v1,4(v0)
  403464:	3c020041 	lui	v0,0x41
  403468:	ac43bc44 	sw	v1,-17340(v0)
  40346c:	8f828008 	lw	v0,-32760(gp)
  403470:	00000000 	nop
  403474:	2442fffc 	addiu	v0,v0,-4
  403478:	af828008 	sw	v0,-32760(gp)
  40347c:	8fa301d8 	lw	v1,472(sp)
  403480:	8fa201dc 	lw	v0,476(sp)
  403484:	00000000 	nop
  403488:	00621021 	addu	v0,v1,v0
  40348c:	afa201e0 	sw	v0,480(sp)
  403490:	8f83800c 	lw	v1,-32756(gp)
  403494:	3c020041 	lui	v0,0x41
  403498:	00031880 	sll	v1,v1,0x2
  40349c:	2442bc20 	addiu	v0,v0,-17376
  4034a0:	00621021 	addu	v0,v1,v0
  4034a4:	8fa301d8 	lw	v1,472(sp)
  4034a8:	00000000 	nop
  4034ac:	ac430000 	sw	v1,0(v0)
  4034b0:	8f82800c 	lw	v0,-32756(gp)
  4034b4:	00000000 	nop
  4034b8:	24430001 	addiu	v1,v0,1
  4034bc:	3c020041 	lui	v0,0x41
  4034c0:	00031880 	sll	v1,v1,0x2
  4034c4:	2442bc20 	addiu	v0,v0,-17376
  4034c8:	00621021 	addu	v0,v1,v0
  4034cc:	8fa301dc 	lw	v1,476(sp)
  4034d0:	00000000 	nop
  4034d4:	ac430000 	sw	v1,0(v0)
  4034d8:	8f82800c 	lw	v0,-32756(gp)
  4034dc:	00000000 	nop
  4034e0:	24430002 	addiu	v1,v0,2
  4034e4:	3c020041 	lui	v0,0x41
  4034e8:	00031880 	sll	v1,v1,0x2
  4034ec:	2442bc20 	addiu	v0,v0,-17376
  4034f0:	00621021 	addu	v0,v1,v0
  4034f4:	8fa301e0 	lw	v1,480(sp)
  4034f8:	00000000 	nop
  4034fc:	ac430000 	sw	v1,0(v0)
  403500:	8f82800c 	lw	v0,-32756(gp)
  403504:	00000000 	nop
  403508:	24420003 	addiu	v0,v0,3
  40350c:	af82800c 	sw	v0,-32756(gp)
  403510:	8f828008 	lw	v0,-32760(gp)
  403514:	00000000 	nop
  403518:	28420005 	slti	v0,v0,5
  40351c:	14400056 	bnez	v0,403678 <main+0x3660>
  403520:	00000000 	nop
  403524:	8f82800c 	lw	v0,-32756(gp)
  403528:	00000000 	nop
  40352c:	24420003 	addiu	v0,v0,3
  403530:	28420007 	slti	v0,v0,7
  403534:	10400050 	beqz	v0,403678 <main+0x3660>
  403538:	00000000 	nop
  40353c:	3c020041 	lui	v0,0x41
  403540:	2442bc44 	addiu	v0,v0,-17340
  403544:	8c43000c 	lw	v1,12(v0)
  403548:	3c020041 	lui	v0,0x41
  40354c:	2442bc44 	addiu	v0,v0,-17340
  403550:	8c420010 	lw	v0,16(v0)
  403554:	00000000 	nop
  403558:	14620047 	bne	v1,v0,403678 <main+0x3660>
  40355c:	00000000 	nop
  403560:	3c020041 	lui	v0,0x41
  403564:	2442bc44 	addiu	v0,v0,-17340
  403568:	8c43000c 	lw	v1,12(v0)
  40356c:	3c020041 	lui	v0,0x41
  403570:	2442bc44 	addiu	v0,v0,-17340
  403574:	8c420004 	lw	v0,4(v0)
  403578:	00000000 	nop
  40357c:	1462003e 	bne	v1,v0,403678 <main+0x3660>
  403580:	00000000 	nop
  403584:	3c020041 	lui	v0,0x41
  403588:	8c42bc44 	lw	v0,-17340(v0)
  40358c:	00000000 	nop
  403590:	afa201e4 	sw	v0,484(sp)
  403594:	3c020041 	lui	v0,0x41
  403598:	2442bc44 	addiu	v0,v0,-17340
  40359c:	8c42000c 	lw	v0,12(v0)
  4035a0:	00000000 	nop
  4035a4:	afa201e8 	sw	v0,488(sp)
  4035a8:	8fa301e8 	lw	v1,488(sp)
  4035ac:	8fa201e4 	lw	v0,484(sp)
  4035b0:	00000000 	nop
  4035b4:	0043102a 	slt	v0,v0,v1
  4035b8:	1040002f 	beqz	v0,403678 <main+0x3660>
  4035bc:	00000000 	nop
  4035c0:	3c020041 	lui	v0,0x41
  4035c4:	2442bc44 	addiu	v0,v0,-17340
  4035c8:	8c430008 	lw	v1,8(v0)
  4035cc:	3c020041 	lui	v0,0x41
  4035d0:	ac43bc44 	sw	v1,-17340(v0)
  4035d4:	8f828008 	lw	v0,-32760(gp)
  4035d8:	00000000 	nop
  4035dc:	2442fffc 	addiu	v0,v0,-4
  4035e0:	af828008 	sw	v0,-32760(gp)
  4035e4:	8fa301e4 	lw	v1,484(sp)
  4035e8:	8fa201e8 	lw	v0,488(sp)
  4035ec:	00000000 	nop
  4035f0:	00621021 	addu	v0,v1,v0
  4035f4:	afa201ec 	sw	v0,492(sp)
  4035f8:	8f83800c 	lw	v1,-32756(gp)
  4035fc:	3c020041 	lui	v0,0x41
  403600:	00031880 	sll	v1,v1,0x2
  403604:	2442bc20 	addiu	v0,v0,-17376
  403608:	00621021 	addu	v0,v1,v0
  40360c:	8fa301e4 	lw	v1,484(sp)
  403610:	00000000 	nop
  403614:	ac430000 	sw	v1,0(v0)
  403618:	8f82800c 	lw	v0,-32756(gp)
  40361c:	00000000 	nop
  403620:	24430001 	addiu	v1,v0,1
  403624:	3c020041 	lui	v0,0x41
  403628:	00031880 	sll	v1,v1,0x2
  40362c:	2442bc20 	addiu	v0,v0,-17376
  403630:	00621021 	addu	v0,v1,v0
  403634:	8fa301e8 	lw	v1,488(sp)
  403638:	00000000 	nop
  40363c:	ac430000 	sw	v1,0(v0)
  403640:	8f82800c 	lw	v0,-32756(gp)
  403644:	00000000 	nop
  403648:	24430002 	addiu	v1,v0,2
  40364c:	3c020041 	lui	v0,0x41
  403650:	00031880 	sll	v1,v1,0x2
  403654:	2442bc20 	addiu	v0,v0,-17376
  403658:	00621021 	addu	v0,v1,v0
  40365c:	8fa301ec 	lw	v1,492(sp)
  403660:	00000000 	nop
  403664:	ac430000 	sw	v1,0(v0)
  403668:	8f82800c 	lw	v0,-32756(gp)
  40366c:	00000000 	nop
  403670:	24420003 	addiu	v0,v0,3
  403674:	af82800c 	sw	v0,-32756(gp)
  403678:	8f828008 	lw	v0,-32760(gp)
  40367c:	00000000 	nop
  403680:	28420005 	slti	v0,v0,5
  403684:	14400056 	bnez	v0,4037e0 <main+0x37c8>
  403688:	00000000 	nop
  40368c:	8f82800c 	lw	v0,-32756(gp)
  403690:	00000000 	nop
  403694:	24420003 	addiu	v0,v0,3
  403698:	28420007 	slti	v0,v0,7
  40369c:	10400050 	beqz	v0,4037e0 <main+0x37c8>
  4036a0:	00000000 	nop
  4036a4:	3c020041 	lui	v0,0x41
  4036a8:	2442bc44 	addiu	v0,v0,-17340
  4036ac:	8c43000c 	lw	v1,12(v0)
  4036b0:	3c020041 	lui	v0,0x41
  4036b4:	2442bc44 	addiu	v0,v0,-17340
  4036b8:	8c420010 	lw	v0,16(v0)
  4036bc:	00000000 	nop
  4036c0:	14620047 	bne	v1,v0,4037e0 <main+0x37c8>
  4036c4:	00000000 	nop
  4036c8:	3c020041 	lui	v0,0x41
  4036cc:	2442bc44 	addiu	v0,v0,-17340
  4036d0:	8c43000c 	lw	v1,12(v0)
  4036d4:	3c020041 	lui	v0,0x41
  4036d8:	2442bc44 	addiu	v0,v0,-17340
  4036dc:	8c420008 	lw	v0,8(v0)
  4036e0:	00000000 	nop
  4036e4:	1462003e 	bne	v1,v0,4037e0 <main+0x37c8>
  4036e8:	00000000 	nop
  4036ec:	3c020041 	lui	v0,0x41
  4036f0:	8c42bc44 	lw	v0,-17340(v0)
  4036f4:	00000000 	nop
  4036f8:	afa201f0 	sw	v0,496(sp)
  4036fc:	3c020041 	lui	v0,0x41
  403700:	2442bc44 	addiu	v0,v0,-17340
  403704:	8c42000c 	lw	v0,12(v0)
  403708:	00000000 	nop
  40370c:	afa201f4 	sw	v0,500(sp)
  403710:	8fa301f4 	lw	v1,500(sp)
  403714:	8fa201f0 	lw	v0,496(sp)
  403718:	00000000 	nop
  40371c:	0043102a 	slt	v0,v0,v1
  403720:	1040002f 	beqz	v0,4037e0 <main+0x37c8>
  403724:	00000000 	nop
  403728:	3c020041 	lui	v0,0x41
  40372c:	2442bc44 	addiu	v0,v0,-17340
  403730:	8c430004 	lw	v1,4(v0)
  403734:	3c020041 	lui	v0,0x41
  403738:	ac43bc44 	sw	v1,-17340(v0)
  40373c:	8f828008 	lw	v0,-32760(gp)
  403740:	00000000 	nop
  403744:	2442fffc 	addiu	v0,v0,-4
  403748:	af828008 	sw	v0,-32760(gp)
  40374c:	8fa301f0 	lw	v1,496(sp)
  403750:	8fa201f4 	lw	v0,500(sp)
  403754:	00000000 	nop
  403758:	00621021 	addu	v0,v1,v0
  40375c:	afa201f8 	sw	v0,504(sp)
  403760:	8f83800c 	lw	v1,-32756(gp)
  403764:	3c020041 	lui	v0,0x41
  403768:	00031880 	sll	v1,v1,0x2
  40376c:	2442bc20 	addiu	v0,v0,-17376
  403770:	00621021 	addu	v0,v1,v0
  403774:	8fa301f0 	lw	v1,496(sp)
  403778:	00000000 	nop
  40377c:	ac430000 	sw	v1,0(v0)
  403780:	8f82800c 	lw	v0,-32756(gp)
  403784:	00000000 	nop
  403788:	24430001 	addiu	v1,v0,1
  40378c:	3c020041 	lui	v0,0x41
  403790:	00031880 	sll	v1,v1,0x2
  403794:	2442bc20 	addiu	v0,v0,-17376
  403798:	00621021 	addu	v0,v1,v0
  40379c:	8fa301f4 	lw	v1,500(sp)
  4037a0:	00000000 	nop
  4037a4:	ac430000 	sw	v1,0(v0)
  4037a8:	8f82800c 	lw	v0,-32756(gp)
  4037ac:	00000000 	nop
  4037b0:	24430002 	addiu	v1,v0,2
  4037b4:	3c020041 	lui	v0,0x41
  4037b8:	00031880 	sll	v1,v1,0x2
  4037bc:	2442bc20 	addiu	v0,v0,-17376
  4037c0:	00621021 	addu	v0,v1,v0
  4037c4:	8fa301f8 	lw	v1,504(sp)
  4037c8:	00000000 	nop
  4037cc:	ac430000 	sw	v1,0(v0)
  4037d0:	8f82800c 	lw	v0,-32756(gp)
  4037d4:	00000000 	nop
  4037d8:	24420003 	addiu	v0,v0,3
  4037dc:	af82800c 	sw	v0,-32756(gp)
  4037e0:	8f828008 	lw	v0,-32760(gp)
  4037e4:	00000000 	nop
  4037e8:	28420005 	slti	v0,v0,5
  4037ec:	14400056 	bnez	v0,403948 <main+0x3930>
  4037f0:	00000000 	nop
  4037f4:	8f82800c 	lw	v0,-32756(gp)
  4037f8:	00000000 	nop
  4037fc:	24420003 	addiu	v0,v0,3
  403800:	28420007 	slti	v0,v0,7
  403804:	10400050 	beqz	v0,403948 <main+0x3930>
  403808:	00000000 	nop
  40380c:	3c020041 	lui	v0,0x41
  403810:	2442bc44 	addiu	v0,v0,-17340
  403814:	8c430010 	lw	v1,16(v0)
  403818:	3c020041 	lui	v0,0x41
  40381c:	2442bc44 	addiu	v0,v0,-17340
  403820:	8c420004 	lw	v0,4(v0)
  403824:	00000000 	nop
  403828:	14620047 	bne	v1,v0,403948 <main+0x3930>
  40382c:	00000000 	nop
  403830:	3c020041 	lui	v0,0x41
  403834:	2442bc44 	addiu	v0,v0,-17340
  403838:	8c430010 	lw	v1,16(v0)
  40383c:	3c020041 	lui	v0,0x41
  403840:	2442bc44 	addiu	v0,v0,-17340
  403844:	8c420008 	lw	v0,8(v0)
  403848:	00000000 	nop
  40384c:	1462003e 	bne	v1,v0,403948 <main+0x3930>
  403850:	00000000 	nop
  403854:	3c020041 	lui	v0,0x41
  403858:	8c42bc44 	lw	v0,-17340(v0)
  40385c:	00000000 	nop
  403860:	afa201fc 	sw	v0,508(sp)
  403864:	3c020041 	lui	v0,0x41
  403868:	2442bc44 	addiu	v0,v0,-17340
  40386c:	8c420010 	lw	v0,16(v0)
  403870:	00000000 	nop
  403874:	afa20200 	sw	v0,512(sp)
  403878:	8fa30200 	lw	v1,512(sp)
  40387c:	8fa201fc 	lw	v0,508(sp)
  403880:	00000000 	nop
  403884:	0043102a 	slt	v0,v0,v1
  403888:	1040002f 	beqz	v0,403948 <main+0x3930>
  40388c:	00000000 	nop
  403890:	3c020041 	lui	v0,0x41
  403894:	2442bc44 	addiu	v0,v0,-17340
  403898:	8c43000c 	lw	v1,12(v0)
  40389c:	3c020041 	lui	v0,0x41
  4038a0:	ac43bc44 	sw	v1,-17340(v0)
  4038a4:	8f828008 	lw	v0,-32760(gp)
  4038a8:	00000000 	nop
  4038ac:	2442fffc 	addiu	v0,v0,-4
  4038b0:	af828008 	sw	v0,-32760(gp)
  4038b4:	8fa301fc 	lw	v1,508(sp)
  4038b8:	8fa20200 	lw	v0,512(sp)
  4038bc:	00000000 	nop
  4038c0:	00621021 	addu	v0,v1,v0
  4038c4:	afa20204 	sw	v0,516(sp)
  4038c8:	8f83800c 	lw	v1,-32756(gp)
  4038cc:	3c020041 	lui	v0,0x41
  4038d0:	00031880 	sll	v1,v1,0x2
  4038d4:	2442bc20 	addiu	v0,v0,-17376
  4038d8:	00621021 	addu	v0,v1,v0
  4038dc:	8fa301fc 	lw	v1,508(sp)
  4038e0:	00000000 	nop
  4038e4:	ac430000 	sw	v1,0(v0)
  4038e8:	8f82800c 	lw	v0,-32756(gp)
  4038ec:	00000000 	nop
  4038f0:	24430001 	addiu	v1,v0,1
  4038f4:	3c020041 	lui	v0,0x41
  4038f8:	00031880 	sll	v1,v1,0x2
  4038fc:	2442bc20 	addiu	v0,v0,-17376
  403900:	00621021 	addu	v0,v1,v0
  403904:	8fa30200 	lw	v1,512(sp)
  403908:	00000000 	nop
  40390c:	ac430000 	sw	v1,0(v0)
  403910:	8f82800c 	lw	v0,-32756(gp)
  403914:	00000000 	nop
  403918:	24430002 	addiu	v1,v0,2
  40391c:	3c020041 	lui	v0,0x41
  403920:	00031880 	sll	v1,v1,0x2
  403924:	2442bc20 	addiu	v0,v0,-17376
  403928:	00621021 	addu	v0,v1,v0
  40392c:	8fa30204 	lw	v1,516(sp)
  403930:	00000000 	nop
  403934:	ac430000 	sw	v1,0(v0)
  403938:	8f82800c 	lw	v0,-32756(gp)
  40393c:	00000000 	nop
  403940:	24420003 	addiu	v0,v0,3
  403944:	af82800c 	sw	v0,-32756(gp)
  403948:	8f828008 	lw	v0,-32760(gp)
  40394c:	00000000 	nop
  403950:	28420005 	slti	v0,v0,5
  403954:	14400056 	bnez	v0,403ab0 <main+0x3a98>
  403958:	00000000 	nop
  40395c:	8f82800c 	lw	v0,-32756(gp)
  403960:	00000000 	nop
  403964:	24420003 	addiu	v0,v0,3
  403968:	28420007 	slti	v0,v0,7
  40396c:	10400050 	beqz	v0,403ab0 <main+0x3a98>
  403970:	00000000 	nop
  403974:	3c020041 	lui	v0,0x41
  403978:	2442bc44 	addiu	v0,v0,-17340
  40397c:	8c430010 	lw	v1,16(v0)
  403980:	3c020041 	lui	v0,0x41
  403984:	2442bc44 	addiu	v0,v0,-17340
  403988:	8c420004 	lw	v0,4(v0)
  40398c:	00000000 	nop
  403990:	14620047 	bne	v1,v0,403ab0 <main+0x3a98>
  403994:	00000000 	nop
  403998:	3c020041 	lui	v0,0x41
  40399c:	2442bc44 	addiu	v0,v0,-17340
  4039a0:	8c430010 	lw	v1,16(v0)
  4039a4:	3c020041 	lui	v0,0x41
  4039a8:	2442bc44 	addiu	v0,v0,-17340
  4039ac:	8c42000c 	lw	v0,12(v0)
  4039b0:	00000000 	nop
  4039b4:	1462003e 	bne	v1,v0,403ab0 <main+0x3a98>
  4039b8:	00000000 	nop
  4039bc:	3c020041 	lui	v0,0x41
  4039c0:	8c42bc44 	lw	v0,-17340(v0)
  4039c4:	00000000 	nop
  4039c8:	afa20208 	sw	v0,520(sp)
  4039cc:	3c020041 	lui	v0,0x41
  4039d0:	2442bc44 	addiu	v0,v0,-17340
  4039d4:	8c420010 	lw	v0,16(v0)
  4039d8:	00000000 	nop
  4039dc:	afa2020c 	sw	v0,524(sp)
  4039e0:	8fa3020c 	lw	v1,524(sp)
  4039e4:	8fa20208 	lw	v0,520(sp)
  4039e8:	00000000 	nop
  4039ec:	0043102a 	slt	v0,v0,v1
  4039f0:	1040002f 	beqz	v0,403ab0 <main+0x3a98>
  4039f4:	00000000 	nop
  4039f8:	3c020041 	lui	v0,0x41
  4039fc:	2442bc44 	addiu	v0,v0,-17340
  403a00:	8c430008 	lw	v1,8(v0)
  403a04:	3c020041 	lui	v0,0x41
  403a08:	ac43bc44 	sw	v1,-17340(v0)
  403a0c:	8f828008 	lw	v0,-32760(gp)
  403a10:	00000000 	nop
  403a14:	2442fffc 	addiu	v0,v0,-4
  403a18:	af828008 	sw	v0,-32760(gp)
  403a1c:	8fa30208 	lw	v1,520(sp)
  403a20:	8fa2020c 	lw	v0,524(sp)
  403a24:	00000000 	nop
  403a28:	00621021 	addu	v0,v1,v0
  403a2c:	afa20210 	sw	v0,528(sp)
  403a30:	8f83800c 	lw	v1,-32756(gp)
  403a34:	3c020041 	lui	v0,0x41
  403a38:	00031880 	sll	v1,v1,0x2
  403a3c:	2442bc20 	addiu	v0,v0,-17376
  403a40:	00621021 	addu	v0,v1,v0
  403a44:	8fa30208 	lw	v1,520(sp)
  403a48:	00000000 	nop
  403a4c:	ac430000 	sw	v1,0(v0)
  403a50:	8f82800c 	lw	v0,-32756(gp)
  403a54:	00000000 	nop
  403a58:	24430001 	addiu	v1,v0,1
  403a5c:	3c020041 	lui	v0,0x41
  403a60:	00031880 	sll	v1,v1,0x2
  403a64:	2442bc20 	addiu	v0,v0,-17376
  403a68:	00621021 	addu	v0,v1,v0
  403a6c:	8fa3020c 	lw	v1,524(sp)
  403a70:	00000000 	nop
  403a74:	ac430000 	sw	v1,0(v0)
  403a78:	8f82800c 	lw	v0,-32756(gp)
  403a7c:	00000000 	nop
  403a80:	24430002 	addiu	v1,v0,2
  403a84:	3c020041 	lui	v0,0x41
  403a88:	00031880 	sll	v1,v1,0x2
  403a8c:	2442bc20 	addiu	v0,v0,-17376
  403a90:	00621021 	addu	v0,v1,v0
  403a94:	8fa30210 	lw	v1,528(sp)
  403a98:	00000000 	nop
  403a9c:	ac430000 	sw	v1,0(v0)
  403aa0:	8f82800c 	lw	v0,-32756(gp)
  403aa4:	00000000 	nop
  403aa8:	24420003 	addiu	v0,v0,3
  403aac:	af82800c 	sw	v0,-32756(gp)
  403ab0:	8f828008 	lw	v0,-32760(gp)
  403ab4:	00000000 	nop
  403ab8:	28420005 	slti	v0,v0,5
  403abc:	14400056 	bnez	v0,403c18 <main+0x3c00>
  403ac0:	00000000 	nop
  403ac4:	8f82800c 	lw	v0,-32756(gp)
  403ac8:	00000000 	nop
  403acc:	24420003 	addiu	v0,v0,3
  403ad0:	28420007 	slti	v0,v0,7
  403ad4:	10400050 	beqz	v0,403c18 <main+0x3c00>
  403ad8:	00000000 	nop
  403adc:	3c020041 	lui	v0,0x41
  403ae0:	2442bc44 	addiu	v0,v0,-17340
  403ae4:	8c430010 	lw	v1,16(v0)
  403ae8:	3c020041 	lui	v0,0x41
  403aec:	2442bc44 	addiu	v0,v0,-17340
  403af0:	8c420008 	lw	v0,8(v0)
  403af4:	00000000 	nop
  403af8:	14620047 	bne	v1,v0,403c18 <main+0x3c00>
  403afc:	00000000 	nop
  403b00:	3c020041 	lui	v0,0x41
  403b04:	2442bc44 	addiu	v0,v0,-17340
  403b08:	8c430010 	lw	v1,16(v0)
  403b0c:	3c020041 	lui	v0,0x41
  403b10:	2442bc44 	addiu	v0,v0,-17340
  403b14:	8c420004 	lw	v0,4(v0)
  403b18:	00000000 	nop
  403b1c:	1462003e 	bne	v1,v0,403c18 <main+0x3c00>
  403b20:	00000000 	nop
  403b24:	3c020041 	lui	v0,0x41
  403b28:	8c42bc44 	lw	v0,-17340(v0)
  403b2c:	00000000 	nop
  403b30:	afa20214 	sw	v0,532(sp)
  403b34:	3c020041 	lui	v0,0x41
  403b38:	2442bc44 	addiu	v0,v0,-17340
  403b3c:	8c420010 	lw	v0,16(v0)
  403b40:	00000000 	nop
  403b44:	afa20218 	sw	v0,536(sp)
  403b48:	8fa30218 	lw	v1,536(sp)
  403b4c:	8fa20214 	lw	v0,532(sp)
  403b50:	00000000 	nop
  403b54:	0043102a 	slt	v0,v0,v1
  403b58:	1040002f 	beqz	v0,403c18 <main+0x3c00>
  403b5c:	00000000 	nop
  403b60:	3c020041 	lui	v0,0x41
  403b64:	2442bc44 	addiu	v0,v0,-17340
  403b68:	8c43000c 	lw	v1,12(v0)
  403b6c:	3c020041 	lui	v0,0x41
  403b70:	ac43bc44 	sw	v1,-17340(v0)
  403b74:	8f828008 	lw	v0,-32760(gp)
  403b78:	00000000 	nop
  403b7c:	2442fffc 	addiu	v0,v0,-4
  403b80:	af828008 	sw	v0,-32760(gp)
  403b84:	8fa30214 	lw	v1,532(sp)
  403b88:	8fa20218 	lw	v0,536(sp)
  403b8c:	00000000 	nop
  403b90:	00621021 	addu	v0,v1,v0
  403b94:	afa2021c 	sw	v0,540(sp)
  403b98:	8f83800c 	lw	v1,-32756(gp)
  403b9c:	3c020041 	lui	v0,0x41
  403ba0:	00031880 	sll	v1,v1,0x2
  403ba4:	2442bc20 	addiu	v0,v0,-17376
  403ba8:	00621021 	addu	v0,v1,v0
  403bac:	8fa30214 	lw	v1,532(sp)
  403bb0:	00000000 	nop
  403bb4:	ac430000 	sw	v1,0(v0)
  403bb8:	8f82800c 	lw	v0,-32756(gp)
  403bbc:	00000000 	nop
  403bc0:	24430001 	addiu	v1,v0,1
  403bc4:	3c020041 	lui	v0,0x41
  403bc8:	00031880 	sll	v1,v1,0x2
  403bcc:	2442bc20 	addiu	v0,v0,-17376
  403bd0:	00621021 	addu	v0,v1,v0
  403bd4:	8fa30218 	lw	v1,536(sp)
  403bd8:	00000000 	nop
  403bdc:	ac430000 	sw	v1,0(v0)
  403be0:	8f82800c 	lw	v0,-32756(gp)
  403be4:	00000000 	nop
  403be8:	24430002 	addiu	v1,v0,2
  403bec:	3c020041 	lui	v0,0x41
  403bf0:	00031880 	sll	v1,v1,0x2
  403bf4:	2442bc20 	addiu	v0,v0,-17376
  403bf8:	00621021 	addu	v0,v1,v0
  403bfc:	8fa3021c 	lw	v1,540(sp)
  403c00:	00000000 	nop
  403c04:	ac430000 	sw	v1,0(v0)
  403c08:	8f82800c 	lw	v0,-32756(gp)
  403c0c:	00000000 	nop
  403c10:	24420003 	addiu	v0,v0,3
  403c14:	af82800c 	sw	v0,-32756(gp)
  403c18:	8f828008 	lw	v0,-32760(gp)
  403c1c:	00000000 	nop
  403c20:	28420005 	slti	v0,v0,5
  403c24:	14400056 	bnez	v0,403d80 <main+0x3d68>
  403c28:	00000000 	nop
  403c2c:	8f82800c 	lw	v0,-32756(gp)
  403c30:	00000000 	nop
  403c34:	24420003 	addiu	v0,v0,3
  403c38:	28420007 	slti	v0,v0,7
  403c3c:	10400050 	beqz	v0,403d80 <main+0x3d68>
  403c40:	00000000 	nop
  403c44:	3c020041 	lui	v0,0x41
  403c48:	2442bc44 	addiu	v0,v0,-17340
  403c4c:	8c430010 	lw	v1,16(v0)
  403c50:	3c020041 	lui	v0,0x41
  403c54:	2442bc44 	addiu	v0,v0,-17340
  403c58:	8c420008 	lw	v0,8(v0)
  403c5c:	00000000 	nop
  403c60:	14620047 	bne	v1,v0,403d80 <main+0x3d68>
  403c64:	00000000 	nop
  403c68:	3c020041 	lui	v0,0x41
  403c6c:	2442bc44 	addiu	v0,v0,-17340
  403c70:	8c430010 	lw	v1,16(v0)
  403c74:	3c020041 	lui	v0,0x41
  403c78:	2442bc44 	addiu	v0,v0,-17340
  403c7c:	8c42000c 	lw	v0,12(v0)
  403c80:	00000000 	nop
  403c84:	1462003e 	bne	v1,v0,403d80 <main+0x3d68>
  403c88:	00000000 	nop
  403c8c:	3c020041 	lui	v0,0x41
  403c90:	8c42bc44 	lw	v0,-17340(v0)
  403c94:	00000000 	nop
  403c98:	afa20220 	sw	v0,544(sp)
  403c9c:	3c020041 	lui	v0,0x41
  403ca0:	2442bc44 	addiu	v0,v0,-17340
  403ca4:	8c420010 	lw	v0,16(v0)
  403ca8:	00000000 	nop
  403cac:	afa20224 	sw	v0,548(sp)
  403cb0:	8fa30224 	lw	v1,548(sp)
  403cb4:	8fa20220 	lw	v0,544(sp)
  403cb8:	00000000 	nop
  403cbc:	0043102a 	slt	v0,v0,v1
  403cc0:	1040002f 	beqz	v0,403d80 <main+0x3d68>
  403cc4:	00000000 	nop
  403cc8:	3c020041 	lui	v0,0x41
  403ccc:	2442bc44 	addiu	v0,v0,-17340
  403cd0:	8c430004 	lw	v1,4(v0)
  403cd4:	3c020041 	lui	v0,0x41
  403cd8:	ac43bc44 	sw	v1,-17340(v0)
  403cdc:	8f828008 	lw	v0,-32760(gp)
  403ce0:	00000000 	nop
  403ce4:	2442fffc 	addiu	v0,v0,-4
  403ce8:	af828008 	sw	v0,-32760(gp)
  403cec:	8fa30220 	lw	v1,544(sp)
  403cf0:	8fa20224 	lw	v0,548(sp)
  403cf4:	00000000 	nop
  403cf8:	00621021 	addu	v0,v1,v0
  403cfc:	afa20228 	sw	v0,552(sp)
  403d00:	8f83800c 	lw	v1,-32756(gp)
  403d04:	3c020041 	lui	v0,0x41
  403d08:	00031880 	sll	v1,v1,0x2
  403d0c:	2442bc20 	addiu	v0,v0,-17376
  403d10:	00621021 	addu	v0,v1,v0
  403d14:	8fa30220 	lw	v1,544(sp)
  403d18:	00000000 	nop
  403d1c:	ac430000 	sw	v1,0(v0)
  403d20:	8f82800c 	lw	v0,-32756(gp)
  403d24:	00000000 	nop
  403d28:	24430001 	addiu	v1,v0,1
  403d2c:	3c020041 	lui	v0,0x41
  403d30:	00031880 	sll	v1,v1,0x2
  403d34:	2442bc20 	addiu	v0,v0,-17376
  403d38:	00621021 	addu	v0,v1,v0
  403d3c:	8fa30224 	lw	v1,548(sp)
  403d40:	00000000 	nop
  403d44:	ac430000 	sw	v1,0(v0)
  403d48:	8f82800c 	lw	v0,-32756(gp)
  403d4c:	00000000 	nop
  403d50:	24430002 	addiu	v1,v0,2
  403d54:	3c020041 	lui	v0,0x41
  403d58:	00031880 	sll	v1,v1,0x2
  403d5c:	2442bc20 	addiu	v0,v0,-17376
  403d60:	00621021 	addu	v0,v1,v0
  403d64:	8fa30228 	lw	v1,552(sp)
  403d68:	00000000 	nop
  403d6c:	ac430000 	sw	v1,0(v0)
  403d70:	8f82800c 	lw	v0,-32756(gp)
  403d74:	00000000 	nop
  403d78:	24420003 	addiu	v0,v0,3
  403d7c:	af82800c 	sw	v0,-32756(gp)
  403d80:	8f828008 	lw	v0,-32760(gp)
  403d84:	00000000 	nop
  403d88:	28420005 	slti	v0,v0,5
  403d8c:	14400056 	bnez	v0,403ee8 <main+0x3ed0>
  403d90:	00000000 	nop
  403d94:	8f82800c 	lw	v0,-32756(gp)
  403d98:	00000000 	nop
  403d9c:	24420003 	addiu	v0,v0,3
  403da0:	28420007 	slti	v0,v0,7
  403da4:	10400050 	beqz	v0,403ee8 <main+0x3ed0>
  403da8:	00000000 	nop
  403dac:	3c020041 	lui	v0,0x41
  403db0:	2442bc44 	addiu	v0,v0,-17340
  403db4:	8c430010 	lw	v1,16(v0)
  403db8:	3c020041 	lui	v0,0x41
  403dbc:	2442bc44 	addiu	v0,v0,-17340
  403dc0:	8c42000c 	lw	v0,12(v0)
  403dc4:	00000000 	nop
  403dc8:	14620047 	bne	v1,v0,403ee8 <main+0x3ed0>
  403dcc:	00000000 	nop
  403dd0:	3c020041 	lui	v0,0x41
  403dd4:	2442bc44 	addiu	v0,v0,-17340
  403dd8:	8c430010 	lw	v1,16(v0)
  403ddc:	3c020041 	lui	v0,0x41
  403de0:	2442bc44 	addiu	v0,v0,-17340
  403de4:	8c420004 	lw	v0,4(v0)
  403de8:	00000000 	nop
  403dec:	1462003e 	bne	v1,v0,403ee8 <main+0x3ed0>
  403df0:	00000000 	nop
  403df4:	3c020041 	lui	v0,0x41
  403df8:	8c42bc44 	lw	v0,-17340(v0)
  403dfc:	00000000 	nop
  403e00:	afa2022c 	sw	v0,556(sp)
  403e04:	3c020041 	lui	v0,0x41
  403e08:	2442bc44 	addiu	v0,v0,-17340
  403e0c:	8c420010 	lw	v0,16(v0)
  403e10:	00000000 	nop
  403e14:	afa20230 	sw	v0,560(sp)
  403e18:	8fa30230 	lw	v1,560(sp)
  403e1c:	8fa2022c 	lw	v0,556(sp)
  403e20:	00000000 	nop
  403e24:	0043102a 	slt	v0,v0,v1
  403e28:	1040002f 	beqz	v0,403ee8 <main+0x3ed0>
  403e2c:	00000000 	nop
  403e30:	3c020041 	lui	v0,0x41
  403e34:	2442bc44 	addiu	v0,v0,-17340
  403e38:	8c430008 	lw	v1,8(v0)
  403e3c:	3c020041 	lui	v0,0x41
  403e40:	ac43bc44 	sw	v1,-17340(v0)
  403e44:	8f828008 	lw	v0,-32760(gp)
  403e48:	00000000 	nop
  403e4c:	2442fffc 	addiu	v0,v0,-4
  403e50:	af828008 	sw	v0,-32760(gp)
  403e54:	8fa3022c 	lw	v1,556(sp)
  403e58:	8fa20230 	lw	v0,560(sp)
  403e5c:	00000000 	nop
  403e60:	00621021 	addu	v0,v1,v0
  403e64:	afa20234 	sw	v0,564(sp)
  403e68:	8f83800c 	lw	v1,-32756(gp)
  403e6c:	3c020041 	lui	v0,0x41
  403e70:	00031880 	sll	v1,v1,0x2
  403e74:	2442bc20 	addiu	v0,v0,-17376
  403e78:	00621021 	addu	v0,v1,v0
  403e7c:	8fa3022c 	lw	v1,556(sp)
  403e80:	00000000 	nop
  403e84:	ac430000 	sw	v1,0(v0)
  403e88:	8f82800c 	lw	v0,-32756(gp)
  403e8c:	00000000 	nop
  403e90:	24430001 	addiu	v1,v0,1
  403e94:	3c020041 	lui	v0,0x41
  403e98:	00031880 	sll	v1,v1,0x2
  403e9c:	2442bc20 	addiu	v0,v0,-17376
  403ea0:	00621021 	addu	v0,v1,v0
  403ea4:	8fa30230 	lw	v1,560(sp)
  403ea8:	00000000 	nop
  403eac:	ac430000 	sw	v1,0(v0)
  403eb0:	8f82800c 	lw	v0,-32756(gp)
  403eb4:	00000000 	nop
  403eb8:	24430002 	addiu	v1,v0,2
  403ebc:	3c020041 	lui	v0,0x41
  403ec0:	00031880 	sll	v1,v1,0x2
  403ec4:	2442bc20 	addiu	v0,v0,-17376
  403ec8:	00621021 	addu	v0,v1,v0
  403ecc:	8fa30234 	lw	v1,564(sp)
  403ed0:	00000000 	nop
  403ed4:	ac430000 	sw	v1,0(v0)
  403ed8:	8f82800c 	lw	v0,-32756(gp)
  403edc:	00000000 	nop
  403ee0:	24420003 	addiu	v0,v0,3
  403ee4:	af82800c 	sw	v0,-32756(gp)
  403ee8:	8f828008 	lw	v0,-32760(gp)
  403eec:	00000000 	nop
  403ef0:	28420005 	slti	v0,v0,5
  403ef4:	14400056 	bnez	v0,404050 <main+0x4038>
  403ef8:	00000000 	nop
  403efc:	8f82800c 	lw	v0,-32756(gp)
  403f00:	00000000 	nop
  403f04:	24420003 	addiu	v0,v0,3
  403f08:	28420007 	slti	v0,v0,7
  403f0c:	10400050 	beqz	v0,404050 <main+0x4038>
  403f10:	00000000 	nop
  403f14:	3c020041 	lui	v0,0x41
  403f18:	2442bc44 	addiu	v0,v0,-17340
  403f1c:	8c430010 	lw	v1,16(v0)
  403f20:	3c020041 	lui	v0,0x41
  403f24:	2442bc44 	addiu	v0,v0,-17340
  403f28:	8c42000c 	lw	v0,12(v0)
  403f2c:	00000000 	nop
  403f30:	14620047 	bne	v1,v0,404050 <main+0x4038>
  403f34:	00000000 	nop
  403f38:	3c020041 	lui	v0,0x41
  403f3c:	2442bc44 	addiu	v0,v0,-17340
  403f40:	8c430010 	lw	v1,16(v0)
  403f44:	3c020041 	lui	v0,0x41
  403f48:	2442bc44 	addiu	v0,v0,-17340
  403f4c:	8c420008 	lw	v0,8(v0)
  403f50:	00000000 	nop
  403f54:	1462003e 	bne	v1,v0,404050 <main+0x4038>
  403f58:	00000000 	nop
  403f5c:	3c020041 	lui	v0,0x41
  403f60:	8c42bc44 	lw	v0,-17340(v0)
  403f64:	00000000 	nop
  403f68:	afa20238 	sw	v0,568(sp)
  403f6c:	3c020041 	lui	v0,0x41
  403f70:	2442bc44 	addiu	v0,v0,-17340
  403f74:	8c420010 	lw	v0,16(v0)
  403f78:	00000000 	nop
  403f7c:	afa2023c 	sw	v0,572(sp)
  403f80:	8fa3023c 	lw	v1,572(sp)
  403f84:	8fa20238 	lw	v0,568(sp)
  403f88:	00000000 	nop
  403f8c:	0043102a 	slt	v0,v0,v1
  403f90:	1040002f 	beqz	v0,404050 <main+0x4038>
  403f94:	00000000 	nop
  403f98:	3c020041 	lui	v0,0x41
  403f9c:	2442bc44 	addiu	v0,v0,-17340
  403fa0:	8c430004 	lw	v1,4(v0)
  403fa4:	3c020041 	lui	v0,0x41
  403fa8:	ac43bc44 	sw	v1,-17340(v0)
  403fac:	8f828008 	lw	v0,-32760(gp)
  403fb0:	00000000 	nop
  403fb4:	2442fffc 	addiu	v0,v0,-4
  403fb8:	af828008 	sw	v0,-32760(gp)
  403fbc:	8fa30238 	lw	v1,568(sp)
  403fc0:	8fa2023c 	lw	v0,572(sp)
  403fc4:	00000000 	nop
  403fc8:	00621021 	addu	v0,v1,v0
  403fcc:	afa20240 	sw	v0,576(sp)
  403fd0:	8f83800c 	lw	v1,-32756(gp)
  403fd4:	3c020041 	lui	v0,0x41
  403fd8:	00031880 	sll	v1,v1,0x2
  403fdc:	2442bc20 	addiu	v0,v0,-17376
  403fe0:	00621021 	addu	v0,v1,v0
  403fe4:	8fa30238 	lw	v1,568(sp)
  403fe8:	00000000 	nop
  403fec:	ac430000 	sw	v1,0(v0)
  403ff0:	8f82800c 	lw	v0,-32756(gp)
  403ff4:	00000000 	nop
  403ff8:	24430001 	addiu	v1,v0,1
  403ffc:	3c020041 	lui	v0,0x41
  404000:	00031880 	sll	v1,v1,0x2
  404004:	2442bc20 	addiu	v0,v0,-17376
  404008:	00621021 	addu	v0,v1,v0
  40400c:	8fa3023c 	lw	v1,572(sp)
  404010:	00000000 	nop
  404014:	ac430000 	sw	v1,0(v0)
  404018:	8f82800c 	lw	v0,-32756(gp)
  40401c:	00000000 	nop
  404020:	24430002 	addiu	v1,v0,2
  404024:	3c020041 	lui	v0,0x41
  404028:	00031880 	sll	v1,v1,0x2
  40402c:	2442bc20 	addiu	v0,v0,-17376
  404030:	00621021 	addu	v0,v1,v0
  404034:	8fa30240 	lw	v1,576(sp)
  404038:	00000000 	nop
  40403c:	ac430000 	sw	v1,0(v0)
  404040:	8f82800c 	lw	v0,-32756(gp)
  404044:	00000000 	nop
  404048:	24420003 	addiu	v0,v0,3
  40404c:	af82800c 	sw	v0,-32756(gp)
  404050:	8f828008 	lw	v0,-32760(gp)
  404054:	00000000 	nop
  404058:	28420005 	slti	v0,v0,5
  40405c:	14400054 	bnez	v0,4041b0 <main+0x4198>
  404060:	00000000 	nop
  404064:	8f82800c 	lw	v0,-32756(gp)
  404068:	00000000 	nop
  40406c:	24420003 	addiu	v0,v0,3
  404070:	28420007 	slti	v0,v0,7
  404074:	1040004e 	beqz	v0,4041b0 <main+0x4198>
  404078:	00000000 	nop
  40407c:	3c020041 	lui	v0,0x41
  404080:	8c43bc44 	lw	v1,-17340(v0)
  404084:	3c020041 	lui	v0,0x41
  404088:	2442bc44 	addiu	v0,v0,-17340
  40408c:	8c420008 	lw	v0,8(v0)
  404090:	00000000 	nop
  404094:	14620046 	bne	v1,v0,4041b0 <main+0x4198>
  404098:	00000000 	nop
  40409c:	3c020041 	lui	v0,0x41
  4040a0:	8c43bc44 	lw	v1,-17340(v0)
  4040a4:	3c020041 	lui	v0,0x41
  4040a8:	2442bc44 	addiu	v0,v0,-17340
  4040ac:	8c420010 	lw	v0,16(v0)
  4040b0:	00000000 	nop
  4040b4:	1462003e 	bne	v1,v0,4041b0 <main+0x4198>
  4040b8:	00000000 	nop
  4040bc:	3c020041 	lui	v0,0x41
  4040c0:	2442bc44 	addiu	v0,v0,-17340
  4040c4:	8c420004 	lw	v0,4(v0)
  4040c8:	00000000 	nop
  4040cc:	afa20244 	sw	v0,580(sp)
  4040d0:	3c020041 	lui	v0,0x41
  4040d4:	8c42bc44 	lw	v0,-17340(v0)
  4040d8:	00000000 	nop
  4040dc:	afa20248 	sw	v0,584(sp)
  4040e0:	8fa30248 	lw	v1,584(sp)
  4040e4:	8fa20244 	lw	v0,580(sp)
  4040e8:	00000000 	nop
  4040ec:	0043102a 	slt	v0,v0,v1
  4040f0:	1040002f 	beqz	v0,4041b0 <main+0x4198>
  4040f4:	00000000 	nop
  4040f8:	3c020041 	lui	v0,0x41
  4040fc:	2442bc44 	addiu	v0,v0,-17340
  404100:	8c43000c 	lw	v1,12(v0)
  404104:	3c020041 	lui	v0,0x41
  404108:	ac43bc44 	sw	v1,-17340(v0)
  40410c:	8f828008 	lw	v0,-32760(gp)
  404110:	00000000 	nop
  404114:	2442fffc 	addiu	v0,v0,-4
  404118:	af828008 	sw	v0,-32760(gp)
  40411c:	8fa30244 	lw	v1,580(sp)
  404120:	8fa20248 	lw	v0,584(sp)
  404124:	00000000 	nop
  404128:	00621021 	addu	v0,v1,v0
  40412c:	afa2024c 	sw	v0,588(sp)
  404130:	8f83800c 	lw	v1,-32756(gp)
  404134:	3c020041 	lui	v0,0x41
  404138:	00031880 	sll	v1,v1,0x2
  40413c:	2442bc20 	addiu	v0,v0,-17376
  404140:	00621021 	addu	v0,v1,v0
  404144:	8fa30244 	lw	v1,580(sp)
  404148:	00000000 	nop
  40414c:	ac430000 	sw	v1,0(v0)
  404150:	8f82800c 	lw	v0,-32756(gp)
  404154:	00000000 	nop
  404158:	24430001 	addiu	v1,v0,1
  40415c:	3c020041 	lui	v0,0x41
  404160:	00031880 	sll	v1,v1,0x2
  404164:	2442bc20 	addiu	v0,v0,-17376
  404168:	00621021 	addu	v0,v1,v0
  40416c:	8fa30248 	lw	v1,584(sp)
  404170:	00000000 	nop
  404174:	ac430000 	sw	v1,0(v0)
  404178:	8f82800c 	lw	v0,-32756(gp)
  40417c:	00000000 	nop
  404180:	24430002 	addiu	v1,v0,2
  404184:	3c020041 	lui	v0,0x41
  404188:	00031880 	sll	v1,v1,0x2
  40418c:	2442bc20 	addiu	v0,v0,-17376
  404190:	00621021 	addu	v0,v1,v0
  404194:	8fa3024c 	lw	v1,588(sp)
  404198:	00000000 	nop
  40419c:	ac430000 	sw	v1,0(v0)
  4041a0:	8f82800c 	lw	v0,-32756(gp)
  4041a4:	00000000 	nop
  4041a8:	24420003 	addiu	v0,v0,3
  4041ac:	af82800c 	sw	v0,-32756(gp)
  4041b0:	8f828008 	lw	v0,-32760(gp)
  4041b4:	00000000 	nop
  4041b8:	28420005 	slti	v0,v0,5
  4041bc:	14400054 	bnez	v0,404310 <main+0x42f8>
  4041c0:	00000000 	nop
  4041c4:	8f82800c 	lw	v0,-32756(gp)
  4041c8:	00000000 	nop
  4041cc:	24420003 	addiu	v0,v0,3
  4041d0:	28420007 	slti	v0,v0,7
  4041d4:	1040004e 	beqz	v0,404310 <main+0x42f8>
  4041d8:	00000000 	nop
  4041dc:	3c020041 	lui	v0,0x41
  4041e0:	8c43bc44 	lw	v1,-17340(v0)
  4041e4:	3c020041 	lui	v0,0x41
  4041e8:	2442bc44 	addiu	v0,v0,-17340
  4041ec:	8c42000c 	lw	v0,12(v0)
  4041f0:	00000000 	nop
  4041f4:	14620046 	bne	v1,v0,404310 <main+0x42f8>
  4041f8:	00000000 	nop
  4041fc:	3c020041 	lui	v0,0x41
  404200:	8c43bc44 	lw	v1,-17340(v0)
  404204:	3c020041 	lui	v0,0x41
  404208:	2442bc44 	addiu	v0,v0,-17340
  40420c:	8c420010 	lw	v0,16(v0)
  404210:	00000000 	nop
  404214:	1462003e 	bne	v1,v0,404310 <main+0x42f8>
  404218:	00000000 	nop
  40421c:	3c020041 	lui	v0,0x41
  404220:	2442bc44 	addiu	v0,v0,-17340
  404224:	8c420004 	lw	v0,4(v0)
  404228:	00000000 	nop
  40422c:	afa20250 	sw	v0,592(sp)
  404230:	3c020041 	lui	v0,0x41
  404234:	8c42bc44 	lw	v0,-17340(v0)
  404238:	00000000 	nop
  40423c:	afa20254 	sw	v0,596(sp)
  404240:	8fa30254 	lw	v1,596(sp)
  404244:	8fa20250 	lw	v0,592(sp)
  404248:	00000000 	nop
  40424c:	0043102a 	slt	v0,v0,v1
  404250:	1040002f 	beqz	v0,404310 <main+0x42f8>
  404254:	00000000 	nop
  404258:	3c020041 	lui	v0,0x41
  40425c:	2442bc44 	addiu	v0,v0,-17340
  404260:	8c430008 	lw	v1,8(v0)
  404264:	3c020041 	lui	v0,0x41
  404268:	ac43bc44 	sw	v1,-17340(v0)
  40426c:	8f828008 	lw	v0,-32760(gp)
  404270:	00000000 	nop
  404274:	2442fffc 	addiu	v0,v0,-4
  404278:	af828008 	sw	v0,-32760(gp)
  40427c:	8fa30250 	lw	v1,592(sp)
  404280:	8fa20254 	lw	v0,596(sp)
  404284:	00000000 	nop
  404288:	00621021 	addu	v0,v1,v0
  40428c:	afa20258 	sw	v0,600(sp)
  404290:	8f83800c 	lw	v1,-32756(gp)
  404294:	3c020041 	lui	v0,0x41
  404298:	00031880 	sll	v1,v1,0x2
  40429c:	2442bc20 	addiu	v0,v0,-17376
  4042a0:	00621021 	addu	v0,v1,v0
  4042a4:	8fa30250 	lw	v1,592(sp)
  4042a8:	00000000 	nop
  4042ac:	ac430000 	sw	v1,0(v0)
  4042b0:	8f82800c 	lw	v0,-32756(gp)
  4042b4:	00000000 	nop
  4042b8:	24430001 	addiu	v1,v0,1
  4042bc:	3c020041 	lui	v0,0x41
  4042c0:	00031880 	sll	v1,v1,0x2
  4042c4:	2442bc20 	addiu	v0,v0,-17376
  4042c8:	00621021 	addu	v0,v1,v0
  4042cc:	8fa30254 	lw	v1,596(sp)
  4042d0:	00000000 	nop
  4042d4:	ac430000 	sw	v1,0(v0)
  4042d8:	8f82800c 	lw	v0,-32756(gp)
  4042dc:	00000000 	nop
  4042e0:	24430002 	addiu	v1,v0,2
  4042e4:	3c020041 	lui	v0,0x41
  4042e8:	00031880 	sll	v1,v1,0x2
  4042ec:	2442bc20 	addiu	v0,v0,-17376
  4042f0:	00621021 	addu	v0,v1,v0
  4042f4:	8fa30258 	lw	v1,600(sp)
  4042f8:	00000000 	nop
  4042fc:	ac430000 	sw	v1,0(v0)
  404300:	8f82800c 	lw	v0,-32756(gp)
  404304:	00000000 	nop
  404308:	24420003 	addiu	v0,v0,3
  40430c:	af82800c 	sw	v0,-32756(gp)
  404310:	8f828008 	lw	v0,-32760(gp)
  404314:	00000000 	nop
  404318:	28420005 	slti	v0,v0,5
  40431c:	14400054 	bnez	v0,404470 <main+0x4458>
  404320:	00000000 	nop
  404324:	8f82800c 	lw	v0,-32756(gp)
  404328:	00000000 	nop
  40432c:	24420003 	addiu	v0,v0,3
  404330:	28420007 	slti	v0,v0,7
  404334:	1040004e 	beqz	v0,404470 <main+0x4458>
  404338:	00000000 	nop
  40433c:	3c020041 	lui	v0,0x41
  404340:	8c43bc44 	lw	v1,-17340(v0)
  404344:	3c020041 	lui	v0,0x41
  404348:	2442bc44 	addiu	v0,v0,-17340
  40434c:	8c420010 	lw	v0,16(v0)
  404350:	00000000 	nop
  404354:	14620046 	bne	v1,v0,404470 <main+0x4458>
  404358:	00000000 	nop
  40435c:	3c020041 	lui	v0,0x41
  404360:	8c43bc44 	lw	v1,-17340(v0)
  404364:	3c020041 	lui	v0,0x41
  404368:	2442bc44 	addiu	v0,v0,-17340
  40436c:	8c420008 	lw	v0,8(v0)
  404370:	00000000 	nop
  404374:	1462003e 	bne	v1,v0,404470 <main+0x4458>
  404378:	00000000 	nop
  40437c:	3c020041 	lui	v0,0x41
  404380:	2442bc44 	addiu	v0,v0,-17340
  404384:	8c420004 	lw	v0,4(v0)
  404388:	00000000 	nop
  40438c:	afa2025c 	sw	v0,604(sp)
  404390:	3c020041 	lui	v0,0x41
  404394:	8c42bc44 	lw	v0,-17340(v0)
  404398:	00000000 	nop
  40439c:	afa20260 	sw	v0,608(sp)
  4043a0:	8fa30260 	lw	v1,608(sp)
  4043a4:	8fa2025c 	lw	v0,604(sp)
  4043a8:	00000000 	nop
  4043ac:	0043102a 	slt	v0,v0,v1
  4043b0:	1040002f 	beqz	v0,404470 <main+0x4458>
  4043b4:	00000000 	nop
  4043b8:	3c020041 	lui	v0,0x41
  4043bc:	2442bc44 	addiu	v0,v0,-17340
  4043c0:	8c43000c 	lw	v1,12(v0)
  4043c4:	3c020041 	lui	v0,0x41
  4043c8:	ac43bc44 	sw	v1,-17340(v0)
  4043cc:	8f828008 	lw	v0,-32760(gp)
  4043d0:	00000000 	nop
  4043d4:	2442fffc 	addiu	v0,v0,-4
  4043d8:	af828008 	sw	v0,-32760(gp)
  4043dc:	8fa3025c 	lw	v1,604(sp)
  4043e0:	8fa20260 	lw	v0,608(sp)
  4043e4:	00000000 	nop
  4043e8:	00621021 	addu	v0,v1,v0
  4043ec:	afa20264 	sw	v0,612(sp)
  4043f0:	8f83800c 	lw	v1,-32756(gp)
  4043f4:	3c020041 	lui	v0,0x41
  4043f8:	00031880 	sll	v1,v1,0x2
  4043fc:	2442bc20 	addiu	v0,v0,-17376
  404400:	00621021 	addu	v0,v1,v0
  404404:	8fa3025c 	lw	v1,604(sp)
  404408:	00000000 	nop
  40440c:	ac430000 	sw	v1,0(v0)
  404410:	8f82800c 	lw	v0,-32756(gp)
  404414:	00000000 	nop
  404418:	24430001 	addiu	v1,v0,1
  40441c:	3c020041 	lui	v0,0x41
  404420:	00031880 	sll	v1,v1,0x2
  404424:	2442bc20 	addiu	v0,v0,-17376
  404428:	00621021 	addu	v0,v1,v0
  40442c:	8fa30260 	lw	v1,608(sp)
  404430:	00000000 	nop
  404434:	ac430000 	sw	v1,0(v0)
  404438:	8f82800c 	lw	v0,-32756(gp)
  40443c:	00000000 	nop
  404440:	24430002 	addiu	v1,v0,2
  404444:	3c020041 	lui	v0,0x41
  404448:	00031880 	sll	v1,v1,0x2
  40444c:	2442bc20 	addiu	v0,v0,-17376
  404450:	00621021 	addu	v0,v1,v0
  404454:	8fa30264 	lw	v1,612(sp)
  404458:	00000000 	nop
  40445c:	ac430000 	sw	v1,0(v0)
  404460:	8f82800c 	lw	v0,-32756(gp)
  404464:	00000000 	nop
  404468:	24420003 	addiu	v0,v0,3
  40446c:	af82800c 	sw	v0,-32756(gp)
  404470:	8f828008 	lw	v0,-32760(gp)
  404474:	00000000 	nop
  404478:	28420005 	slti	v0,v0,5
  40447c:	14400054 	bnez	v0,4045d0 <main+0x45b8>
  404480:	00000000 	nop
  404484:	8f82800c 	lw	v0,-32756(gp)
  404488:	00000000 	nop
  40448c:	24420003 	addiu	v0,v0,3
  404490:	28420007 	slti	v0,v0,7
  404494:	1040004e 	beqz	v0,4045d0 <main+0x45b8>
  404498:	00000000 	nop
  40449c:	3c020041 	lui	v0,0x41
  4044a0:	8c43bc44 	lw	v1,-17340(v0)
  4044a4:	3c020041 	lui	v0,0x41
  4044a8:	2442bc44 	addiu	v0,v0,-17340
  4044ac:	8c420010 	lw	v0,16(v0)
  4044b0:	00000000 	nop
  4044b4:	14620046 	bne	v1,v0,4045d0 <main+0x45b8>
  4044b8:	00000000 	nop
  4044bc:	3c020041 	lui	v0,0x41
  4044c0:	8c43bc44 	lw	v1,-17340(v0)
  4044c4:	3c020041 	lui	v0,0x41
  4044c8:	2442bc44 	addiu	v0,v0,-17340
  4044cc:	8c42000c 	lw	v0,12(v0)
  4044d0:	00000000 	nop
  4044d4:	1462003e 	bne	v1,v0,4045d0 <main+0x45b8>
  4044d8:	00000000 	nop
  4044dc:	3c020041 	lui	v0,0x41
  4044e0:	2442bc44 	addiu	v0,v0,-17340
  4044e4:	8c420004 	lw	v0,4(v0)
  4044e8:	00000000 	nop
  4044ec:	afa20268 	sw	v0,616(sp)
  4044f0:	3c020041 	lui	v0,0x41
  4044f4:	8c42bc44 	lw	v0,-17340(v0)
  4044f8:	00000000 	nop
  4044fc:	afa2026c 	sw	v0,620(sp)
  404500:	8fa3026c 	lw	v1,620(sp)
  404504:	8fa20268 	lw	v0,616(sp)
  404508:	00000000 	nop
  40450c:	0043102a 	slt	v0,v0,v1
  404510:	1040002f 	beqz	v0,4045d0 <main+0x45b8>
  404514:	00000000 	nop
  404518:	3c020041 	lui	v0,0x41
  40451c:	2442bc44 	addiu	v0,v0,-17340
  404520:	8c430008 	lw	v1,8(v0)
  404524:	3c020041 	lui	v0,0x41
  404528:	ac43bc44 	sw	v1,-17340(v0)
  40452c:	8f828008 	lw	v0,-32760(gp)
  404530:	00000000 	nop
  404534:	2442fffc 	addiu	v0,v0,-4
  404538:	af828008 	sw	v0,-32760(gp)
  40453c:	8fa30268 	lw	v1,616(sp)
  404540:	8fa2026c 	lw	v0,620(sp)
  404544:	00000000 	nop
  404548:	00621021 	addu	v0,v1,v0
  40454c:	afa20270 	sw	v0,624(sp)
  404550:	8f83800c 	lw	v1,-32756(gp)
  404554:	3c020041 	lui	v0,0x41
  404558:	00031880 	sll	v1,v1,0x2
  40455c:	2442bc20 	addiu	v0,v0,-17376
  404560:	00621021 	addu	v0,v1,v0
  404564:	8fa30268 	lw	v1,616(sp)
  404568:	00000000 	nop
  40456c:	ac430000 	sw	v1,0(v0)
  404570:	8f82800c 	lw	v0,-32756(gp)
  404574:	00000000 	nop
  404578:	24430001 	addiu	v1,v0,1
  40457c:	3c020041 	lui	v0,0x41
  404580:	00031880 	sll	v1,v1,0x2
  404584:	2442bc20 	addiu	v0,v0,-17376
  404588:	00621021 	addu	v0,v1,v0
  40458c:	8fa3026c 	lw	v1,620(sp)
  404590:	00000000 	nop
  404594:	ac430000 	sw	v1,0(v0)
  404598:	8f82800c 	lw	v0,-32756(gp)
  40459c:	00000000 	nop
  4045a0:	24430002 	addiu	v1,v0,2
  4045a4:	3c020041 	lui	v0,0x41
  4045a8:	00031880 	sll	v1,v1,0x2
  4045ac:	2442bc20 	addiu	v0,v0,-17376
  4045b0:	00621021 	addu	v0,v1,v0
  4045b4:	8fa30270 	lw	v1,624(sp)
  4045b8:	00000000 	nop
  4045bc:	ac430000 	sw	v1,0(v0)
  4045c0:	8f82800c 	lw	v0,-32756(gp)
  4045c4:	00000000 	nop
  4045c8:	24420003 	addiu	v0,v0,3
  4045cc:	af82800c 	sw	v0,-32756(gp)
  4045d0:	8f828008 	lw	v0,-32760(gp)
  4045d4:	00000000 	nop
  4045d8:	28420005 	slti	v0,v0,5
  4045dc:	14400056 	bnez	v0,404738 <main+0x4720>
  4045e0:	00000000 	nop
  4045e4:	8f82800c 	lw	v0,-32756(gp)
  4045e8:	00000000 	nop
  4045ec:	24420003 	addiu	v0,v0,3
  4045f0:	28420007 	slti	v0,v0,7
  4045f4:	10400050 	beqz	v0,404738 <main+0x4720>
  4045f8:	00000000 	nop
  4045fc:	3c020041 	lui	v0,0x41
  404600:	2442bc44 	addiu	v0,v0,-17340
  404604:	8c430008 	lw	v1,8(v0)
  404608:	3c020041 	lui	v0,0x41
  40460c:	8c42bc44 	lw	v0,-17340(v0)
  404610:	00000000 	nop
  404614:	14620048 	bne	v1,v0,404738 <main+0x4720>
  404618:	00000000 	nop
  40461c:	3c020041 	lui	v0,0x41
  404620:	2442bc44 	addiu	v0,v0,-17340
  404624:	8c430008 	lw	v1,8(v0)
  404628:	3c020041 	lui	v0,0x41
  40462c:	2442bc44 	addiu	v0,v0,-17340
  404630:	8c420010 	lw	v0,16(v0)
  404634:	00000000 	nop
  404638:	1462003f 	bne	v1,v0,404738 <main+0x4720>
  40463c:	00000000 	nop
  404640:	3c020041 	lui	v0,0x41
  404644:	2442bc44 	addiu	v0,v0,-17340
  404648:	8c420004 	lw	v0,4(v0)
  40464c:	00000000 	nop
  404650:	afa20274 	sw	v0,628(sp)
  404654:	3c020041 	lui	v0,0x41
  404658:	2442bc44 	addiu	v0,v0,-17340
  40465c:	8c420008 	lw	v0,8(v0)
  404660:	00000000 	nop
  404664:	afa20278 	sw	v0,632(sp)
  404668:	8fa30278 	lw	v1,632(sp)
  40466c:	8fa20274 	lw	v0,628(sp)
  404670:	00000000 	nop
  404674:	0043102a 	slt	v0,v0,v1
  404678:	1040002f 	beqz	v0,404738 <main+0x4720>
  40467c:	00000000 	nop
  404680:	3c020041 	lui	v0,0x41
  404684:	2442bc44 	addiu	v0,v0,-17340
  404688:	8c43000c 	lw	v1,12(v0)
  40468c:	3c020041 	lui	v0,0x41
  404690:	ac43bc44 	sw	v1,-17340(v0)
  404694:	8f828008 	lw	v0,-32760(gp)
  404698:	00000000 	nop
  40469c:	2442fffc 	addiu	v0,v0,-4
  4046a0:	af828008 	sw	v0,-32760(gp)
  4046a4:	8fa30274 	lw	v1,628(sp)
  4046a8:	8fa20278 	lw	v0,632(sp)
  4046ac:	00000000 	nop
  4046b0:	00621021 	addu	v0,v1,v0
  4046b4:	afa2027c 	sw	v0,636(sp)
  4046b8:	8f83800c 	lw	v1,-32756(gp)
  4046bc:	3c020041 	lui	v0,0x41
  4046c0:	00031880 	sll	v1,v1,0x2
  4046c4:	2442bc20 	addiu	v0,v0,-17376
  4046c8:	00621021 	addu	v0,v1,v0
  4046cc:	8fa30274 	lw	v1,628(sp)
  4046d0:	00000000 	nop
  4046d4:	ac430000 	sw	v1,0(v0)
  4046d8:	8f82800c 	lw	v0,-32756(gp)
  4046dc:	00000000 	nop
  4046e0:	24430001 	addiu	v1,v0,1
  4046e4:	3c020041 	lui	v0,0x41
  4046e8:	00031880 	sll	v1,v1,0x2
  4046ec:	2442bc20 	addiu	v0,v0,-17376
  4046f0:	00621021 	addu	v0,v1,v0
  4046f4:	8fa30278 	lw	v1,632(sp)
  4046f8:	00000000 	nop
  4046fc:	ac430000 	sw	v1,0(v0)
  404700:	8f82800c 	lw	v0,-32756(gp)
  404704:	00000000 	nop
  404708:	24430002 	addiu	v1,v0,2
  40470c:	3c020041 	lui	v0,0x41
  404710:	00031880 	sll	v1,v1,0x2
  404714:	2442bc20 	addiu	v0,v0,-17376
  404718:	00621021 	addu	v0,v1,v0
  40471c:	8fa3027c 	lw	v1,636(sp)
  404720:	00000000 	nop
  404724:	ac430000 	sw	v1,0(v0)
  404728:	8f82800c 	lw	v0,-32756(gp)
  40472c:	00000000 	nop
  404730:	24420003 	addiu	v0,v0,3
  404734:	af82800c 	sw	v0,-32756(gp)
  404738:	8f828008 	lw	v0,-32760(gp)
  40473c:	00000000 	nop
  404740:	28420005 	slti	v0,v0,5
  404744:	14400052 	bnez	v0,404890 <main+0x4878>
  404748:	00000000 	nop
  40474c:	8f82800c 	lw	v0,-32756(gp)
  404750:	00000000 	nop
  404754:	24420003 	addiu	v0,v0,3
  404758:	28420007 	slti	v0,v0,7
  40475c:	1040004c 	beqz	v0,404890 <main+0x4878>
  404760:	00000000 	nop
  404764:	3c020041 	lui	v0,0x41
  404768:	2442bc44 	addiu	v0,v0,-17340
  40476c:	8c430008 	lw	v1,8(v0)
  404770:	3c020041 	lui	v0,0x41
  404774:	2442bc44 	addiu	v0,v0,-17340
  404778:	8c42000c 	lw	v0,12(v0)
  40477c:	00000000 	nop
  404780:	14620043 	bne	v1,v0,404890 <main+0x4878>
  404784:	00000000 	nop
  404788:	3c020041 	lui	v0,0x41
  40478c:	2442bc44 	addiu	v0,v0,-17340
  404790:	8c430008 	lw	v1,8(v0)
  404794:	3c020041 	lui	v0,0x41
  404798:	2442bc44 	addiu	v0,v0,-17340
  40479c:	8c420010 	lw	v0,16(v0)
  4047a0:	00000000 	nop
  4047a4:	1462003a 	bne	v1,v0,404890 <main+0x4878>
  4047a8:	00000000 	nop
  4047ac:	3c020041 	lui	v0,0x41
  4047b0:	2442bc44 	addiu	v0,v0,-17340
  4047b4:	8c420004 	lw	v0,4(v0)
  4047b8:	00000000 	nop
  4047bc:	afa20280 	sw	v0,640(sp)
  4047c0:	3c020041 	lui	v0,0x41
  4047c4:	2442bc44 	addiu	v0,v0,-17340
  4047c8:	8c420008 	lw	v0,8(v0)
  4047cc:	00000000 	nop
  4047d0:	afa20284 	sw	v0,644(sp)
  4047d4:	8fa30284 	lw	v1,644(sp)
  4047d8:	8fa20280 	lw	v0,640(sp)
  4047dc:	00000000 	nop
  4047e0:	0043102a 	slt	v0,v0,v1
  4047e4:	1040002a 	beqz	v0,404890 <main+0x4878>
  4047e8:	00000000 	nop
  4047ec:	8f828008 	lw	v0,-32760(gp)
  4047f0:	00000000 	nop
  4047f4:	2442fffc 	addiu	v0,v0,-4
  4047f8:	af828008 	sw	v0,-32760(gp)
  4047fc:	8fa30280 	lw	v1,640(sp)
  404800:	8fa20284 	lw	v0,644(sp)
  404804:	00000000 	nop
  404808:	00621021 	addu	v0,v1,v0
  40480c:	afa20288 	sw	v0,648(sp)
  404810:	8f83800c 	lw	v1,-32756(gp)
  404814:	3c020041 	lui	v0,0x41
  404818:	00031880 	sll	v1,v1,0x2
  40481c:	2442bc20 	addiu	v0,v0,-17376
  404820:	00621021 	addu	v0,v1,v0
  404824:	8fa30280 	lw	v1,640(sp)
  404828:	00000000 	nop
  40482c:	ac430000 	sw	v1,0(v0)
  404830:	8f82800c 	lw	v0,-32756(gp)
  404834:	00000000 	nop
  404838:	24430001 	addiu	v1,v0,1
  40483c:	3c020041 	lui	v0,0x41
  404840:	00031880 	sll	v1,v1,0x2
  404844:	2442bc20 	addiu	v0,v0,-17376
  404848:	00621021 	addu	v0,v1,v0
  40484c:	8fa30284 	lw	v1,644(sp)
  404850:	00000000 	nop
  404854:	ac430000 	sw	v1,0(v0)
  404858:	8f82800c 	lw	v0,-32756(gp)
  40485c:	00000000 	nop
  404860:	24430002 	addiu	v1,v0,2
  404864:	3c020041 	lui	v0,0x41
  404868:	00031880 	sll	v1,v1,0x2
  40486c:	2442bc20 	addiu	v0,v0,-17376
  404870:	00621021 	addu	v0,v1,v0
  404874:	8fa30288 	lw	v1,648(sp)
  404878:	00000000 	nop
  40487c:	ac430000 	sw	v1,0(v0)
  404880:	8f82800c 	lw	v0,-32756(gp)
  404884:	00000000 	nop
  404888:	24420003 	addiu	v0,v0,3
  40488c:	af82800c 	sw	v0,-32756(gp)
  404890:	8f828008 	lw	v0,-32760(gp)
  404894:	00000000 	nop
  404898:	28420005 	slti	v0,v0,5
  40489c:	14400056 	bnez	v0,4049f8 <main+0x49e0>
  4048a0:	00000000 	nop
  4048a4:	8f82800c 	lw	v0,-32756(gp)
  4048a8:	00000000 	nop
  4048ac:	24420003 	addiu	v0,v0,3
  4048b0:	28420007 	slti	v0,v0,7
  4048b4:	10400050 	beqz	v0,4049f8 <main+0x49e0>
  4048b8:	00000000 	nop
  4048bc:	3c020041 	lui	v0,0x41
  4048c0:	2442bc44 	addiu	v0,v0,-17340
  4048c4:	8c430008 	lw	v1,8(v0)
  4048c8:	3c020041 	lui	v0,0x41
  4048cc:	2442bc44 	addiu	v0,v0,-17340
  4048d0:	8c420010 	lw	v0,16(v0)
  4048d4:	00000000 	nop
  4048d8:	14620047 	bne	v1,v0,4049f8 <main+0x49e0>
  4048dc:	00000000 	nop
  4048e0:	3c020041 	lui	v0,0x41
  4048e4:	2442bc44 	addiu	v0,v0,-17340
  4048e8:	8c430008 	lw	v1,8(v0)
  4048ec:	3c020041 	lui	v0,0x41
  4048f0:	8c42bc44 	lw	v0,-17340(v0)
  4048f4:	00000000 	nop
  4048f8:	1462003f 	bne	v1,v0,4049f8 <main+0x49e0>
  4048fc:	00000000 	nop
  404900:	3c020041 	lui	v0,0x41
  404904:	2442bc44 	addiu	v0,v0,-17340
  404908:	8c420004 	lw	v0,4(v0)
  40490c:	00000000 	nop
  404910:	afa2028c 	sw	v0,652(sp)
  404914:	3c020041 	lui	v0,0x41
  404918:	2442bc44 	addiu	v0,v0,-17340
  40491c:	8c420008 	lw	v0,8(v0)
  404920:	00000000 	nop
  404924:	afa20290 	sw	v0,656(sp)
  404928:	8fa30290 	lw	v1,656(sp)
  40492c:	8fa2028c 	lw	v0,652(sp)
  404930:	00000000 	nop
  404934:	0043102a 	slt	v0,v0,v1
  404938:	1040002f 	beqz	v0,4049f8 <main+0x49e0>
  40493c:	00000000 	nop
  404940:	3c020041 	lui	v0,0x41
  404944:	2442bc44 	addiu	v0,v0,-17340
  404948:	8c43000c 	lw	v1,12(v0)
  40494c:	3c020041 	lui	v0,0x41
  404950:	ac43bc44 	sw	v1,-17340(v0)
  404954:	8f828008 	lw	v0,-32760(gp)
  404958:	00000000 	nop
  40495c:	2442fffc 	addiu	v0,v0,-4
  404960:	af828008 	sw	v0,-32760(gp)
  404964:	8fa3028c 	lw	v1,652(sp)
  404968:	8fa20290 	lw	v0,656(sp)
  40496c:	00000000 	nop
  404970:	00621021 	addu	v0,v1,v0
  404974:	afa20294 	sw	v0,660(sp)
  404978:	8f83800c 	lw	v1,-32756(gp)
  40497c:	3c020041 	lui	v0,0x41
  404980:	00031880 	sll	v1,v1,0x2
  404984:	2442bc20 	addiu	v0,v0,-17376
  404988:	00621021 	addu	v0,v1,v0
  40498c:	8fa3028c 	lw	v1,652(sp)
  404990:	00000000 	nop
  404994:	ac430000 	sw	v1,0(v0)
  404998:	8f82800c 	lw	v0,-32756(gp)
  40499c:	00000000 	nop
  4049a0:	24430001 	addiu	v1,v0,1
  4049a4:	3c020041 	lui	v0,0x41
  4049a8:	00031880 	sll	v1,v1,0x2
  4049ac:	2442bc20 	addiu	v0,v0,-17376
  4049b0:	00621021 	addu	v0,v1,v0
  4049b4:	8fa30290 	lw	v1,656(sp)
  4049b8:	00000000 	nop
  4049bc:	ac430000 	sw	v1,0(v0)
  4049c0:	8f82800c 	lw	v0,-32756(gp)
  4049c4:	00000000 	nop
  4049c8:	24430002 	addiu	v1,v0,2
  4049cc:	3c020041 	lui	v0,0x41
  4049d0:	00031880 	sll	v1,v1,0x2
  4049d4:	2442bc20 	addiu	v0,v0,-17376
  4049d8:	00621021 	addu	v0,v1,v0
  4049dc:	8fa30294 	lw	v1,660(sp)
  4049e0:	00000000 	nop
  4049e4:	ac430000 	sw	v1,0(v0)
  4049e8:	8f82800c 	lw	v0,-32756(gp)
  4049ec:	00000000 	nop
  4049f0:	24420003 	addiu	v0,v0,3
  4049f4:	af82800c 	sw	v0,-32756(gp)
  4049f8:	8f828008 	lw	v0,-32760(gp)
  4049fc:	00000000 	nop
  404a00:	28420005 	slti	v0,v0,5
  404a04:	14400052 	bnez	v0,404b50 <main+0x4b38>
  404a08:	00000000 	nop
  404a0c:	8f82800c 	lw	v0,-32756(gp)
  404a10:	00000000 	nop
  404a14:	24420003 	addiu	v0,v0,3
  404a18:	28420007 	slti	v0,v0,7
  404a1c:	1040004c 	beqz	v0,404b50 <main+0x4b38>
  404a20:	00000000 	nop
  404a24:	3c020041 	lui	v0,0x41
  404a28:	2442bc44 	addiu	v0,v0,-17340
  404a2c:	8c430008 	lw	v1,8(v0)
  404a30:	3c020041 	lui	v0,0x41
  404a34:	2442bc44 	addiu	v0,v0,-17340
  404a38:	8c420010 	lw	v0,16(v0)
  404a3c:	00000000 	nop
  404a40:	14620043 	bne	v1,v0,404b50 <main+0x4b38>
  404a44:	00000000 	nop
  404a48:	3c020041 	lui	v0,0x41
  404a4c:	2442bc44 	addiu	v0,v0,-17340
  404a50:	8c430008 	lw	v1,8(v0)
  404a54:	3c020041 	lui	v0,0x41
  404a58:	2442bc44 	addiu	v0,v0,-17340
  404a5c:	8c42000c 	lw	v0,12(v0)
  404a60:	00000000 	nop
  404a64:	1462003a 	bne	v1,v0,404b50 <main+0x4b38>
  404a68:	00000000 	nop
  404a6c:	3c020041 	lui	v0,0x41
  404a70:	2442bc44 	addiu	v0,v0,-17340
  404a74:	8c420004 	lw	v0,4(v0)
  404a78:	00000000 	nop
  404a7c:	afa20298 	sw	v0,664(sp)
  404a80:	3c020041 	lui	v0,0x41
  404a84:	2442bc44 	addiu	v0,v0,-17340
  404a88:	8c420008 	lw	v0,8(v0)
  404a8c:	00000000 	nop
  404a90:	afa2029c 	sw	v0,668(sp)
  404a94:	8fa3029c 	lw	v1,668(sp)
  404a98:	8fa20298 	lw	v0,664(sp)
  404a9c:	00000000 	nop
  404aa0:	0043102a 	slt	v0,v0,v1
  404aa4:	1040002a 	beqz	v0,404b50 <main+0x4b38>
  404aa8:	00000000 	nop
  404aac:	8f828008 	lw	v0,-32760(gp)
  404ab0:	00000000 	nop
  404ab4:	2442fffc 	addiu	v0,v0,-4
  404ab8:	af828008 	sw	v0,-32760(gp)
  404abc:	8fa30298 	lw	v1,664(sp)
  404ac0:	8fa2029c 	lw	v0,668(sp)
  404ac4:	00000000 	nop
  404ac8:	00621021 	addu	v0,v1,v0
  404acc:	afa202a0 	sw	v0,672(sp)
  404ad0:	8f83800c 	lw	v1,-32756(gp)
  404ad4:	3c020041 	lui	v0,0x41
  404ad8:	00031880 	sll	v1,v1,0x2
  404adc:	2442bc20 	addiu	v0,v0,-17376
  404ae0:	00621021 	addu	v0,v1,v0
  404ae4:	8fa30298 	lw	v1,664(sp)
  404ae8:	00000000 	nop
  404aec:	ac430000 	sw	v1,0(v0)
  404af0:	8f82800c 	lw	v0,-32756(gp)
  404af4:	00000000 	nop
  404af8:	24430001 	addiu	v1,v0,1
  404afc:	3c020041 	lui	v0,0x41
  404b00:	00031880 	sll	v1,v1,0x2
  404b04:	2442bc20 	addiu	v0,v0,-17376
  404b08:	00621021 	addu	v0,v1,v0
  404b0c:	8fa3029c 	lw	v1,668(sp)
  404b10:	00000000 	nop
  404b14:	ac430000 	sw	v1,0(v0)
  404b18:	8f82800c 	lw	v0,-32756(gp)
  404b1c:	00000000 	nop
  404b20:	24430002 	addiu	v1,v0,2
  404b24:	3c020041 	lui	v0,0x41
  404b28:	00031880 	sll	v1,v1,0x2
  404b2c:	2442bc20 	addiu	v0,v0,-17376
  404b30:	00621021 	addu	v0,v1,v0
  404b34:	8fa302a0 	lw	v1,672(sp)
  404b38:	00000000 	nop
  404b3c:	ac430000 	sw	v1,0(v0)
  404b40:	8f82800c 	lw	v0,-32756(gp)
  404b44:	00000000 	nop
  404b48:	24420003 	addiu	v0,v0,3
  404b4c:	af82800c 	sw	v0,-32756(gp)
  404b50:	8f828008 	lw	v0,-32760(gp)
  404b54:	00000000 	nop
  404b58:	28420005 	slti	v0,v0,5
  404b5c:	14400056 	bnez	v0,404cb8 <main+0x4ca0>
  404b60:	00000000 	nop
  404b64:	8f82800c 	lw	v0,-32756(gp)
  404b68:	00000000 	nop
  404b6c:	24420003 	addiu	v0,v0,3
  404b70:	28420007 	slti	v0,v0,7
  404b74:	10400050 	beqz	v0,404cb8 <main+0x4ca0>
  404b78:	00000000 	nop
  404b7c:	3c020041 	lui	v0,0x41
  404b80:	2442bc44 	addiu	v0,v0,-17340
  404b84:	8c43000c 	lw	v1,12(v0)
  404b88:	3c020041 	lui	v0,0x41
  404b8c:	8c42bc44 	lw	v0,-17340(v0)
  404b90:	00000000 	nop
  404b94:	14620048 	bne	v1,v0,404cb8 <main+0x4ca0>
  404b98:	00000000 	nop
  404b9c:	3c020041 	lui	v0,0x41
  404ba0:	2442bc44 	addiu	v0,v0,-17340
  404ba4:	8c43000c 	lw	v1,12(v0)
  404ba8:	3c020041 	lui	v0,0x41
  404bac:	2442bc44 	addiu	v0,v0,-17340
  404bb0:	8c420010 	lw	v0,16(v0)
  404bb4:	00000000 	nop
  404bb8:	1462003f 	bne	v1,v0,404cb8 <main+0x4ca0>
  404bbc:	00000000 	nop
  404bc0:	3c020041 	lui	v0,0x41
  404bc4:	2442bc44 	addiu	v0,v0,-17340
  404bc8:	8c420004 	lw	v0,4(v0)
  404bcc:	00000000 	nop
  404bd0:	afa202a4 	sw	v0,676(sp)
  404bd4:	3c020041 	lui	v0,0x41
  404bd8:	2442bc44 	addiu	v0,v0,-17340
  404bdc:	8c42000c 	lw	v0,12(v0)
  404be0:	00000000 	nop
  404be4:	afa202a8 	sw	v0,680(sp)
  404be8:	8fa302a8 	lw	v1,680(sp)
  404bec:	8fa202a4 	lw	v0,676(sp)
  404bf0:	00000000 	nop
  404bf4:	0043102a 	slt	v0,v0,v1
  404bf8:	1040002f 	beqz	v0,404cb8 <main+0x4ca0>
  404bfc:	00000000 	nop
  404c00:	3c020041 	lui	v0,0x41
  404c04:	2442bc44 	addiu	v0,v0,-17340
  404c08:	8c430008 	lw	v1,8(v0)
  404c0c:	3c020041 	lui	v0,0x41
  404c10:	ac43bc44 	sw	v1,-17340(v0)
  404c14:	8f828008 	lw	v0,-32760(gp)
  404c18:	00000000 	nop
  404c1c:	2442fffc 	addiu	v0,v0,-4
  404c20:	af828008 	sw	v0,-32760(gp)
  404c24:	8fa302a4 	lw	v1,676(sp)
  404c28:	8fa202a8 	lw	v0,680(sp)
  404c2c:	00000000 	nop
  404c30:	00621021 	addu	v0,v1,v0
  404c34:	afa202ac 	sw	v0,684(sp)
  404c38:	8f83800c 	lw	v1,-32756(gp)
  404c3c:	3c020041 	lui	v0,0x41
  404c40:	00031880 	sll	v1,v1,0x2
  404c44:	2442bc20 	addiu	v0,v0,-17376
  404c48:	00621021 	addu	v0,v1,v0
  404c4c:	8fa302a4 	lw	v1,676(sp)
  404c50:	00000000 	nop
  404c54:	ac430000 	sw	v1,0(v0)
  404c58:	8f82800c 	lw	v0,-32756(gp)
  404c5c:	00000000 	nop
  404c60:	24430001 	addiu	v1,v0,1
  404c64:	3c020041 	lui	v0,0x41
  404c68:	00031880 	sll	v1,v1,0x2
  404c6c:	2442bc20 	addiu	v0,v0,-17376
  404c70:	00621021 	addu	v0,v1,v0
  404c74:	8fa302a8 	lw	v1,680(sp)
  404c78:	00000000 	nop
  404c7c:	ac430000 	sw	v1,0(v0)
  404c80:	8f82800c 	lw	v0,-32756(gp)
  404c84:	00000000 	nop
  404c88:	24430002 	addiu	v1,v0,2
  404c8c:	3c020041 	lui	v0,0x41
  404c90:	00031880 	sll	v1,v1,0x2
  404c94:	2442bc20 	addiu	v0,v0,-17376
  404c98:	00621021 	addu	v0,v1,v0
  404c9c:	8fa302ac 	lw	v1,684(sp)
  404ca0:	00000000 	nop
  404ca4:	ac430000 	sw	v1,0(v0)
  404ca8:	8f82800c 	lw	v0,-32756(gp)
  404cac:	00000000 	nop
  404cb0:	24420003 	addiu	v0,v0,3
  404cb4:	af82800c 	sw	v0,-32756(gp)
  404cb8:	8f828008 	lw	v0,-32760(gp)
  404cbc:	00000000 	nop
  404cc0:	28420005 	slti	v0,v0,5
  404cc4:	14400052 	bnez	v0,404e10 <main+0x4df8>
  404cc8:	00000000 	nop
  404ccc:	8f82800c 	lw	v0,-32756(gp)
  404cd0:	00000000 	nop
  404cd4:	24420003 	addiu	v0,v0,3
  404cd8:	28420007 	slti	v0,v0,7
  404cdc:	1040004c 	beqz	v0,404e10 <main+0x4df8>
  404ce0:	00000000 	nop
  404ce4:	3c020041 	lui	v0,0x41
  404ce8:	2442bc44 	addiu	v0,v0,-17340
  404cec:	8c43000c 	lw	v1,12(v0)
  404cf0:	3c020041 	lui	v0,0x41
  404cf4:	2442bc44 	addiu	v0,v0,-17340
  404cf8:	8c420008 	lw	v0,8(v0)
  404cfc:	00000000 	nop
  404d00:	14620043 	bne	v1,v0,404e10 <main+0x4df8>
  404d04:	00000000 	nop
  404d08:	3c020041 	lui	v0,0x41
  404d0c:	2442bc44 	addiu	v0,v0,-17340
  404d10:	8c43000c 	lw	v1,12(v0)
  404d14:	3c020041 	lui	v0,0x41
  404d18:	2442bc44 	addiu	v0,v0,-17340
  404d1c:	8c420010 	lw	v0,16(v0)
  404d20:	00000000 	nop
  404d24:	1462003a 	bne	v1,v0,404e10 <main+0x4df8>
  404d28:	00000000 	nop
  404d2c:	3c020041 	lui	v0,0x41
  404d30:	2442bc44 	addiu	v0,v0,-17340
  404d34:	8c420004 	lw	v0,4(v0)
  404d38:	00000000 	nop
  404d3c:	afa202b0 	sw	v0,688(sp)
  404d40:	3c020041 	lui	v0,0x41
  404d44:	2442bc44 	addiu	v0,v0,-17340
  404d48:	8c42000c 	lw	v0,12(v0)
  404d4c:	00000000 	nop
  404d50:	afa202b4 	sw	v0,692(sp)
  404d54:	8fa302b4 	lw	v1,692(sp)
  404d58:	8fa202b0 	lw	v0,688(sp)
  404d5c:	00000000 	nop
  404d60:	0043102a 	slt	v0,v0,v1
  404d64:	1040002a 	beqz	v0,404e10 <main+0x4df8>
  404d68:	00000000 	nop
  404d6c:	8f828008 	lw	v0,-32760(gp)
  404d70:	00000000 	nop
  404d74:	2442fffc 	addiu	v0,v0,-4
  404d78:	af828008 	sw	v0,-32760(gp)
  404d7c:	8fa302b0 	lw	v1,688(sp)
  404d80:	8fa202b4 	lw	v0,692(sp)
  404d84:	00000000 	nop
  404d88:	00621021 	addu	v0,v1,v0
  404d8c:	afa202b8 	sw	v0,696(sp)
  404d90:	8f83800c 	lw	v1,-32756(gp)
  404d94:	3c020041 	lui	v0,0x41
  404d98:	00031880 	sll	v1,v1,0x2
  404d9c:	2442bc20 	addiu	v0,v0,-17376
  404da0:	00621021 	addu	v0,v1,v0
  404da4:	8fa302b0 	lw	v1,688(sp)
  404da8:	00000000 	nop
  404dac:	ac430000 	sw	v1,0(v0)
  404db0:	8f82800c 	lw	v0,-32756(gp)
  404db4:	00000000 	nop
  404db8:	24430001 	addiu	v1,v0,1
  404dbc:	3c020041 	lui	v0,0x41
  404dc0:	00031880 	sll	v1,v1,0x2
  404dc4:	2442bc20 	addiu	v0,v0,-17376
  404dc8:	00621021 	addu	v0,v1,v0
  404dcc:	8fa302b4 	lw	v1,692(sp)
  404dd0:	00000000 	nop
  404dd4:	ac430000 	sw	v1,0(v0)
  404dd8:	8f82800c 	lw	v0,-32756(gp)
  404ddc:	00000000 	nop
  404de0:	24430002 	addiu	v1,v0,2
  404de4:	3c020041 	lui	v0,0x41
  404de8:	00031880 	sll	v1,v1,0x2
  404dec:	2442bc20 	addiu	v0,v0,-17376
  404df0:	00621021 	addu	v0,v1,v0
  404df4:	8fa302b8 	lw	v1,696(sp)
  404df8:	00000000 	nop
  404dfc:	ac430000 	sw	v1,0(v0)
  404e00:	8f82800c 	lw	v0,-32756(gp)
  404e04:	00000000 	nop
  404e08:	24420003 	addiu	v0,v0,3
  404e0c:	af82800c 	sw	v0,-32756(gp)
  404e10:	8f828008 	lw	v0,-32760(gp)
  404e14:	00000000 	nop
  404e18:	28420005 	slti	v0,v0,5
  404e1c:	14400056 	bnez	v0,404f78 <main+0x4f60>
  404e20:	00000000 	nop
  404e24:	8f82800c 	lw	v0,-32756(gp)
  404e28:	00000000 	nop
  404e2c:	24420003 	addiu	v0,v0,3
  404e30:	28420007 	slti	v0,v0,7
  404e34:	10400050 	beqz	v0,404f78 <main+0x4f60>
  404e38:	00000000 	nop
  404e3c:	3c020041 	lui	v0,0x41
  404e40:	2442bc44 	addiu	v0,v0,-17340
  404e44:	8c43000c 	lw	v1,12(v0)
  404e48:	3c020041 	lui	v0,0x41
  404e4c:	2442bc44 	addiu	v0,v0,-17340
  404e50:	8c420010 	lw	v0,16(v0)
  404e54:	00000000 	nop
  404e58:	14620047 	bne	v1,v0,404f78 <main+0x4f60>
  404e5c:	00000000 	nop
  404e60:	3c020041 	lui	v0,0x41
  404e64:	2442bc44 	addiu	v0,v0,-17340
  404e68:	8c43000c 	lw	v1,12(v0)
  404e6c:	3c020041 	lui	v0,0x41
  404e70:	8c42bc44 	lw	v0,-17340(v0)
  404e74:	00000000 	nop
  404e78:	1462003f 	bne	v1,v0,404f78 <main+0x4f60>
  404e7c:	00000000 	nop
  404e80:	3c020041 	lui	v0,0x41
  404e84:	2442bc44 	addiu	v0,v0,-17340
  404e88:	8c420004 	lw	v0,4(v0)
  404e8c:	00000000 	nop
  404e90:	afa202bc 	sw	v0,700(sp)
  404e94:	3c020041 	lui	v0,0x41
  404e98:	2442bc44 	addiu	v0,v0,-17340
  404e9c:	8c42000c 	lw	v0,12(v0)
  404ea0:	00000000 	nop
  404ea4:	afa202c0 	sw	v0,704(sp)
  404ea8:	8fa302c0 	lw	v1,704(sp)
  404eac:	8fa202bc 	lw	v0,700(sp)
  404eb0:	00000000 	nop
  404eb4:	0043102a 	slt	v0,v0,v1
  404eb8:	1040002f 	beqz	v0,404f78 <main+0x4f60>
  404ebc:	00000000 	nop
  404ec0:	3c020041 	lui	v0,0x41
  404ec4:	2442bc44 	addiu	v0,v0,-17340
  404ec8:	8c430008 	lw	v1,8(v0)
  404ecc:	3c020041 	lui	v0,0x41
  404ed0:	ac43bc44 	sw	v1,-17340(v0)
  404ed4:	8f828008 	lw	v0,-32760(gp)
  404ed8:	00000000 	nop
  404edc:	2442fffc 	addiu	v0,v0,-4
  404ee0:	af828008 	sw	v0,-32760(gp)
  404ee4:	8fa302bc 	lw	v1,700(sp)
  404ee8:	8fa202c0 	lw	v0,704(sp)
  404eec:	00000000 	nop
  404ef0:	00621021 	addu	v0,v1,v0
  404ef4:	afa202c4 	sw	v0,708(sp)
  404ef8:	8f83800c 	lw	v1,-32756(gp)
  404efc:	3c020041 	lui	v0,0x41
  404f00:	00031880 	sll	v1,v1,0x2
  404f04:	2442bc20 	addiu	v0,v0,-17376
  404f08:	00621021 	addu	v0,v1,v0
  404f0c:	8fa302bc 	lw	v1,700(sp)
  404f10:	00000000 	nop
  404f14:	ac430000 	sw	v1,0(v0)
  404f18:	8f82800c 	lw	v0,-32756(gp)
  404f1c:	00000000 	nop
  404f20:	24430001 	addiu	v1,v0,1
  404f24:	3c020041 	lui	v0,0x41
  404f28:	00031880 	sll	v1,v1,0x2
  404f2c:	2442bc20 	addiu	v0,v0,-17376
  404f30:	00621021 	addu	v0,v1,v0
  404f34:	8fa302c0 	lw	v1,704(sp)
  404f38:	00000000 	nop
  404f3c:	ac430000 	sw	v1,0(v0)
  404f40:	8f82800c 	lw	v0,-32756(gp)
  404f44:	00000000 	nop
  404f48:	24430002 	addiu	v1,v0,2
  404f4c:	3c020041 	lui	v0,0x41
  404f50:	00031880 	sll	v1,v1,0x2
  404f54:	2442bc20 	addiu	v0,v0,-17376
  404f58:	00621021 	addu	v0,v1,v0
  404f5c:	8fa302c4 	lw	v1,708(sp)
  404f60:	00000000 	nop
  404f64:	ac430000 	sw	v1,0(v0)
  404f68:	8f82800c 	lw	v0,-32756(gp)
  404f6c:	00000000 	nop
  404f70:	24420003 	addiu	v0,v0,3
  404f74:	af82800c 	sw	v0,-32756(gp)
  404f78:	8f828008 	lw	v0,-32760(gp)
  404f7c:	00000000 	nop
  404f80:	28420005 	slti	v0,v0,5
  404f84:	14400052 	bnez	v0,4050d0 <main+0x50b8>
  404f88:	00000000 	nop
  404f8c:	8f82800c 	lw	v0,-32756(gp)
  404f90:	00000000 	nop
  404f94:	24420003 	addiu	v0,v0,3
  404f98:	28420007 	slti	v0,v0,7
  404f9c:	1040004c 	beqz	v0,4050d0 <main+0x50b8>
  404fa0:	00000000 	nop
  404fa4:	3c020041 	lui	v0,0x41
  404fa8:	2442bc44 	addiu	v0,v0,-17340
  404fac:	8c43000c 	lw	v1,12(v0)
  404fb0:	3c020041 	lui	v0,0x41
  404fb4:	2442bc44 	addiu	v0,v0,-17340
  404fb8:	8c420010 	lw	v0,16(v0)
  404fbc:	00000000 	nop
  404fc0:	14620043 	bne	v1,v0,4050d0 <main+0x50b8>
  404fc4:	00000000 	nop
  404fc8:	3c020041 	lui	v0,0x41
  404fcc:	2442bc44 	addiu	v0,v0,-17340
  404fd0:	8c43000c 	lw	v1,12(v0)
  404fd4:	3c020041 	lui	v0,0x41
  404fd8:	2442bc44 	addiu	v0,v0,-17340
  404fdc:	8c420008 	lw	v0,8(v0)
  404fe0:	00000000 	nop
  404fe4:	1462003a 	bne	v1,v0,4050d0 <main+0x50b8>
  404fe8:	00000000 	nop
  404fec:	3c020041 	lui	v0,0x41
  404ff0:	2442bc44 	addiu	v0,v0,-17340
  404ff4:	8c420004 	lw	v0,4(v0)
  404ff8:	00000000 	nop
  404ffc:	afa202c8 	sw	v0,712(sp)
  405000:	3c020041 	lui	v0,0x41
  405004:	2442bc44 	addiu	v0,v0,-17340
  405008:	8c42000c 	lw	v0,12(v0)
  40500c:	00000000 	nop
  405010:	afa202cc 	sw	v0,716(sp)
  405014:	8fa302cc 	lw	v1,716(sp)
  405018:	8fa202c8 	lw	v0,712(sp)
  40501c:	00000000 	nop
  405020:	0043102a 	slt	v0,v0,v1
  405024:	1040002a 	beqz	v0,4050d0 <main+0x50b8>
  405028:	00000000 	nop
  40502c:	8f828008 	lw	v0,-32760(gp)
  405030:	00000000 	nop
  405034:	2442fffc 	addiu	v0,v0,-4
  405038:	af828008 	sw	v0,-32760(gp)
  40503c:	8fa302c8 	lw	v1,712(sp)
  405040:	8fa202cc 	lw	v0,716(sp)
  405044:	00000000 	nop
  405048:	00621021 	addu	v0,v1,v0
  40504c:	afa202d0 	sw	v0,720(sp)
  405050:	8f83800c 	lw	v1,-32756(gp)
  405054:	3c020041 	lui	v0,0x41
  405058:	00031880 	sll	v1,v1,0x2
  40505c:	2442bc20 	addiu	v0,v0,-17376
  405060:	00621021 	addu	v0,v1,v0
  405064:	8fa302c8 	lw	v1,712(sp)
  405068:	00000000 	nop
  40506c:	ac430000 	sw	v1,0(v0)
  405070:	8f82800c 	lw	v0,-32756(gp)
  405074:	00000000 	nop
  405078:	24430001 	addiu	v1,v0,1
  40507c:	3c020041 	lui	v0,0x41
  405080:	00031880 	sll	v1,v1,0x2
  405084:	2442bc20 	addiu	v0,v0,-17376
  405088:	00621021 	addu	v0,v1,v0
  40508c:	8fa302cc 	lw	v1,716(sp)
  405090:	00000000 	nop
  405094:	ac430000 	sw	v1,0(v0)
  405098:	8f82800c 	lw	v0,-32756(gp)
  40509c:	00000000 	nop
  4050a0:	24430002 	addiu	v1,v0,2
  4050a4:	3c020041 	lui	v0,0x41
  4050a8:	00031880 	sll	v1,v1,0x2
  4050ac:	2442bc20 	addiu	v0,v0,-17376
  4050b0:	00621021 	addu	v0,v1,v0
  4050b4:	8fa302d0 	lw	v1,720(sp)
  4050b8:	00000000 	nop
  4050bc:	ac430000 	sw	v1,0(v0)
  4050c0:	8f82800c 	lw	v0,-32756(gp)
  4050c4:	00000000 	nop
  4050c8:	24420003 	addiu	v0,v0,3
  4050cc:	af82800c 	sw	v0,-32756(gp)
  4050d0:	8f828008 	lw	v0,-32760(gp)
  4050d4:	00000000 	nop
  4050d8:	28420005 	slti	v0,v0,5
  4050dc:	14400056 	bnez	v0,405238 <main+0x5220>
  4050e0:	00000000 	nop
  4050e4:	8f82800c 	lw	v0,-32756(gp)
  4050e8:	00000000 	nop
  4050ec:	24420003 	addiu	v0,v0,3
  4050f0:	28420007 	slti	v0,v0,7
  4050f4:	10400050 	beqz	v0,405238 <main+0x5220>
  4050f8:	00000000 	nop
  4050fc:	3c020041 	lui	v0,0x41
  405100:	2442bc44 	addiu	v0,v0,-17340
  405104:	8c430010 	lw	v1,16(v0)
  405108:	3c020041 	lui	v0,0x41
  40510c:	8c42bc44 	lw	v0,-17340(v0)
  405110:	00000000 	nop
  405114:	14620048 	bne	v1,v0,405238 <main+0x5220>
  405118:	00000000 	nop
  40511c:	3c020041 	lui	v0,0x41
  405120:	2442bc44 	addiu	v0,v0,-17340
  405124:	8c430010 	lw	v1,16(v0)
  405128:	3c020041 	lui	v0,0x41
  40512c:	2442bc44 	addiu	v0,v0,-17340
  405130:	8c420008 	lw	v0,8(v0)
  405134:	00000000 	nop
  405138:	1462003f 	bne	v1,v0,405238 <main+0x5220>
  40513c:	00000000 	nop
  405140:	3c020041 	lui	v0,0x41
  405144:	2442bc44 	addiu	v0,v0,-17340
  405148:	8c420004 	lw	v0,4(v0)
  40514c:	00000000 	nop
  405150:	afa202d4 	sw	v0,724(sp)
  405154:	3c020041 	lui	v0,0x41
  405158:	2442bc44 	addiu	v0,v0,-17340
  40515c:	8c420010 	lw	v0,16(v0)
  405160:	00000000 	nop
  405164:	afa202d8 	sw	v0,728(sp)
  405168:	8fa302d8 	lw	v1,728(sp)
  40516c:	8fa202d4 	lw	v0,724(sp)
  405170:	00000000 	nop
  405174:	0043102a 	slt	v0,v0,v1
  405178:	1040002f 	beqz	v0,405238 <main+0x5220>
  40517c:	00000000 	nop
  405180:	3c020041 	lui	v0,0x41
  405184:	2442bc44 	addiu	v0,v0,-17340
  405188:	8c43000c 	lw	v1,12(v0)
  40518c:	3c020041 	lui	v0,0x41
  405190:	ac43bc44 	sw	v1,-17340(v0)
  405194:	8f828008 	lw	v0,-32760(gp)
  405198:	00000000 	nop
  40519c:	2442fffc 	addiu	v0,v0,-4
  4051a0:	af828008 	sw	v0,-32760(gp)
  4051a4:	8fa302d4 	lw	v1,724(sp)
  4051a8:	8fa202d8 	lw	v0,728(sp)
  4051ac:	00000000 	nop
  4051b0:	00621021 	addu	v0,v1,v0
  4051b4:	afa202dc 	sw	v0,732(sp)
  4051b8:	8f83800c 	lw	v1,-32756(gp)
  4051bc:	3c020041 	lui	v0,0x41
  4051c0:	00031880 	sll	v1,v1,0x2
  4051c4:	2442bc20 	addiu	v0,v0,-17376
  4051c8:	00621021 	addu	v0,v1,v0
  4051cc:	8fa302d4 	lw	v1,724(sp)
  4051d0:	00000000 	nop
  4051d4:	ac430000 	sw	v1,0(v0)
  4051d8:	8f82800c 	lw	v0,-32756(gp)
  4051dc:	00000000 	nop
  4051e0:	24430001 	addiu	v1,v0,1
  4051e4:	3c020041 	lui	v0,0x41
  4051e8:	00031880 	sll	v1,v1,0x2
  4051ec:	2442bc20 	addiu	v0,v0,-17376
  4051f0:	00621021 	addu	v0,v1,v0
  4051f4:	8fa302d8 	lw	v1,728(sp)
  4051f8:	00000000 	nop
  4051fc:	ac430000 	sw	v1,0(v0)
  405200:	8f82800c 	lw	v0,-32756(gp)
  405204:	00000000 	nop
  405208:	24430002 	addiu	v1,v0,2
  40520c:	3c020041 	lui	v0,0x41
  405210:	00031880 	sll	v1,v1,0x2
  405214:	2442bc20 	addiu	v0,v0,-17376
  405218:	00621021 	addu	v0,v1,v0
  40521c:	8fa302dc 	lw	v1,732(sp)
  405220:	00000000 	nop
  405224:	ac430000 	sw	v1,0(v0)
  405228:	8f82800c 	lw	v0,-32756(gp)
  40522c:	00000000 	nop
  405230:	24420003 	addiu	v0,v0,3
  405234:	af82800c 	sw	v0,-32756(gp)
  405238:	8f828008 	lw	v0,-32760(gp)
  40523c:	00000000 	nop
  405240:	28420005 	slti	v0,v0,5
  405244:	14400056 	bnez	v0,4053a0 <main+0x5388>
  405248:	00000000 	nop
  40524c:	8f82800c 	lw	v0,-32756(gp)
  405250:	00000000 	nop
  405254:	24420003 	addiu	v0,v0,3
  405258:	28420007 	slti	v0,v0,7
  40525c:	10400050 	beqz	v0,4053a0 <main+0x5388>
  405260:	00000000 	nop
  405264:	3c020041 	lui	v0,0x41
  405268:	2442bc44 	addiu	v0,v0,-17340
  40526c:	8c430010 	lw	v1,16(v0)
  405270:	3c020041 	lui	v0,0x41
  405274:	8c42bc44 	lw	v0,-17340(v0)
  405278:	00000000 	nop
  40527c:	14620048 	bne	v1,v0,4053a0 <main+0x5388>
  405280:	00000000 	nop
  405284:	3c020041 	lui	v0,0x41
  405288:	2442bc44 	addiu	v0,v0,-17340
  40528c:	8c430010 	lw	v1,16(v0)
  405290:	3c020041 	lui	v0,0x41
  405294:	2442bc44 	addiu	v0,v0,-17340
  405298:	8c42000c 	lw	v0,12(v0)
  40529c:	00000000 	nop
  4052a0:	1462003f 	bne	v1,v0,4053a0 <main+0x5388>
  4052a4:	00000000 	nop
  4052a8:	3c020041 	lui	v0,0x41
  4052ac:	2442bc44 	addiu	v0,v0,-17340
  4052b0:	8c420004 	lw	v0,4(v0)
  4052b4:	00000000 	nop
  4052b8:	afa202e0 	sw	v0,736(sp)
  4052bc:	3c020041 	lui	v0,0x41
  4052c0:	2442bc44 	addiu	v0,v0,-17340
  4052c4:	8c420010 	lw	v0,16(v0)
  4052c8:	00000000 	nop
  4052cc:	afa202e4 	sw	v0,740(sp)
  4052d0:	8fa302e4 	lw	v1,740(sp)
  4052d4:	8fa202e0 	lw	v0,736(sp)
  4052d8:	00000000 	nop
  4052dc:	0043102a 	slt	v0,v0,v1
  4052e0:	1040002f 	beqz	v0,4053a0 <main+0x5388>
  4052e4:	00000000 	nop
  4052e8:	3c020041 	lui	v0,0x41
  4052ec:	2442bc44 	addiu	v0,v0,-17340
  4052f0:	8c430008 	lw	v1,8(v0)
  4052f4:	3c020041 	lui	v0,0x41
  4052f8:	ac43bc44 	sw	v1,-17340(v0)
  4052fc:	8f828008 	lw	v0,-32760(gp)
  405300:	00000000 	nop
  405304:	2442fffc 	addiu	v0,v0,-4
  405308:	af828008 	sw	v0,-32760(gp)
  40530c:	8fa302e0 	lw	v1,736(sp)
  405310:	8fa202e4 	lw	v0,740(sp)
  405314:	00000000 	nop
  405318:	00621021 	addu	v0,v1,v0
  40531c:	afa202e8 	sw	v0,744(sp)
  405320:	8f83800c 	lw	v1,-32756(gp)
  405324:	3c020041 	lui	v0,0x41
  405328:	00031880 	sll	v1,v1,0x2
  40532c:	2442bc20 	addiu	v0,v0,-17376
  405330:	00621021 	addu	v0,v1,v0
  405334:	8fa302e0 	lw	v1,736(sp)
  405338:	00000000 	nop
  40533c:	ac430000 	sw	v1,0(v0)
  405340:	8f82800c 	lw	v0,-32756(gp)
  405344:	00000000 	nop
  405348:	24430001 	addiu	v1,v0,1
  40534c:	3c020041 	lui	v0,0x41
  405350:	00031880 	sll	v1,v1,0x2
  405354:	2442bc20 	addiu	v0,v0,-17376
  405358:	00621021 	addu	v0,v1,v0
  40535c:	8fa302e4 	lw	v1,740(sp)
  405360:	00000000 	nop
  405364:	ac430000 	sw	v1,0(v0)
  405368:	8f82800c 	lw	v0,-32756(gp)
  40536c:	00000000 	nop
  405370:	24430002 	addiu	v1,v0,2
  405374:	3c020041 	lui	v0,0x41
  405378:	00031880 	sll	v1,v1,0x2
  40537c:	2442bc20 	addiu	v0,v0,-17376
  405380:	00621021 	addu	v0,v1,v0
  405384:	8fa302e8 	lw	v1,744(sp)
  405388:	00000000 	nop
  40538c:	ac430000 	sw	v1,0(v0)
  405390:	8f82800c 	lw	v0,-32756(gp)
  405394:	00000000 	nop
  405398:	24420003 	addiu	v0,v0,3
  40539c:	af82800c 	sw	v0,-32756(gp)
  4053a0:	8f828008 	lw	v0,-32760(gp)
  4053a4:	00000000 	nop
  4053a8:	28420005 	slti	v0,v0,5
  4053ac:	14400056 	bnez	v0,405508 <main+0x54f0>
  4053b0:	00000000 	nop
  4053b4:	8f82800c 	lw	v0,-32756(gp)
  4053b8:	00000000 	nop
  4053bc:	24420003 	addiu	v0,v0,3
  4053c0:	28420007 	slti	v0,v0,7
  4053c4:	10400050 	beqz	v0,405508 <main+0x54f0>
  4053c8:	00000000 	nop
  4053cc:	3c020041 	lui	v0,0x41
  4053d0:	2442bc44 	addiu	v0,v0,-17340
  4053d4:	8c430010 	lw	v1,16(v0)
  4053d8:	3c020041 	lui	v0,0x41
  4053dc:	2442bc44 	addiu	v0,v0,-17340
  4053e0:	8c420008 	lw	v0,8(v0)
  4053e4:	00000000 	nop
  4053e8:	14620047 	bne	v1,v0,405508 <main+0x54f0>
  4053ec:	00000000 	nop
  4053f0:	3c020041 	lui	v0,0x41
  4053f4:	2442bc44 	addiu	v0,v0,-17340
  4053f8:	8c430010 	lw	v1,16(v0)
  4053fc:	3c020041 	lui	v0,0x41
  405400:	8c42bc44 	lw	v0,-17340(v0)
  405404:	00000000 	nop
  405408:	1462003f 	bne	v1,v0,405508 <main+0x54f0>
  40540c:	00000000 	nop
  405410:	3c020041 	lui	v0,0x41
  405414:	2442bc44 	addiu	v0,v0,-17340
  405418:	8c420004 	lw	v0,4(v0)
  40541c:	00000000 	nop
  405420:	afa202ec 	sw	v0,748(sp)
  405424:	3c020041 	lui	v0,0x41
  405428:	2442bc44 	addiu	v0,v0,-17340
  40542c:	8c420010 	lw	v0,16(v0)
  405430:	00000000 	nop
  405434:	afa202f0 	sw	v0,752(sp)
  405438:	8fa302f0 	lw	v1,752(sp)
  40543c:	8fa202ec 	lw	v0,748(sp)
  405440:	00000000 	nop
  405444:	0043102a 	slt	v0,v0,v1
  405448:	1040002f 	beqz	v0,405508 <main+0x54f0>
  40544c:	00000000 	nop
  405450:	3c020041 	lui	v0,0x41
  405454:	2442bc44 	addiu	v0,v0,-17340
  405458:	8c43000c 	lw	v1,12(v0)
  40545c:	3c020041 	lui	v0,0x41
  405460:	ac43bc44 	sw	v1,-17340(v0)
  405464:	8f828008 	lw	v0,-32760(gp)
  405468:	00000000 	nop
  40546c:	2442fffc 	addiu	v0,v0,-4
  405470:	af828008 	sw	v0,-32760(gp)
  405474:	8fa302ec 	lw	v1,748(sp)
  405478:	8fa202f0 	lw	v0,752(sp)
  40547c:	00000000 	nop
  405480:	00621021 	addu	v0,v1,v0
  405484:	afa202f4 	sw	v0,756(sp)
  405488:	8f83800c 	lw	v1,-32756(gp)
  40548c:	3c020041 	lui	v0,0x41
  405490:	00031880 	sll	v1,v1,0x2
  405494:	2442bc20 	addiu	v0,v0,-17376
  405498:	00621021 	addu	v0,v1,v0
  40549c:	8fa302ec 	lw	v1,748(sp)
  4054a0:	00000000 	nop
  4054a4:	ac430000 	sw	v1,0(v0)
  4054a8:	8f82800c 	lw	v0,-32756(gp)
  4054ac:	00000000 	nop
  4054b0:	24430001 	addiu	v1,v0,1
  4054b4:	3c020041 	lui	v0,0x41
  4054b8:	00031880 	sll	v1,v1,0x2
  4054bc:	2442bc20 	addiu	v0,v0,-17376
  4054c0:	00621021 	addu	v0,v1,v0
  4054c4:	8fa302f0 	lw	v1,752(sp)
  4054c8:	00000000 	nop
  4054cc:	ac430000 	sw	v1,0(v0)
  4054d0:	8f82800c 	lw	v0,-32756(gp)
  4054d4:	00000000 	nop
  4054d8:	24430002 	addiu	v1,v0,2
  4054dc:	3c020041 	lui	v0,0x41
  4054e0:	00031880 	sll	v1,v1,0x2
  4054e4:	2442bc20 	addiu	v0,v0,-17376
  4054e8:	00621021 	addu	v0,v1,v0
  4054ec:	8fa302f4 	lw	v1,756(sp)
  4054f0:	00000000 	nop
  4054f4:	ac430000 	sw	v1,0(v0)
  4054f8:	8f82800c 	lw	v0,-32756(gp)
  4054fc:	00000000 	nop
  405500:	24420003 	addiu	v0,v0,3
  405504:	af82800c 	sw	v0,-32756(gp)
  405508:	8f828008 	lw	v0,-32760(gp)
  40550c:	00000000 	nop
  405510:	28420005 	slti	v0,v0,5
  405514:	14400052 	bnez	v0,405660 <main+0x5648>
  405518:	00000000 	nop
  40551c:	8f82800c 	lw	v0,-32756(gp)
  405520:	00000000 	nop
  405524:	24420003 	addiu	v0,v0,3
  405528:	28420007 	slti	v0,v0,7
  40552c:	1040004c 	beqz	v0,405660 <main+0x5648>
  405530:	00000000 	nop
  405534:	3c020041 	lui	v0,0x41
  405538:	2442bc44 	addiu	v0,v0,-17340
  40553c:	8c430010 	lw	v1,16(v0)
  405540:	3c020041 	lui	v0,0x41
  405544:	2442bc44 	addiu	v0,v0,-17340
  405548:	8c420008 	lw	v0,8(v0)
  40554c:	00000000 	nop
  405550:	14620043 	bne	v1,v0,405660 <main+0x5648>
  405554:	00000000 	nop
  405558:	3c020041 	lui	v0,0x41
  40555c:	2442bc44 	addiu	v0,v0,-17340
  405560:	8c430010 	lw	v1,16(v0)
  405564:	3c020041 	lui	v0,0x41
  405568:	2442bc44 	addiu	v0,v0,-17340
  40556c:	8c42000c 	lw	v0,12(v0)
  405570:	00000000 	nop
  405574:	1462003a 	bne	v1,v0,405660 <main+0x5648>
  405578:	00000000 	nop
  40557c:	3c020041 	lui	v0,0x41
  405580:	2442bc44 	addiu	v0,v0,-17340
  405584:	8c420004 	lw	v0,4(v0)
  405588:	00000000 	nop
  40558c:	afa202f8 	sw	v0,760(sp)
  405590:	3c020041 	lui	v0,0x41
  405594:	2442bc44 	addiu	v0,v0,-17340
  405598:	8c420010 	lw	v0,16(v0)
  40559c:	00000000 	nop
  4055a0:	afa202fc 	sw	v0,764(sp)
  4055a4:	8fa302fc 	lw	v1,764(sp)
  4055a8:	8fa202f8 	lw	v0,760(sp)
  4055ac:	00000000 	nop
  4055b0:	0043102a 	slt	v0,v0,v1
  4055b4:	1040002a 	beqz	v0,405660 <main+0x5648>
  4055b8:	00000000 	nop
  4055bc:	8f828008 	lw	v0,-32760(gp)
  4055c0:	00000000 	nop
  4055c4:	2442fffc 	addiu	v0,v0,-4
  4055c8:	af828008 	sw	v0,-32760(gp)
  4055cc:	8fa302f8 	lw	v1,760(sp)
  4055d0:	8fa202fc 	lw	v0,764(sp)
  4055d4:	00000000 	nop
  4055d8:	00621021 	addu	v0,v1,v0
  4055dc:	afa20300 	sw	v0,768(sp)
  4055e0:	8f83800c 	lw	v1,-32756(gp)
  4055e4:	3c020041 	lui	v0,0x41
  4055e8:	00031880 	sll	v1,v1,0x2
  4055ec:	2442bc20 	addiu	v0,v0,-17376
  4055f0:	00621021 	addu	v0,v1,v0
  4055f4:	8fa302f8 	lw	v1,760(sp)
  4055f8:	00000000 	nop
  4055fc:	ac430000 	sw	v1,0(v0)
  405600:	8f82800c 	lw	v0,-32756(gp)
  405604:	00000000 	nop
  405608:	24430001 	addiu	v1,v0,1
  40560c:	3c020041 	lui	v0,0x41
  405610:	00031880 	sll	v1,v1,0x2
  405614:	2442bc20 	addiu	v0,v0,-17376
  405618:	00621021 	addu	v0,v1,v0
  40561c:	8fa302fc 	lw	v1,764(sp)
  405620:	00000000 	nop
  405624:	ac430000 	sw	v1,0(v0)
  405628:	8f82800c 	lw	v0,-32756(gp)
  40562c:	00000000 	nop
  405630:	24430002 	addiu	v1,v0,2
  405634:	3c020041 	lui	v0,0x41
  405638:	00031880 	sll	v1,v1,0x2
  40563c:	2442bc20 	addiu	v0,v0,-17376
  405640:	00621021 	addu	v0,v1,v0
  405644:	8fa30300 	lw	v1,768(sp)
  405648:	00000000 	nop
  40564c:	ac430000 	sw	v1,0(v0)
  405650:	8f82800c 	lw	v0,-32756(gp)
  405654:	00000000 	nop
  405658:	24420003 	addiu	v0,v0,3
  40565c:	af82800c 	sw	v0,-32756(gp)
  405660:	8f828008 	lw	v0,-32760(gp)
  405664:	00000000 	nop
  405668:	28420005 	slti	v0,v0,5
  40566c:	14400056 	bnez	v0,4057c8 <main+0x57b0>
  405670:	00000000 	nop
  405674:	8f82800c 	lw	v0,-32756(gp)
  405678:	00000000 	nop
  40567c:	24420003 	addiu	v0,v0,3
  405680:	28420007 	slti	v0,v0,7
  405684:	10400050 	beqz	v0,4057c8 <main+0x57b0>
  405688:	00000000 	nop
  40568c:	3c020041 	lui	v0,0x41
  405690:	2442bc44 	addiu	v0,v0,-17340
  405694:	8c430010 	lw	v1,16(v0)
  405698:	3c020041 	lui	v0,0x41
  40569c:	2442bc44 	addiu	v0,v0,-17340
  4056a0:	8c42000c 	lw	v0,12(v0)
  4056a4:	00000000 	nop
  4056a8:	14620047 	bne	v1,v0,4057c8 <main+0x57b0>
  4056ac:	00000000 	nop
  4056b0:	3c020041 	lui	v0,0x41
  4056b4:	2442bc44 	addiu	v0,v0,-17340
  4056b8:	8c430010 	lw	v1,16(v0)
  4056bc:	3c020041 	lui	v0,0x41
  4056c0:	8c42bc44 	lw	v0,-17340(v0)
  4056c4:	00000000 	nop
  4056c8:	1462003f 	bne	v1,v0,4057c8 <main+0x57b0>
  4056cc:	00000000 	nop
  4056d0:	3c020041 	lui	v0,0x41
  4056d4:	2442bc44 	addiu	v0,v0,-17340
  4056d8:	8c420004 	lw	v0,4(v0)
  4056dc:	00000000 	nop
  4056e0:	afa20304 	sw	v0,772(sp)
  4056e4:	3c020041 	lui	v0,0x41
  4056e8:	2442bc44 	addiu	v0,v0,-17340
  4056ec:	8c420010 	lw	v0,16(v0)
  4056f0:	00000000 	nop
  4056f4:	afa20308 	sw	v0,776(sp)
  4056f8:	8fa30308 	lw	v1,776(sp)
  4056fc:	8fa20304 	lw	v0,772(sp)
  405700:	00000000 	nop
  405704:	0043102a 	slt	v0,v0,v1
  405708:	1040002f 	beqz	v0,4057c8 <main+0x57b0>
  40570c:	00000000 	nop
  405710:	3c020041 	lui	v0,0x41
  405714:	2442bc44 	addiu	v0,v0,-17340
  405718:	8c430008 	lw	v1,8(v0)
  40571c:	3c020041 	lui	v0,0x41
  405720:	ac43bc44 	sw	v1,-17340(v0)
  405724:	8f828008 	lw	v0,-32760(gp)
  405728:	00000000 	nop
  40572c:	2442fffc 	addiu	v0,v0,-4
  405730:	af828008 	sw	v0,-32760(gp)
  405734:	8fa30304 	lw	v1,772(sp)
  405738:	8fa20308 	lw	v0,776(sp)
  40573c:	00000000 	nop
  405740:	00621021 	addu	v0,v1,v0
  405744:	afa2030c 	sw	v0,780(sp)
  405748:	8f83800c 	lw	v1,-32756(gp)
  40574c:	3c020041 	lui	v0,0x41
  405750:	00031880 	sll	v1,v1,0x2
  405754:	2442bc20 	addiu	v0,v0,-17376
  405758:	00621021 	addu	v0,v1,v0
  40575c:	8fa30304 	lw	v1,772(sp)
  405760:	00000000 	nop
  405764:	ac430000 	sw	v1,0(v0)
  405768:	8f82800c 	lw	v0,-32756(gp)
  40576c:	00000000 	nop
  405770:	24430001 	addiu	v1,v0,1
  405774:	3c020041 	lui	v0,0x41
  405778:	00031880 	sll	v1,v1,0x2
  40577c:	2442bc20 	addiu	v0,v0,-17376
  405780:	00621021 	addu	v0,v1,v0
  405784:	8fa30308 	lw	v1,776(sp)
  405788:	00000000 	nop
  40578c:	ac430000 	sw	v1,0(v0)
  405790:	8f82800c 	lw	v0,-32756(gp)
  405794:	00000000 	nop
  405798:	24430002 	addiu	v1,v0,2
  40579c:	3c020041 	lui	v0,0x41
  4057a0:	00031880 	sll	v1,v1,0x2
  4057a4:	2442bc20 	addiu	v0,v0,-17376
  4057a8:	00621021 	addu	v0,v1,v0
  4057ac:	8fa3030c 	lw	v1,780(sp)
  4057b0:	00000000 	nop
  4057b4:	ac430000 	sw	v1,0(v0)
  4057b8:	8f82800c 	lw	v0,-32756(gp)
  4057bc:	00000000 	nop
  4057c0:	24420003 	addiu	v0,v0,3
  4057c4:	af82800c 	sw	v0,-32756(gp)
  4057c8:	8f828008 	lw	v0,-32760(gp)
  4057cc:	00000000 	nop
  4057d0:	28420005 	slti	v0,v0,5
  4057d4:	14400052 	bnez	v0,405920 <main+0x5908>
  4057d8:	00000000 	nop
  4057dc:	8f82800c 	lw	v0,-32756(gp)
  4057e0:	00000000 	nop
  4057e4:	24420003 	addiu	v0,v0,3
  4057e8:	28420007 	slti	v0,v0,7
  4057ec:	1040004c 	beqz	v0,405920 <main+0x5908>
  4057f0:	00000000 	nop
  4057f4:	3c020041 	lui	v0,0x41
  4057f8:	2442bc44 	addiu	v0,v0,-17340
  4057fc:	8c430010 	lw	v1,16(v0)
  405800:	3c020041 	lui	v0,0x41
  405804:	2442bc44 	addiu	v0,v0,-17340
  405808:	8c42000c 	lw	v0,12(v0)
  40580c:	00000000 	nop
  405810:	14620043 	bne	v1,v0,405920 <main+0x5908>
  405814:	00000000 	nop
  405818:	3c020041 	lui	v0,0x41
  40581c:	2442bc44 	addiu	v0,v0,-17340
  405820:	8c430010 	lw	v1,16(v0)
  405824:	3c020041 	lui	v0,0x41
  405828:	2442bc44 	addiu	v0,v0,-17340
  40582c:	8c420008 	lw	v0,8(v0)
  405830:	00000000 	nop
  405834:	1462003a 	bne	v1,v0,405920 <main+0x5908>
  405838:	00000000 	nop
  40583c:	3c020041 	lui	v0,0x41
  405840:	2442bc44 	addiu	v0,v0,-17340
  405844:	8c420004 	lw	v0,4(v0)
  405848:	00000000 	nop
  40584c:	afa20310 	sw	v0,784(sp)
  405850:	3c020041 	lui	v0,0x41
  405854:	2442bc44 	addiu	v0,v0,-17340
  405858:	8c420010 	lw	v0,16(v0)
  40585c:	00000000 	nop
  405860:	afa20314 	sw	v0,788(sp)
  405864:	8fa30314 	lw	v1,788(sp)
  405868:	8fa20310 	lw	v0,784(sp)
  40586c:	00000000 	nop
  405870:	0043102a 	slt	v0,v0,v1
  405874:	1040002a 	beqz	v0,405920 <main+0x5908>
  405878:	00000000 	nop
  40587c:	8f828008 	lw	v0,-32760(gp)
  405880:	00000000 	nop
  405884:	2442fffc 	addiu	v0,v0,-4
  405888:	af828008 	sw	v0,-32760(gp)
  40588c:	8fa30310 	lw	v1,784(sp)
  405890:	8fa20314 	lw	v0,788(sp)
  405894:	00000000 	nop
  405898:	00621021 	addu	v0,v1,v0
  40589c:	afa20318 	sw	v0,792(sp)
  4058a0:	8f83800c 	lw	v1,-32756(gp)
  4058a4:	3c020041 	lui	v0,0x41
  4058a8:	00031880 	sll	v1,v1,0x2
  4058ac:	2442bc20 	addiu	v0,v0,-17376
  4058b0:	00621021 	addu	v0,v1,v0
  4058b4:	8fa30310 	lw	v1,784(sp)
  4058b8:	00000000 	nop
  4058bc:	ac430000 	sw	v1,0(v0)
  4058c0:	8f82800c 	lw	v0,-32756(gp)
  4058c4:	00000000 	nop
  4058c8:	24430001 	addiu	v1,v0,1
  4058cc:	3c020041 	lui	v0,0x41
  4058d0:	00031880 	sll	v1,v1,0x2
  4058d4:	2442bc20 	addiu	v0,v0,-17376
  4058d8:	00621021 	addu	v0,v1,v0
  4058dc:	8fa30314 	lw	v1,788(sp)
  4058e0:	00000000 	nop
  4058e4:	ac430000 	sw	v1,0(v0)
  4058e8:	8f82800c 	lw	v0,-32756(gp)
  4058ec:	00000000 	nop
  4058f0:	24430002 	addiu	v1,v0,2
  4058f4:	3c020041 	lui	v0,0x41
  4058f8:	00031880 	sll	v1,v1,0x2
  4058fc:	2442bc20 	addiu	v0,v0,-17376
  405900:	00621021 	addu	v0,v1,v0
  405904:	8fa30318 	lw	v1,792(sp)
  405908:	00000000 	nop
  40590c:	ac430000 	sw	v1,0(v0)
  405910:	8f82800c 	lw	v0,-32756(gp)
  405914:	00000000 	nop
  405918:	24420003 	addiu	v0,v0,3
  40591c:	af82800c 	sw	v0,-32756(gp)
  405920:	8f828008 	lw	v0,-32760(gp)
  405924:	00000000 	nop
  405928:	28420005 	slti	v0,v0,5
  40592c:	14400054 	bnez	v0,405a80 <main+0x5a68>
  405930:	00000000 	nop
  405934:	8f82800c 	lw	v0,-32756(gp)
  405938:	00000000 	nop
  40593c:	24420003 	addiu	v0,v0,3
  405940:	28420007 	slti	v0,v0,7
  405944:	1040004e 	beqz	v0,405a80 <main+0x5a68>
  405948:	00000000 	nop
  40594c:	3c020041 	lui	v0,0x41
  405950:	8c43bc44 	lw	v1,-17340(v0)
  405954:	3c020041 	lui	v0,0x41
  405958:	2442bc44 	addiu	v0,v0,-17340
  40595c:	8c420004 	lw	v0,4(v0)
  405960:	00000000 	nop
  405964:	14620046 	bne	v1,v0,405a80 <main+0x5a68>
  405968:	00000000 	nop
  40596c:	3c020041 	lui	v0,0x41
  405970:	8c43bc44 	lw	v1,-17340(v0)
  405974:	3c020041 	lui	v0,0x41
  405978:	2442bc44 	addiu	v0,v0,-17340
  40597c:	8c420010 	lw	v0,16(v0)
  405980:	00000000 	nop
  405984:	1462003e 	bne	v1,v0,405a80 <main+0x5a68>
  405988:	00000000 	nop
  40598c:	3c020041 	lui	v0,0x41
  405990:	2442bc44 	addiu	v0,v0,-17340
  405994:	8c420008 	lw	v0,8(v0)
  405998:	00000000 	nop
  40599c:	afa2031c 	sw	v0,796(sp)
  4059a0:	3c020041 	lui	v0,0x41
  4059a4:	8c42bc44 	lw	v0,-17340(v0)
  4059a8:	00000000 	nop
  4059ac:	afa20320 	sw	v0,800(sp)
  4059b0:	8fa30320 	lw	v1,800(sp)
  4059b4:	8fa2031c 	lw	v0,796(sp)
  4059b8:	00000000 	nop
  4059bc:	0043102a 	slt	v0,v0,v1
  4059c0:	1040002f 	beqz	v0,405a80 <main+0x5a68>
  4059c4:	00000000 	nop
  4059c8:	3c020041 	lui	v0,0x41
  4059cc:	2442bc44 	addiu	v0,v0,-17340
  4059d0:	8c43000c 	lw	v1,12(v0)
  4059d4:	3c020041 	lui	v0,0x41
  4059d8:	ac43bc44 	sw	v1,-17340(v0)
  4059dc:	8f828008 	lw	v0,-32760(gp)
  4059e0:	00000000 	nop
  4059e4:	2442fffc 	addiu	v0,v0,-4
  4059e8:	af828008 	sw	v0,-32760(gp)
  4059ec:	8fa3031c 	lw	v1,796(sp)
  4059f0:	8fa20320 	lw	v0,800(sp)
  4059f4:	00000000 	nop
  4059f8:	00621021 	addu	v0,v1,v0
  4059fc:	afa20324 	sw	v0,804(sp)
  405a00:	8f83800c 	lw	v1,-32756(gp)
  405a04:	3c020041 	lui	v0,0x41
  405a08:	00031880 	sll	v1,v1,0x2
  405a0c:	2442bc20 	addiu	v0,v0,-17376
  405a10:	00621021 	addu	v0,v1,v0
  405a14:	8fa3031c 	lw	v1,796(sp)
  405a18:	00000000 	nop
  405a1c:	ac430000 	sw	v1,0(v0)
  405a20:	8f82800c 	lw	v0,-32756(gp)
  405a24:	00000000 	nop
  405a28:	24430001 	addiu	v1,v0,1
  405a2c:	3c020041 	lui	v0,0x41
  405a30:	00031880 	sll	v1,v1,0x2
  405a34:	2442bc20 	addiu	v0,v0,-17376
  405a38:	00621021 	addu	v0,v1,v0
  405a3c:	8fa30320 	lw	v1,800(sp)
  405a40:	00000000 	nop
  405a44:	ac430000 	sw	v1,0(v0)
  405a48:	8f82800c 	lw	v0,-32756(gp)
  405a4c:	00000000 	nop
  405a50:	24430002 	addiu	v1,v0,2
  405a54:	3c020041 	lui	v0,0x41
  405a58:	00031880 	sll	v1,v1,0x2
  405a5c:	2442bc20 	addiu	v0,v0,-17376
  405a60:	00621021 	addu	v0,v1,v0
  405a64:	8fa30324 	lw	v1,804(sp)
  405a68:	00000000 	nop
  405a6c:	ac430000 	sw	v1,0(v0)
  405a70:	8f82800c 	lw	v0,-32756(gp)
  405a74:	00000000 	nop
  405a78:	24420003 	addiu	v0,v0,3
  405a7c:	af82800c 	sw	v0,-32756(gp)
  405a80:	8f828008 	lw	v0,-32760(gp)
  405a84:	00000000 	nop
  405a88:	28420005 	slti	v0,v0,5
  405a8c:	14400054 	bnez	v0,405be0 <main+0x5bc8>
  405a90:	00000000 	nop
  405a94:	8f82800c 	lw	v0,-32756(gp)
  405a98:	00000000 	nop
  405a9c:	24420003 	addiu	v0,v0,3
  405aa0:	28420007 	slti	v0,v0,7
  405aa4:	1040004e 	beqz	v0,405be0 <main+0x5bc8>
  405aa8:	00000000 	nop
  405aac:	3c020041 	lui	v0,0x41
  405ab0:	8c43bc44 	lw	v1,-17340(v0)
  405ab4:	3c020041 	lui	v0,0x41
  405ab8:	2442bc44 	addiu	v0,v0,-17340
  405abc:	8c42000c 	lw	v0,12(v0)
  405ac0:	00000000 	nop
  405ac4:	14620046 	bne	v1,v0,405be0 <main+0x5bc8>
  405ac8:	00000000 	nop
  405acc:	3c020041 	lui	v0,0x41
  405ad0:	8c43bc44 	lw	v1,-17340(v0)
  405ad4:	3c020041 	lui	v0,0x41
  405ad8:	2442bc44 	addiu	v0,v0,-17340
  405adc:	8c420010 	lw	v0,16(v0)
  405ae0:	00000000 	nop
  405ae4:	1462003e 	bne	v1,v0,405be0 <main+0x5bc8>
  405ae8:	00000000 	nop
  405aec:	3c020041 	lui	v0,0x41
  405af0:	2442bc44 	addiu	v0,v0,-17340
  405af4:	8c420008 	lw	v0,8(v0)
  405af8:	00000000 	nop
  405afc:	afa20328 	sw	v0,808(sp)
  405b00:	3c020041 	lui	v0,0x41
  405b04:	8c42bc44 	lw	v0,-17340(v0)
  405b08:	00000000 	nop
  405b0c:	afa2032c 	sw	v0,812(sp)
  405b10:	8fa3032c 	lw	v1,812(sp)
  405b14:	8fa20328 	lw	v0,808(sp)
  405b18:	00000000 	nop
  405b1c:	0043102a 	slt	v0,v0,v1
  405b20:	1040002f 	beqz	v0,405be0 <main+0x5bc8>
  405b24:	00000000 	nop
  405b28:	3c020041 	lui	v0,0x41
  405b2c:	2442bc44 	addiu	v0,v0,-17340
  405b30:	8c430004 	lw	v1,4(v0)
  405b34:	3c020041 	lui	v0,0x41
  405b38:	ac43bc44 	sw	v1,-17340(v0)
  405b3c:	8f828008 	lw	v0,-32760(gp)
  405b40:	00000000 	nop
  405b44:	2442fffc 	addiu	v0,v0,-4
  405b48:	af828008 	sw	v0,-32760(gp)
  405b4c:	8fa30328 	lw	v1,808(sp)
  405b50:	8fa2032c 	lw	v0,812(sp)
  405b54:	00000000 	nop
  405b58:	00621021 	addu	v0,v1,v0
  405b5c:	afa20330 	sw	v0,816(sp)
  405b60:	8f83800c 	lw	v1,-32756(gp)
  405b64:	3c020041 	lui	v0,0x41
  405b68:	00031880 	sll	v1,v1,0x2
  405b6c:	2442bc20 	addiu	v0,v0,-17376
  405b70:	00621021 	addu	v0,v1,v0
  405b74:	8fa30328 	lw	v1,808(sp)
  405b78:	00000000 	nop
  405b7c:	ac430000 	sw	v1,0(v0)
  405b80:	8f82800c 	lw	v0,-32756(gp)
  405b84:	00000000 	nop
  405b88:	24430001 	addiu	v1,v0,1
  405b8c:	3c020041 	lui	v0,0x41
  405b90:	00031880 	sll	v1,v1,0x2
  405b94:	2442bc20 	addiu	v0,v0,-17376
  405b98:	00621021 	addu	v0,v1,v0
  405b9c:	8fa3032c 	lw	v1,812(sp)
  405ba0:	00000000 	nop
  405ba4:	ac430000 	sw	v1,0(v0)
  405ba8:	8f82800c 	lw	v0,-32756(gp)
  405bac:	00000000 	nop
  405bb0:	24430002 	addiu	v1,v0,2
  405bb4:	3c020041 	lui	v0,0x41
  405bb8:	00031880 	sll	v1,v1,0x2
  405bbc:	2442bc20 	addiu	v0,v0,-17376
  405bc0:	00621021 	addu	v0,v1,v0
  405bc4:	8fa30330 	lw	v1,816(sp)
  405bc8:	00000000 	nop
  405bcc:	ac430000 	sw	v1,0(v0)
  405bd0:	8f82800c 	lw	v0,-32756(gp)
  405bd4:	00000000 	nop
  405bd8:	24420003 	addiu	v0,v0,3
  405bdc:	af82800c 	sw	v0,-32756(gp)
  405be0:	8f828008 	lw	v0,-32760(gp)
  405be4:	00000000 	nop
  405be8:	28420005 	slti	v0,v0,5
  405bec:	14400054 	bnez	v0,405d40 <main+0x5d28>
  405bf0:	00000000 	nop
  405bf4:	8f82800c 	lw	v0,-32756(gp)
  405bf8:	00000000 	nop
  405bfc:	24420003 	addiu	v0,v0,3
  405c00:	28420007 	slti	v0,v0,7
  405c04:	1040004e 	beqz	v0,405d40 <main+0x5d28>
  405c08:	00000000 	nop
  405c0c:	3c020041 	lui	v0,0x41
  405c10:	8c43bc44 	lw	v1,-17340(v0)
  405c14:	3c020041 	lui	v0,0x41
  405c18:	2442bc44 	addiu	v0,v0,-17340
  405c1c:	8c420010 	lw	v0,16(v0)
  405c20:	00000000 	nop
  405c24:	14620046 	bne	v1,v0,405d40 <main+0x5d28>
  405c28:	00000000 	nop
  405c2c:	3c020041 	lui	v0,0x41
  405c30:	8c43bc44 	lw	v1,-17340(v0)
  405c34:	3c020041 	lui	v0,0x41
  405c38:	2442bc44 	addiu	v0,v0,-17340
  405c3c:	8c420004 	lw	v0,4(v0)
  405c40:	00000000 	nop
  405c44:	1462003e 	bne	v1,v0,405d40 <main+0x5d28>
  405c48:	00000000 	nop
  405c4c:	3c020041 	lui	v0,0x41
  405c50:	2442bc44 	addiu	v0,v0,-17340
  405c54:	8c420008 	lw	v0,8(v0)
  405c58:	00000000 	nop
  405c5c:	afa20334 	sw	v0,820(sp)
  405c60:	3c020041 	lui	v0,0x41
  405c64:	8c42bc44 	lw	v0,-17340(v0)
  405c68:	00000000 	nop
  405c6c:	afa20338 	sw	v0,824(sp)
  405c70:	8fa30338 	lw	v1,824(sp)
  405c74:	8fa20334 	lw	v0,820(sp)
  405c78:	00000000 	nop
  405c7c:	0043102a 	slt	v0,v0,v1
  405c80:	1040002f 	beqz	v0,405d40 <main+0x5d28>
  405c84:	00000000 	nop
  405c88:	3c020041 	lui	v0,0x41
  405c8c:	2442bc44 	addiu	v0,v0,-17340
  405c90:	8c43000c 	lw	v1,12(v0)
  405c94:	3c020041 	lui	v0,0x41
  405c98:	ac43bc44 	sw	v1,-17340(v0)
  405c9c:	8f828008 	lw	v0,-32760(gp)
  405ca0:	00000000 	nop
  405ca4:	2442fffc 	addiu	v0,v0,-4
  405ca8:	af828008 	sw	v0,-32760(gp)
  405cac:	8fa30334 	lw	v1,820(sp)
  405cb0:	8fa20338 	lw	v0,824(sp)
  405cb4:	00000000 	nop
  405cb8:	00621021 	addu	v0,v1,v0
  405cbc:	afa2033c 	sw	v0,828(sp)
  405cc0:	8f83800c 	lw	v1,-32756(gp)
  405cc4:	3c020041 	lui	v0,0x41
  405cc8:	00031880 	sll	v1,v1,0x2
  405ccc:	2442bc20 	addiu	v0,v0,-17376
  405cd0:	00621021 	addu	v0,v1,v0
  405cd4:	8fa30334 	lw	v1,820(sp)
  405cd8:	00000000 	nop
  405cdc:	ac430000 	sw	v1,0(v0)
  405ce0:	8f82800c 	lw	v0,-32756(gp)
  405ce4:	00000000 	nop
  405ce8:	24430001 	addiu	v1,v0,1
  405cec:	3c020041 	lui	v0,0x41
  405cf0:	00031880 	sll	v1,v1,0x2
  405cf4:	2442bc20 	addiu	v0,v0,-17376
  405cf8:	00621021 	addu	v0,v1,v0
  405cfc:	8fa30338 	lw	v1,824(sp)
  405d00:	00000000 	nop
  405d04:	ac430000 	sw	v1,0(v0)
  405d08:	8f82800c 	lw	v0,-32756(gp)
  405d0c:	00000000 	nop
  405d10:	24430002 	addiu	v1,v0,2
  405d14:	3c020041 	lui	v0,0x41
  405d18:	00031880 	sll	v1,v1,0x2
  405d1c:	2442bc20 	addiu	v0,v0,-17376
  405d20:	00621021 	addu	v0,v1,v0
  405d24:	8fa3033c 	lw	v1,828(sp)
  405d28:	00000000 	nop
  405d2c:	ac430000 	sw	v1,0(v0)
  405d30:	8f82800c 	lw	v0,-32756(gp)
  405d34:	00000000 	nop
  405d38:	24420003 	addiu	v0,v0,3
  405d3c:	af82800c 	sw	v0,-32756(gp)
  405d40:	8f828008 	lw	v0,-32760(gp)
  405d44:	00000000 	nop
  405d48:	28420005 	slti	v0,v0,5
  405d4c:	14400054 	bnez	v0,405ea0 <main+0x5e88>
  405d50:	00000000 	nop
  405d54:	8f82800c 	lw	v0,-32756(gp)
  405d58:	00000000 	nop
  405d5c:	24420003 	addiu	v0,v0,3
  405d60:	28420007 	slti	v0,v0,7
  405d64:	1040004e 	beqz	v0,405ea0 <main+0x5e88>
  405d68:	00000000 	nop
  405d6c:	3c020041 	lui	v0,0x41
  405d70:	8c43bc44 	lw	v1,-17340(v0)
  405d74:	3c020041 	lui	v0,0x41
  405d78:	2442bc44 	addiu	v0,v0,-17340
  405d7c:	8c420010 	lw	v0,16(v0)
  405d80:	00000000 	nop
  405d84:	14620046 	bne	v1,v0,405ea0 <main+0x5e88>
  405d88:	00000000 	nop
  405d8c:	3c020041 	lui	v0,0x41
  405d90:	8c43bc44 	lw	v1,-17340(v0)
  405d94:	3c020041 	lui	v0,0x41
  405d98:	2442bc44 	addiu	v0,v0,-17340
  405d9c:	8c42000c 	lw	v0,12(v0)
  405da0:	00000000 	nop
  405da4:	1462003e 	bne	v1,v0,405ea0 <main+0x5e88>
  405da8:	00000000 	nop
  405dac:	3c020041 	lui	v0,0x41
  405db0:	2442bc44 	addiu	v0,v0,-17340
  405db4:	8c420008 	lw	v0,8(v0)
  405db8:	00000000 	nop
  405dbc:	afa20340 	sw	v0,832(sp)
  405dc0:	3c020041 	lui	v0,0x41
  405dc4:	8c42bc44 	lw	v0,-17340(v0)
  405dc8:	00000000 	nop
  405dcc:	afa20344 	sw	v0,836(sp)
  405dd0:	8fa30344 	lw	v1,836(sp)
  405dd4:	8fa20340 	lw	v0,832(sp)
  405dd8:	00000000 	nop
  405ddc:	0043102a 	slt	v0,v0,v1
  405de0:	1040002f 	beqz	v0,405ea0 <main+0x5e88>
  405de4:	00000000 	nop
  405de8:	3c020041 	lui	v0,0x41
  405dec:	2442bc44 	addiu	v0,v0,-17340
  405df0:	8c430004 	lw	v1,4(v0)
  405df4:	3c020041 	lui	v0,0x41
  405df8:	ac43bc44 	sw	v1,-17340(v0)
  405dfc:	8f828008 	lw	v0,-32760(gp)
  405e00:	00000000 	nop
  405e04:	2442fffc 	addiu	v0,v0,-4
  405e08:	af828008 	sw	v0,-32760(gp)
  405e0c:	8fa30340 	lw	v1,832(sp)
  405e10:	8fa20344 	lw	v0,836(sp)
  405e14:	00000000 	nop
  405e18:	00621021 	addu	v0,v1,v0
  405e1c:	afa20348 	sw	v0,840(sp)
  405e20:	8f83800c 	lw	v1,-32756(gp)
  405e24:	3c020041 	lui	v0,0x41
  405e28:	00031880 	sll	v1,v1,0x2
  405e2c:	2442bc20 	addiu	v0,v0,-17376
  405e30:	00621021 	addu	v0,v1,v0
  405e34:	8fa30340 	lw	v1,832(sp)
  405e38:	00000000 	nop
  405e3c:	ac430000 	sw	v1,0(v0)
  405e40:	8f82800c 	lw	v0,-32756(gp)
  405e44:	00000000 	nop
  405e48:	24430001 	addiu	v1,v0,1
  405e4c:	3c020041 	lui	v0,0x41
  405e50:	00031880 	sll	v1,v1,0x2
  405e54:	2442bc20 	addiu	v0,v0,-17376
  405e58:	00621021 	addu	v0,v1,v0
  405e5c:	8fa30344 	lw	v1,836(sp)
  405e60:	00000000 	nop
  405e64:	ac430000 	sw	v1,0(v0)
  405e68:	8f82800c 	lw	v0,-32756(gp)
  405e6c:	00000000 	nop
  405e70:	24430002 	addiu	v1,v0,2
  405e74:	3c020041 	lui	v0,0x41
  405e78:	00031880 	sll	v1,v1,0x2
  405e7c:	2442bc20 	addiu	v0,v0,-17376
  405e80:	00621021 	addu	v0,v1,v0
  405e84:	8fa30348 	lw	v1,840(sp)
  405e88:	00000000 	nop
  405e8c:	ac430000 	sw	v1,0(v0)
  405e90:	8f82800c 	lw	v0,-32756(gp)
  405e94:	00000000 	nop
  405e98:	24420003 	addiu	v0,v0,3
  405e9c:	af82800c 	sw	v0,-32756(gp)
  405ea0:	8f828008 	lw	v0,-32760(gp)
  405ea4:	00000000 	nop
  405ea8:	28420005 	slti	v0,v0,5
  405eac:	14400056 	bnez	v0,406008 <main+0x5ff0>
  405eb0:	00000000 	nop
  405eb4:	8f82800c 	lw	v0,-32756(gp)
  405eb8:	00000000 	nop
  405ebc:	24420003 	addiu	v0,v0,3
  405ec0:	28420007 	slti	v0,v0,7
  405ec4:	10400050 	beqz	v0,406008 <main+0x5ff0>
  405ec8:	00000000 	nop
  405ecc:	3c020041 	lui	v0,0x41
  405ed0:	2442bc44 	addiu	v0,v0,-17340
  405ed4:	8c430004 	lw	v1,4(v0)
  405ed8:	3c020041 	lui	v0,0x41
  405edc:	8c42bc44 	lw	v0,-17340(v0)
  405ee0:	00000000 	nop
  405ee4:	14620048 	bne	v1,v0,406008 <main+0x5ff0>
  405ee8:	00000000 	nop
  405eec:	3c020041 	lui	v0,0x41
  405ef0:	2442bc44 	addiu	v0,v0,-17340
  405ef4:	8c430004 	lw	v1,4(v0)
  405ef8:	3c020041 	lui	v0,0x41
  405efc:	2442bc44 	addiu	v0,v0,-17340
  405f00:	8c420010 	lw	v0,16(v0)
  405f04:	00000000 	nop
  405f08:	1462003f 	bne	v1,v0,406008 <main+0x5ff0>
  405f0c:	00000000 	nop
  405f10:	3c020041 	lui	v0,0x41
  405f14:	2442bc44 	addiu	v0,v0,-17340
  405f18:	8c420008 	lw	v0,8(v0)
  405f1c:	00000000 	nop
  405f20:	afa2034c 	sw	v0,844(sp)
  405f24:	3c020041 	lui	v0,0x41
  405f28:	2442bc44 	addiu	v0,v0,-17340
  405f2c:	8c420004 	lw	v0,4(v0)
  405f30:	00000000 	nop
  405f34:	afa20350 	sw	v0,848(sp)
  405f38:	8fa30350 	lw	v1,848(sp)
  405f3c:	8fa2034c 	lw	v0,844(sp)
  405f40:	00000000 	nop
  405f44:	0043102a 	slt	v0,v0,v1
  405f48:	1040002f 	beqz	v0,406008 <main+0x5ff0>
  405f4c:	00000000 	nop
  405f50:	3c020041 	lui	v0,0x41
  405f54:	2442bc44 	addiu	v0,v0,-17340
  405f58:	8c43000c 	lw	v1,12(v0)
  405f5c:	3c020041 	lui	v0,0x41
  405f60:	ac43bc44 	sw	v1,-17340(v0)
  405f64:	8f828008 	lw	v0,-32760(gp)
  405f68:	00000000 	nop
  405f6c:	2442fffc 	addiu	v0,v0,-4
  405f70:	af828008 	sw	v0,-32760(gp)
  405f74:	8fa3034c 	lw	v1,844(sp)
  405f78:	8fa20350 	lw	v0,848(sp)
  405f7c:	00000000 	nop
  405f80:	00621021 	addu	v0,v1,v0
  405f84:	afa20354 	sw	v0,852(sp)
  405f88:	8f83800c 	lw	v1,-32756(gp)
  405f8c:	3c020041 	lui	v0,0x41
  405f90:	00031880 	sll	v1,v1,0x2
  405f94:	2442bc20 	addiu	v0,v0,-17376
  405f98:	00621021 	addu	v0,v1,v0
  405f9c:	8fa3034c 	lw	v1,844(sp)
  405fa0:	00000000 	nop
  405fa4:	ac430000 	sw	v1,0(v0)
  405fa8:	8f82800c 	lw	v0,-32756(gp)
  405fac:	00000000 	nop
  405fb0:	24430001 	addiu	v1,v0,1
  405fb4:	3c020041 	lui	v0,0x41
  405fb8:	00031880 	sll	v1,v1,0x2
  405fbc:	2442bc20 	addiu	v0,v0,-17376
  405fc0:	00621021 	addu	v0,v1,v0
  405fc4:	8fa30350 	lw	v1,848(sp)
  405fc8:	00000000 	nop
  405fcc:	ac430000 	sw	v1,0(v0)
  405fd0:	8f82800c 	lw	v0,-32756(gp)
  405fd4:	00000000 	nop
  405fd8:	24430002 	addiu	v1,v0,2
  405fdc:	3c020041 	lui	v0,0x41
  405fe0:	00031880 	sll	v1,v1,0x2
  405fe4:	2442bc20 	addiu	v0,v0,-17376
  405fe8:	00621021 	addu	v0,v1,v0
  405fec:	8fa30354 	lw	v1,852(sp)
  405ff0:	00000000 	nop
  405ff4:	ac430000 	sw	v1,0(v0)
  405ff8:	8f82800c 	lw	v0,-32756(gp)
  405ffc:	00000000 	nop
  406000:	24420003 	addiu	v0,v0,3
  406004:	af82800c 	sw	v0,-32756(gp)
  406008:	8f828008 	lw	v0,-32760(gp)
  40600c:	00000000 	nop
  406010:	28420005 	slti	v0,v0,5
  406014:	14400052 	bnez	v0,406160 <main+0x6148>
  406018:	00000000 	nop
  40601c:	8f82800c 	lw	v0,-32756(gp)
  406020:	00000000 	nop
  406024:	24420003 	addiu	v0,v0,3
  406028:	28420007 	slti	v0,v0,7
  40602c:	1040004c 	beqz	v0,406160 <main+0x6148>
  406030:	00000000 	nop
  406034:	3c020041 	lui	v0,0x41
  406038:	2442bc44 	addiu	v0,v0,-17340
  40603c:	8c430004 	lw	v1,4(v0)
  406040:	3c020041 	lui	v0,0x41
  406044:	2442bc44 	addiu	v0,v0,-17340
  406048:	8c42000c 	lw	v0,12(v0)
  40604c:	00000000 	nop
  406050:	14620043 	bne	v1,v0,406160 <main+0x6148>
  406054:	00000000 	nop
  406058:	3c020041 	lui	v0,0x41
  40605c:	2442bc44 	addiu	v0,v0,-17340
  406060:	8c430004 	lw	v1,4(v0)
  406064:	3c020041 	lui	v0,0x41
  406068:	2442bc44 	addiu	v0,v0,-17340
  40606c:	8c420010 	lw	v0,16(v0)
  406070:	00000000 	nop
  406074:	1462003a 	bne	v1,v0,406160 <main+0x6148>
  406078:	00000000 	nop
  40607c:	3c020041 	lui	v0,0x41
  406080:	2442bc44 	addiu	v0,v0,-17340
  406084:	8c420008 	lw	v0,8(v0)
  406088:	00000000 	nop
  40608c:	afa20358 	sw	v0,856(sp)
  406090:	3c020041 	lui	v0,0x41
  406094:	2442bc44 	addiu	v0,v0,-17340
  406098:	8c420004 	lw	v0,4(v0)
  40609c:	00000000 	nop
  4060a0:	afa2035c 	sw	v0,860(sp)
  4060a4:	8fa3035c 	lw	v1,860(sp)
  4060a8:	8fa20358 	lw	v0,856(sp)
  4060ac:	00000000 	nop
  4060b0:	0043102a 	slt	v0,v0,v1
  4060b4:	1040002a 	beqz	v0,406160 <main+0x6148>
  4060b8:	00000000 	nop
  4060bc:	8f828008 	lw	v0,-32760(gp)
  4060c0:	00000000 	nop
  4060c4:	2442fffc 	addiu	v0,v0,-4
  4060c8:	af828008 	sw	v0,-32760(gp)
  4060cc:	8fa30358 	lw	v1,856(sp)
  4060d0:	8fa2035c 	lw	v0,860(sp)
  4060d4:	00000000 	nop
  4060d8:	00621021 	addu	v0,v1,v0
  4060dc:	afa20360 	sw	v0,864(sp)
  4060e0:	8f83800c 	lw	v1,-32756(gp)
  4060e4:	3c020041 	lui	v0,0x41
  4060e8:	00031880 	sll	v1,v1,0x2
  4060ec:	2442bc20 	addiu	v0,v0,-17376
  4060f0:	00621021 	addu	v0,v1,v0
  4060f4:	8fa30358 	lw	v1,856(sp)
  4060f8:	00000000 	nop
  4060fc:	ac430000 	sw	v1,0(v0)
  406100:	8f82800c 	lw	v0,-32756(gp)
  406104:	00000000 	nop
  406108:	24430001 	addiu	v1,v0,1
  40610c:	3c020041 	lui	v0,0x41
  406110:	00031880 	sll	v1,v1,0x2
  406114:	2442bc20 	addiu	v0,v0,-17376
  406118:	00621021 	addu	v0,v1,v0
  40611c:	8fa3035c 	lw	v1,860(sp)
  406120:	00000000 	nop
  406124:	ac430000 	sw	v1,0(v0)
  406128:	8f82800c 	lw	v0,-32756(gp)
  40612c:	00000000 	nop
  406130:	24430002 	addiu	v1,v0,2
  406134:	3c020041 	lui	v0,0x41
  406138:	00031880 	sll	v1,v1,0x2
  40613c:	2442bc20 	addiu	v0,v0,-17376
  406140:	00621021 	addu	v0,v1,v0
  406144:	8fa30360 	lw	v1,864(sp)
  406148:	00000000 	nop
  40614c:	ac430000 	sw	v1,0(v0)
  406150:	8f82800c 	lw	v0,-32756(gp)
  406154:	00000000 	nop
  406158:	24420003 	addiu	v0,v0,3
  40615c:	af82800c 	sw	v0,-32756(gp)
  406160:	8f828008 	lw	v0,-32760(gp)
  406164:	00000000 	nop
  406168:	28420005 	slti	v0,v0,5
  40616c:	14400056 	bnez	v0,4062c8 <main+0x62b0>
  406170:	00000000 	nop
  406174:	8f82800c 	lw	v0,-32756(gp)
  406178:	00000000 	nop
  40617c:	24420003 	addiu	v0,v0,3
  406180:	28420007 	slti	v0,v0,7
  406184:	10400050 	beqz	v0,4062c8 <main+0x62b0>
  406188:	00000000 	nop
  40618c:	3c020041 	lui	v0,0x41
  406190:	2442bc44 	addiu	v0,v0,-17340
  406194:	8c430004 	lw	v1,4(v0)
  406198:	3c020041 	lui	v0,0x41
  40619c:	2442bc44 	addiu	v0,v0,-17340
  4061a0:	8c420010 	lw	v0,16(v0)
  4061a4:	00000000 	nop
  4061a8:	14620047 	bne	v1,v0,4062c8 <main+0x62b0>
  4061ac:	00000000 	nop
  4061b0:	3c020041 	lui	v0,0x41
  4061b4:	2442bc44 	addiu	v0,v0,-17340
  4061b8:	8c430004 	lw	v1,4(v0)
  4061bc:	3c020041 	lui	v0,0x41
  4061c0:	8c42bc44 	lw	v0,-17340(v0)
  4061c4:	00000000 	nop
  4061c8:	1462003f 	bne	v1,v0,4062c8 <main+0x62b0>
  4061cc:	00000000 	nop
  4061d0:	3c020041 	lui	v0,0x41
  4061d4:	2442bc44 	addiu	v0,v0,-17340
  4061d8:	8c420008 	lw	v0,8(v0)
  4061dc:	00000000 	nop
  4061e0:	afa20364 	sw	v0,868(sp)
  4061e4:	3c020041 	lui	v0,0x41
  4061e8:	2442bc44 	addiu	v0,v0,-17340
  4061ec:	8c420004 	lw	v0,4(v0)
  4061f0:	00000000 	nop
  4061f4:	afa20368 	sw	v0,872(sp)
  4061f8:	8fa30368 	lw	v1,872(sp)
  4061fc:	8fa20364 	lw	v0,868(sp)
  406200:	00000000 	nop
  406204:	0043102a 	slt	v0,v0,v1
  406208:	1040002f 	beqz	v0,4062c8 <main+0x62b0>
  40620c:	00000000 	nop
  406210:	3c020041 	lui	v0,0x41
  406214:	2442bc44 	addiu	v0,v0,-17340
  406218:	8c43000c 	lw	v1,12(v0)
  40621c:	3c020041 	lui	v0,0x41
  406220:	ac43bc44 	sw	v1,-17340(v0)
  406224:	8f828008 	lw	v0,-32760(gp)
  406228:	00000000 	nop
  40622c:	2442fffc 	addiu	v0,v0,-4
  406230:	af828008 	sw	v0,-32760(gp)
  406234:	8fa30364 	lw	v1,868(sp)
  406238:	8fa20368 	lw	v0,872(sp)
  40623c:	00000000 	nop
  406240:	00621021 	addu	v0,v1,v0
  406244:	afa2036c 	sw	v0,876(sp)
  406248:	8f83800c 	lw	v1,-32756(gp)
  40624c:	3c020041 	lui	v0,0x41
  406250:	00031880 	sll	v1,v1,0x2
  406254:	2442bc20 	addiu	v0,v0,-17376
  406258:	00621021 	addu	v0,v1,v0
  40625c:	8fa30364 	lw	v1,868(sp)
  406260:	00000000 	nop
  406264:	ac430000 	sw	v1,0(v0)
  406268:	8f82800c 	lw	v0,-32756(gp)
  40626c:	00000000 	nop
  406270:	24430001 	addiu	v1,v0,1
  406274:	3c020041 	lui	v0,0x41
  406278:	00031880 	sll	v1,v1,0x2
  40627c:	2442bc20 	addiu	v0,v0,-17376
  406280:	00621021 	addu	v0,v1,v0
  406284:	8fa30368 	lw	v1,872(sp)
  406288:	00000000 	nop
  40628c:	ac430000 	sw	v1,0(v0)
  406290:	8f82800c 	lw	v0,-32756(gp)
  406294:	00000000 	nop
  406298:	24430002 	addiu	v1,v0,2
  40629c:	3c020041 	lui	v0,0x41
  4062a0:	00031880 	sll	v1,v1,0x2
  4062a4:	2442bc20 	addiu	v0,v0,-17376
  4062a8:	00621021 	addu	v0,v1,v0
  4062ac:	8fa3036c 	lw	v1,876(sp)
  4062b0:	00000000 	nop
  4062b4:	ac430000 	sw	v1,0(v0)
  4062b8:	8f82800c 	lw	v0,-32756(gp)
  4062bc:	00000000 	nop
  4062c0:	24420003 	addiu	v0,v0,3
  4062c4:	af82800c 	sw	v0,-32756(gp)
  4062c8:	8f828008 	lw	v0,-32760(gp)
  4062cc:	00000000 	nop
  4062d0:	28420005 	slti	v0,v0,5
  4062d4:	14400052 	bnez	v0,406420 <main+0x6408>
  4062d8:	00000000 	nop
  4062dc:	8f82800c 	lw	v0,-32756(gp)
  4062e0:	00000000 	nop
  4062e4:	24420003 	addiu	v0,v0,3
  4062e8:	28420007 	slti	v0,v0,7
  4062ec:	1040004c 	beqz	v0,406420 <main+0x6408>
  4062f0:	00000000 	nop
  4062f4:	3c020041 	lui	v0,0x41
  4062f8:	2442bc44 	addiu	v0,v0,-17340
  4062fc:	8c430004 	lw	v1,4(v0)
  406300:	3c020041 	lui	v0,0x41
  406304:	2442bc44 	addiu	v0,v0,-17340
  406308:	8c420010 	lw	v0,16(v0)
  40630c:	00000000 	nop
  406310:	14620043 	bne	v1,v0,406420 <main+0x6408>
  406314:	00000000 	nop
  406318:	3c020041 	lui	v0,0x41
  40631c:	2442bc44 	addiu	v0,v0,-17340
  406320:	8c430004 	lw	v1,4(v0)
  406324:	3c020041 	lui	v0,0x41
  406328:	2442bc44 	addiu	v0,v0,-17340
  40632c:	8c42000c 	lw	v0,12(v0)
  406330:	00000000 	nop
  406334:	1462003a 	bne	v1,v0,406420 <main+0x6408>
  406338:	00000000 	nop
  40633c:	3c020041 	lui	v0,0x41
  406340:	2442bc44 	addiu	v0,v0,-17340
  406344:	8c420008 	lw	v0,8(v0)
  406348:	00000000 	nop
  40634c:	afa20370 	sw	v0,880(sp)
  406350:	3c020041 	lui	v0,0x41
  406354:	2442bc44 	addiu	v0,v0,-17340
  406358:	8c420004 	lw	v0,4(v0)
  40635c:	00000000 	nop
  406360:	afa20374 	sw	v0,884(sp)
  406364:	8fa30374 	lw	v1,884(sp)
  406368:	8fa20370 	lw	v0,880(sp)
  40636c:	00000000 	nop
  406370:	0043102a 	slt	v0,v0,v1
  406374:	1040002a 	beqz	v0,406420 <main+0x6408>
  406378:	00000000 	nop
  40637c:	8f828008 	lw	v0,-32760(gp)
  406380:	00000000 	nop
  406384:	2442fffc 	addiu	v0,v0,-4
  406388:	af828008 	sw	v0,-32760(gp)
  40638c:	8fa30370 	lw	v1,880(sp)
  406390:	8fa20374 	lw	v0,884(sp)
  406394:	00000000 	nop
  406398:	00621021 	addu	v0,v1,v0
  40639c:	afa20378 	sw	v0,888(sp)
  4063a0:	8f83800c 	lw	v1,-32756(gp)
  4063a4:	3c020041 	lui	v0,0x41
  4063a8:	00031880 	sll	v1,v1,0x2
  4063ac:	2442bc20 	addiu	v0,v0,-17376
  4063b0:	00621021 	addu	v0,v1,v0
  4063b4:	8fa30370 	lw	v1,880(sp)
  4063b8:	00000000 	nop
  4063bc:	ac430000 	sw	v1,0(v0)
  4063c0:	8f82800c 	lw	v0,-32756(gp)
  4063c4:	00000000 	nop
  4063c8:	24430001 	addiu	v1,v0,1
  4063cc:	3c020041 	lui	v0,0x41
  4063d0:	00031880 	sll	v1,v1,0x2
  4063d4:	2442bc20 	addiu	v0,v0,-17376
  4063d8:	00621021 	addu	v0,v1,v0
  4063dc:	8fa30374 	lw	v1,884(sp)
  4063e0:	00000000 	nop
  4063e4:	ac430000 	sw	v1,0(v0)
  4063e8:	8f82800c 	lw	v0,-32756(gp)
  4063ec:	00000000 	nop
  4063f0:	24430002 	addiu	v1,v0,2
  4063f4:	3c020041 	lui	v0,0x41
  4063f8:	00031880 	sll	v1,v1,0x2
  4063fc:	2442bc20 	addiu	v0,v0,-17376
  406400:	00621021 	addu	v0,v1,v0
  406404:	8fa30378 	lw	v1,888(sp)
  406408:	00000000 	nop
  40640c:	ac430000 	sw	v1,0(v0)
  406410:	8f82800c 	lw	v0,-32756(gp)
  406414:	00000000 	nop
  406418:	24420003 	addiu	v0,v0,3
  40641c:	af82800c 	sw	v0,-32756(gp)
  406420:	8f828008 	lw	v0,-32760(gp)
  406424:	00000000 	nop
  406428:	28420005 	slti	v0,v0,5
  40642c:	14400056 	bnez	v0,406588 <main+0x6570>
  406430:	00000000 	nop
  406434:	8f82800c 	lw	v0,-32756(gp)
  406438:	00000000 	nop
  40643c:	24420003 	addiu	v0,v0,3
  406440:	28420007 	slti	v0,v0,7
  406444:	10400050 	beqz	v0,406588 <main+0x6570>
  406448:	00000000 	nop
  40644c:	3c020041 	lui	v0,0x41
  406450:	2442bc44 	addiu	v0,v0,-17340
  406454:	8c43000c 	lw	v1,12(v0)
  406458:	3c020041 	lui	v0,0x41
  40645c:	8c42bc44 	lw	v0,-17340(v0)
  406460:	00000000 	nop
  406464:	14620048 	bne	v1,v0,406588 <main+0x6570>
  406468:	00000000 	nop
  40646c:	3c020041 	lui	v0,0x41
  406470:	2442bc44 	addiu	v0,v0,-17340
  406474:	8c43000c 	lw	v1,12(v0)
  406478:	3c020041 	lui	v0,0x41
  40647c:	2442bc44 	addiu	v0,v0,-17340
  406480:	8c420010 	lw	v0,16(v0)
  406484:	00000000 	nop
  406488:	1462003f 	bne	v1,v0,406588 <main+0x6570>
  40648c:	00000000 	nop
  406490:	3c020041 	lui	v0,0x41
  406494:	2442bc44 	addiu	v0,v0,-17340
  406498:	8c420008 	lw	v0,8(v0)
  40649c:	00000000 	nop
  4064a0:	afa2037c 	sw	v0,892(sp)
  4064a4:	3c020041 	lui	v0,0x41
  4064a8:	2442bc44 	addiu	v0,v0,-17340
  4064ac:	8c42000c 	lw	v0,12(v0)
  4064b0:	00000000 	nop
  4064b4:	afa20380 	sw	v0,896(sp)
  4064b8:	8fa30380 	lw	v1,896(sp)
  4064bc:	8fa2037c 	lw	v0,892(sp)
  4064c0:	00000000 	nop
  4064c4:	0043102a 	slt	v0,v0,v1
  4064c8:	1040002f 	beqz	v0,406588 <main+0x6570>
  4064cc:	00000000 	nop
  4064d0:	3c020041 	lui	v0,0x41
  4064d4:	2442bc44 	addiu	v0,v0,-17340
  4064d8:	8c430004 	lw	v1,4(v0)
  4064dc:	3c020041 	lui	v0,0x41
  4064e0:	ac43bc44 	sw	v1,-17340(v0)
  4064e4:	8f828008 	lw	v0,-32760(gp)
  4064e8:	00000000 	nop
  4064ec:	2442fffc 	addiu	v0,v0,-4
  4064f0:	af828008 	sw	v0,-32760(gp)
  4064f4:	8fa3037c 	lw	v1,892(sp)
  4064f8:	8fa20380 	lw	v0,896(sp)
  4064fc:	00000000 	nop
  406500:	00621021 	addu	v0,v1,v0
  406504:	afa20384 	sw	v0,900(sp)
  406508:	8f83800c 	lw	v1,-32756(gp)
  40650c:	3c020041 	lui	v0,0x41
  406510:	00031880 	sll	v1,v1,0x2
  406514:	2442bc20 	addiu	v0,v0,-17376
  406518:	00621021 	addu	v0,v1,v0
  40651c:	8fa3037c 	lw	v1,892(sp)
  406520:	00000000 	nop
  406524:	ac430000 	sw	v1,0(v0)
  406528:	8f82800c 	lw	v0,-32756(gp)
  40652c:	00000000 	nop
  406530:	24430001 	addiu	v1,v0,1
  406534:	3c020041 	lui	v0,0x41
  406538:	00031880 	sll	v1,v1,0x2
  40653c:	2442bc20 	addiu	v0,v0,-17376
  406540:	00621021 	addu	v0,v1,v0
  406544:	8fa30380 	lw	v1,896(sp)
  406548:	00000000 	nop
  40654c:	ac430000 	sw	v1,0(v0)
  406550:	8f82800c 	lw	v0,-32756(gp)
  406554:	00000000 	nop
  406558:	24430002 	addiu	v1,v0,2
  40655c:	3c020041 	lui	v0,0x41
  406560:	00031880 	sll	v1,v1,0x2
  406564:	2442bc20 	addiu	v0,v0,-17376
  406568:	00621021 	addu	v0,v1,v0
  40656c:	8fa30384 	lw	v1,900(sp)
  406570:	00000000 	nop
  406574:	ac430000 	sw	v1,0(v0)
  406578:	8f82800c 	lw	v0,-32756(gp)
  40657c:	00000000 	nop
  406580:	24420003 	addiu	v0,v0,3
  406584:	af82800c 	sw	v0,-32756(gp)
  406588:	8f828008 	lw	v0,-32760(gp)
  40658c:	00000000 	nop
  406590:	28420005 	slti	v0,v0,5
  406594:	14400052 	bnez	v0,4066e0 <main+0x66c8>
  406598:	00000000 	nop
  40659c:	8f82800c 	lw	v0,-32756(gp)
  4065a0:	00000000 	nop
  4065a4:	24420003 	addiu	v0,v0,3
  4065a8:	28420007 	slti	v0,v0,7
  4065ac:	1040004c 	beqz	v0,4066e0 <main+0x66c8>
  4065b0:	00000000 	nop
  4065b4:	3c020041 	lui	v0,0x41
  4065b8:	2442bc44 	addiu	v0,v0,-17340
  4065bc:	8c43000c 	lw	v1,12(v0)
  4065c0:	3c020041 	lui	v0,0x41
  4065c4:	2442bc44 	addiu	v0,v0,-17340
  4065c8:	8c420004 	lw	v0,4(v0)
  4065cc:	00000000 	nop
  4065d0:	14620043 	bne	v1,v0,4066e0 <main+0x66c8>
  4065d4:	00000000 	nop
  4065d8:	3c020041 	lui	v0,0x41
  4065dc:	2442bc44 	addiu	v0,v0,-17340
  4065e0:	8c43000c 	lw	v1,12(v0)
  4065e4:	3c020041 	lui	v0,0x41
  4065e8:	2442bc44 	addiu	v0,v0,-17340
  4065ec:	8c420010 	lw	v0,16(v0)
  4065f0:	00000000 	nop
  4065f4:	1462003a 	bne	v1,v0,4066e0 <main+0x66c8>
  4065f8:	00000000 	nop
  4065fc:	3c020041 	lui	v0,0x41
  406600:	2442bc44 	addiu	v0,v0,-17340
  406604:	8c420008 	lw	v0,8(v0)
  406608:	00000000 	nop
  40660c:	afa20388 	sw	v0,904(sp)
  406610:	3c020041 	lui	v0,0x41
  406614:	2442bc44 	addiu	v0,v0,-17340
  406618:	8c42000c 	lw	v0,12(v0)
  40661c:	00000000 	nop
  406620:	afa2038c 	sw	v0,908(sp)
  406624:	8fa3038c 	lw	v1,908(sp)
  406628:	8fa20388 	lw	v0,904(sp)
  40662c:	00000000 	nop
  406630:	0043102a 	slt	v0,v0,v1
  406634:	1040002a 	beqz	v0,4066e0 <main+0x66c8>
  406638:	00000000 	nop
  40663c:	8f828008 	lw	v0,-32760(gp)
  406640:	00000000 	nop
  406644:	2442fffc 	addiu	v0,v0,-4
  406648:	af828008 	sw	v0,-32760(gp)
  40664c:	8fa30388 	lw	v1,904(sp)
  406650:	8fa2038c 	lw	v0,908(sp)
  406654:	00000000 	nop
  406658:	00621021 	addu	v0,v1,v0
  40665c:	afa20390 	sw	v0,912(sp)
  406660:	8f83800c 	lw	v1,-32756(gp)
  406664:	3c020041 	lui	v0,0x41
  406668:	00031880 	sll	v1,v1,0x2
  40666c:	2442bc20 	addiu	v0,v0,-17376
  406670:	00621021 	addu	v0,v1,v0
  406674:	8fa30388 	lw	v1,904(sp)
  406678:	00000000 	nop
  40667c:	ac430000 	sw	v1,0(v0)
  406680:	8f82800c 	lw	v0,-32756(gp)
  406684:	00000000 	nop
  406688:	24430001 	addiu	v1,v0,1
  40668c:	3c020041 	lui	v0,0x41
  406690:	00031880 	sll	v1,v1,0x2
  406694:	2442bc20 	addiu	v0,v0,-17376
  406698:	00621021 	addu	v0,v1,v0
  40669c:	8fa3038c 	lw	v1,908(sp)
  4066a0:	00000000 	nop
  4066a4:	ac430000 	sw	v1,0(v0)
  4066a8:	8f82800c 	lw	v0,-32756(gp)
  4066ac:	00000000 	nop
  4066b0:	24430002 	addiu	v1,v0,2
  4066b4:	3c020041 	lui	v0,0x41
  4066b8:	00031880 	sll	v1,v1,0x2
  4066bc:	2442bc20 	addiu	v0,v0,-17376
  4066c0:	00621021 	addu	v0,v1,v0
  4066c4:	8fa30390 	lw	v1,912(sp)
  4066c8:	00000000 	nop
  4066cc:	ac430000 	sw	v1,0(v0)
  4066d0:	8f82800c 	lw	v0,-32756(gp)
  4066d4:	00000000 	nop
  4066d8:	24420003 	addiu	v0,v0,3
  4066dc:	af82800c 	sw	v0,-32756(gp)
  4066e0:	8f828008 	lw	v0,-32760(gp)
  4066e4:	00000000 	nop
  4066e8:	28420005 	slti	v0,v0,5
  4066ec:	14400056 	bnez	v0,406848 <main+0x6830>
  4066f0:	00000000 	nop
  4066f4:	8f82800c 	lw	v0,-32756(gp)
  4066f8:	00000000 	nop
  4066fc:	24420003 	addiu	v0,v0,3
  406700:	28420007 	slti	v0,v0,7
  406704:	10400050 	beqz	v0,406848 <main+0x6830>
  406708:	00000000 	nop
  40670c:	3c020041 	lui	v0,0x41
  406710:	2442bc44 	addiu	v0,v0,-17340
  406714:	8c43000c 	lw	v1,12(v0)
  406718:	3c020041 	lui	v0,0x41
  40671c:	2442bc44 	addiu	v0,v0,-17340
  406720:	8c420010 	lw	v0,16(v0)
  406724:	00000000 	nop
  406728:	14620047 	bne	v1,v0,406848 <main+0x6830>
  40672c:	00000000 	nop
  406730:	3c020041 	lui	v0,0x41
  406734:	2442bc44 	addiu	v0,v0,-17340
  406738:	8c43000c 	lw	v1,12(v0)
  40673c:	3c020041 	lui	v0,0x41
  406740:	8c42bc44 	lw	v0,-17340(v0)
  406744:	00000000 	nop
  406748:	1462003f 	bne	v1,v0,406848 <main+0x6830>
  40674c:	00000000 	nop
  406750:	3c020041 	lui	v0,0x41
  406754:	2442bc44 	addiu	v0,v0,-17340
  406758:	8c420008 	lw	v0,8(v0)
  40675c:	00000000 	nop
  406760:	afa20394 	sw	v0,916(sp)
  406764:	3c020041 	lui	v0,0x41
  406768:	2442bc44 	addiu	v0,v0,-17340
  40676c:	8c42000c 	lw	v0,12(v0)
  406770:	00000000 	nop
  406774:	afa20398 	sw	v0,920(sp)
  406778:	8fa30398 	lw	v1,920(sp)
  40677c:	8fa20394 	lw	v0,916(sp)
  406780:	00000000 	nop
  406784:	0043102a 	slt	v0,v0,v1
  406788:	1040002f 	beqz	v0,406848 <main+0x6830>
  40678c:	00000000 	nop
  406790:	3c020041 	lui	v0,0x41
  406794:	2442bc44 	addiu	v0,v0,-17340
  406798:	8c430004 	lw	v1,4(v0)
  40679c:	3c020041 	lui	v0,0x41
  4067a0:	ac43bc44 	sw	v1,-17340(v0)
  4067a4:	8f828008 	lw	v0,-32760(gp)
  4067a8:	00000000 	nop
  4067ac:	2442fffc 	addiu	v0,v0,-4
  4067b0:	af828008 	sw	v0,-32760(gp)
  4067b4:	8fa30394 	lw	v1,916(sp)
  4067b8:	8fa20398 	lw	v0,920(sp)
  4067bc:	00000000 	nop
  4067c0:	00621021 	addu	v0,v1,v0
  4067c4:	afa2039c 	sw	v0,924(sp)
  4067c8:	8f83800c 	lw	v1,-32756(gp)
  4067cc:	3c020041 	lui	v0,0x41
  4067d0:	00031880 	sll	v1,v1,0x2
  4067d4:	2442bc20 	addiu	v0,v0,-17376
  4067d8:	00621021 	addu	v0,v1,v0
  4067dc:	8fa30394 	lw	v1,916(sp)
  4067e0:	00000000 	nop
  4067e4:	ac430000 	sw	v1,0(v0)
  4067e8:	8f82800c 	lw	v0,-32756(gp)
  4067ec:	00000000 	nop
  4067f0:	24430001 	addiu	v1,v0,1
  4067f4:	3c020041 	lui	v0,0x41
  4067f8:	00031880 	sll	v1,v1,0x2
  4067fc:	2442bc20 	addiu	v0,v0,-17376
  406800:	00621021 	addu	v0,v1,v0
  406804:	8fa30398 	lw	v1,920(sp)
  406808:	00000000 	nop
  40680c:	ac430000 	sw	v1,0(v0)
  406810:	8f82800c 	lw	v0,-32756(gp)
  406814:	00000000 	nop
  406818:	24430002 	addiu	v1,v0,2
  40681c:	3c020041 	lui	v0,0x41
  406820:	00031880 	sll	v1,v1,0x2
  406824:	2442bc20 	addiu	v0,v0,-17376
  406828:	00621021 	addu	v0,v1,v0
  40682c:	8fa3039c 	lw	v1,924(sp)
  406830:	00000000 	nop
  406834:	ac430000 	sw	v1,0(v0)
  406838:	8f82800c 	lw	v0,-32756(gp)
  40683c:	00000000 	nop
  406840:	24420003 	addiu	v0,v0,3
  406844:	af82800c 	sw	v0,-32756(gp)
  406848:	8f828008 	lw	v0,-32760(gp)
  40684c:	00000000 	nop
  406850:	28420005 	slti	v0,v0,5
  406854:	14400052 	bnez	v0,4069a0 <main+0x6988>
  406858:	00000000 	nop
  40685c:	8f82800c 	lw	v0,-32756(gp)
  406860:	00000000 	nop
  406864:	24420003 	addiu	v0,v0,3
  406868:	28420007 	slti	v0,v0,7
  40686c:	1040004c 	beqz	v0,4069a0 <main+0x6988>
  406870:	00000000 	nop
  406874:	3c020041 	lui	v0,0x41
  406878:	2442bc44 	addiu	v0,v0,-17340
  40687c:	8c43000c 	lw	v1,12(v0)
  406880:	3c020041 	lui	v0,0x41
  406884:	2442bc44 	addiu	v0,v0,-17340
  406888:	8c420010 	lw	v0,16(v0)
  40688c:	00000000 	nop
  406890:	14620043 	bne	v1,v0,4069a0 <main+0x6988>
  406894:	00000000 	nop
  406898:	3c020041 	lui	v0,0x41
  40689c:	2442bc44 	addiu	v0,v0,-17340
  4068a0:	8c43000c 	lw	v1,12(v0)
  4068a4:	3c020041 	lui	v0,0x41
  4068a8:	2442bc44 	addiu	v0,v0,-17340
  4068ac:	8c420004 	lw	v0,4(v0)
  4068b0:	00000000 	nop
  4068b4:	1462003a 	bne	v1,v0,4069a0 <main+0x6988>
  4068b8:	00000000 	nop
  4068bc:	3c020041 	lui	v0,0x41
  4068c0:	2442bc44 	addiu	v0,v0,-17340
  4068c4:	8c420008 	lw	v0,8(v0)
  4068c8:	00000000 	nop
  4068cc:	afa203a0 	sw	v0,928(sp)
  4068d0:	3c020041 	lui	v0,0x41
  4068d4:	2442bc44 	addiu	v0,v0,-17340
  4068d8:	8c42000c 	lw	v0,12(v0)
  4068dc:	00000000 	nop
  4068e0:	afa203a4 	sw	v0,932(sp)
  4068e4:	8fa303a4 	lw	v1,932(sp)
  4068e8:	8fa203a0 	lw	v0,928(sp)
  4068ec:	00000000 	nop
  4068f0:	0043102a 	slt	v0,v0,v1
  4068f4:	1040002a 	beqz	v0,4069a0 <main+0x6988>
  4068f8:	00000000 	nop
  4068fc:	8f828008 	lw	v0,-32760(gp)
  406900:	00000000 	nop
  406904:	2442fffc 	addiu	v0,v0,-4
  406908:	af828008 	sw	v0,-32760(gp)
  40690c:	8fa303a0 	lw	v1,928(sp)
  406910:	8fa203a4 	lw	v0,932(sp)
  406914:	00000000 	nop
  406918:	00621021 	addu	v0,v1,v0
  40691c:	afa203a8 	sw	v0,936(sp)
  406920:	8f83800c 	lw	v1,-32756(gp)
  406924:	3c020041 	lui	v0,0x41
  406928:	00031880 	sll	v1,v1,0x2
  40692c:	2442bc20 	addiu	v0,v0,-17376
  406930:	00621021 	addu	v0,v1,v0
  406934:	8fa303a0 	lw	v1,928(sp)
  406938:	00000000 	nop
  40693c:	ac430000 	sw	v1,0(v0)
  406940:	8f82800c 	lw	v0,-32756(gp)
  406944:	00000000 	nop
  406948:	24430001 	addiu	v1,v0,1
  40694c:	3c020041 	lui	v0,0x41
  406950:	00031880 	sll	v1,v1,0x2
  406954:	2442bc20 	addiu	v0,v0,-17376
  406958:	00621021 	addu	v0,v1,v0
  40695c:	8fa303a4 	lw	v1,932(sp)
  406960:	00000000 	nop
  406964:	ac430000 	sw	v1,0(v0)
  406968:	8f82800c 	lw	v0,-32756(gp)
  40696c:	00000000 	nop
  406970:	24430002 	addiu	v1,v0,2
  406974:	3c020041 	lui	v0,0x41
  406978:	00031880 	sll	v1,v1,0x2
  40697c:	2442bc20 	addiu	v0,v0,-17376
  406980:	00621021 	addu	v0,v1,v0
  406984:	8fa303a8 	lw	v1,936(sp)
  406988:	00000000 	nop
  40698c:	ac430000 	sw	v1,0(v0)
  406990:	8f82800c 	lw	v0,-32756(gp)
  406994:	00000000 	nop
  406998:	24420003 	addiu	v0,v0,3
  40699c:	af82800c 	sw	v0,-32756(gp)
  4069a0:	8f828008 	lw	v0,-32760(gp)
  4069a4:	00000000 	nop
  4069a8:	28420005 	slti	v0,v0,5
  4069ac:	14400056 	bnez	v0,406b08 <main+0x6af0>
  4069b0:	00000000 	nop
  4069b4:	8f82800c 	lw	v0,-32756(gp)
  4069b8:	00000000 	nop
  4069bc:	24420003 	addiu	v0,v0,3
  4069c0:	28420007 	slti	v0,v0,7
  4069c4:	10400050 	beqz	v0,406b08 <main+0x6af0>
  4069c8:	00000000 	nop
  4069cc:	3c020041 	lui	v0,0x41
  4069d0:	2442bc44 	addiu	v0,v0,-17340
  4069d4:	8c430010 	lw	v1,16(v0)
  4069d8:	3c020041 	lui	v0,0x41
  4069dc:	8c42bc44 	lw	v0,-17340(v0)
  4069e0:	00000000 	nop
  4069e4:	14620048 	bne	v1,v0,406b08 <main+0x6af0>
  4069e8:	00000000 	nop
  4069ec:	3c020041 	lui	v0,0x41
  4069f0:	2442bc44 	addiu	v0,v0,-17340
  4069f4:	8c430010 	lw	v1,16(v0)
  4069f8:	3c020041 	lui	v0,0x41
  4069fc:	2442bc44 	addiu	v0,v0,-17340
  406a00:	8c420004 	lw	v0,4(v0)
  406a04:	00000000 	nop
  406a08:	1462003f 	bne	v1,v0,406b08 <main+0x6af0>
  406a0c:	00000000 	nop
  406a10:	3c020041 	lui	v0,0x41
  406a14:	2442bc44 	addiu	v0,v0,-17340
  406a18:	8c420008 	lw	v0,8(v0)
  406a1c:	00000000 	nop
  406a20:	afa203ac 	sw	v0,940(sp)
  406a24:	3c020041 	lui	v0,0x41
  406a28:	2442bc44 	addiu	v0,v0,-17340
  406a2c:	8c420010 	lw	v0,16(v0)
  406a30:	00000000 	nop
  406a34:	afa203b0 	sw	v0,944(sp)
  406a38:	8fa303b0 	lw	v1,944(sp)
  406a3c:	8fa203ac 	lw	v0,940(sp)
  406a40:	00000000 	nop
  406a44:	0043102a 	slt	v0,v0,v1
  406a48:	1040002f 	beqz	v0,406b08 <main+0x6af0>
  406a4c:	00000000 	nop
  406a50:	3c020041 	lui	v0,0x41
  406a54:	2442bc44 	addiu	v0,v0,-17340
  406a58:	8c43000c 	lw	v1,12(v0)
  406a5c:	3c020041 	lui	v0,0x41
  406a60:	ac43bc44 	sw	v1,-17340(v0)
  406a64:	8f828008 	lw	v0,-32760(gp)
  406a68:	00000000 	nop
  406a6c:	2442fffc 	addiu	v0,v0,-4
  406a70:	af828008 	sw	v0,-32760(gp)
  406a74:	8fa303ac 	lw	v1,940(sp)
  406a78:	8fa203b0 	lw	v0,944(sp)
  406a7c:	00000000 	nop
  406a80:	00621021 	addu	v0,v1,v0
  406a84:	afa203b4 	sw	v0,948(sp)
  406a88:	8f83800c 	lw	v1,-32756(gp)
  406a8c:	3c020041 	lui	v0,0x41
  406a90:	00031880 	sll	v1,v1,0x2
  406a94:	2442bc20 	addiu	v0,v0,-17376
  406a98:	00621021 	addu	v0,v1,v0
  406a9c:	8fa303ac 	lw	v1,940(sp)
  406aa0:	00000000 	nop
  406aa4:	ac430000 	sw	v1,0(v0)
  406aa8:	8f82800c 	lw	v0,-32756(gp)
  406aac:	00000000 	nop
  406ab0:	24430001 	addiu	v1,v0,1
  406ab4:	3c020041 	lui	v0,0x41
  406ab8:	00031880 	sll	v1,v1,0x2
  406abc:	2442bc20 	addiu	v0,v0,-17376
  406ac0:	00621021 	addu	v0,v1,v0
  406ac4:	8fa303b0 	lw	v1,944(sp)
  406ac8:	00000000 	nop
  406acc:	ac430000 	sw	v1,0(v0)
  406ad0:	8f82800c 	lw	v0,-32756(gp)
  406ad4:	00000000 	nop
  406ad8:	24430002 	addiu	v1,v0,2
  406adc:	3c020041 	lui	v0,0x41
  406ae0:	00031880 	sll	v1,v1,0x2
  406ae4:	2442bc20 	addiu	v0,v0,-17376
  406ae8:	00621021 	addu	v0,v1,v0
  406aec:	8fa303b4 	lw	v1,948(sp)
  406af0:	00000000 	nop
  406af4:	ac430000 	sw	v1,0(v0)
  406af8:	8f82800c 	lw	v0,-32756(gp)
  406afc:	00000000 	nop
  406b00:	24420003 	addiu	v0,v0,3
  406b04:	af82800c 	sw	v0,-32756(gp)
  406b08:	8f828008 	lw	v0,-32760(gp)
  406b0c:	00000000 	nop
  406b10:	28420005 	slti	v0,v0,5
  406b14:	14400056 	bnez	v0,406c70 <main+0x6c58>
  406b18:	00000000 	nop
  406b1c:	8f82800c 	lw	v0,-32756(gp)
  406b20:	00000000 	nop
  406b24:	24420003 	addiu	v0,v0,3
  406b28:	28420007 	slti	v0,v0,7
  406b2c:	10400050 	beqz	v0,406c70 <main+0x6c58>
  406b30:	00000000 	nop
  406b34:	3c020041 	lui	v0,0x41
  406b38:	2442bc44 	addiu	v0,v0,-17340
  406b3c:	8c430010 	lw	v1,16(v0)
  406b40:	3c020041 	lui	v0,0x41
  406b44:	8c42bc44 	lw	v0,-17340(v0)
  406b48:	00000000 	nop
  406b4c:	14620048 	bne	v1,v0,406c70 <main+0x6c58>
  406b50:	00000000 	nop
  406b54:	3c020041 	lui	v0,0x41
  406b58:	2442bc44 	addiu	v0,v0,-17340
  406b5c:	8c430010 	lw	v1,16(v0)
  406b60:	3c020041 	lui	v0,0x41
  406b64:	2442bc44 	addiu	v0,v0,-17340
  406b68:	8c42000c 	lw	v0,12(v0)
  406b6c:	00000000 	nop
  406b70:	1462003f 	bne	v1,v0,406c70 <main+0x6c58>
  406b74:	00000000 	nop
  406b78:	3c020041 	lui	v0,0x41
  406b7c:	2442bc44 	addiu	v0,v0,-17340
  406b80:	8c420008 	lw	v0,8(v0)
  406b84:	00000000 	nop
  406b88:	afa203b8 	sw	v0,952(sp)
  406b8c:	3c020041 	lui	v0,0x41
  406b90:	2442bc44 	addiu	v0,v0,-17340
  406b94:	8c420010 	lw	v0,16(v0)
  406b98:	00000000 	nop
  406b9c:	afa203bc 	sw	v0,956(sp)
  406ba0:	8fa303bc 	lw	v1,956(sp)
  406ba4:	8fa203b8 	lw	v0,952(sp)
  406ba8:	00000000 	nop
  406bac:	0043102a 	slt	v0,v0,v1
  406bb0:	1040002f 	beqz	v0,406c70 <main+0x6c58>
  406bb4:	00000000 	nop
  406bb8:	3c020041 	lui	v0,0x41
  406bbc:	2442bc44 	addiu	v0,v0,-17340
  406bc0:	8c430004 	lw	v1,4(v0)
  406bc4:	3c020041 	lui	v0,0x41
  406bc8:	ac43bc44 	sw	v1,-17340(v0)
  406bcc:	8f828008 	lw	v0,-32760(gp)
  406bd0:	00000000 	nop
  406bd4:	2442fffc 	addiu	v0,v0,-4
  406bd8:	af828008 	sw	v0,-32760(gp)
  406bdc:	8fa303b8 	lw	v1,952(sp)
  406be0:	8fa203bc 	lw	v0,956(sp)
  406be4:	00000000 	nop
  406be8:	00621021 	addu	v0,v1,v0
  406bec:	afa203c0 	sw	v0,960(sp)
  406bf0:	8f83800c 	lw	v1,-32756(gp)
  406bf4:	3c020041 	lui	v0,0x41
  406bf8:	00031880 	sll	v1,v1,0x2
  406bfc:	2442bc20 	addiu	v0,v0,-17376
  406c00:	00621021 	addu	v0,v1,v0
  406c04:	8fa303b8 	lw	v1,952(sp)
  406c08:	00000000 	nop
  406c0c:	ac430000 	sw	v1,0(v0)
  406c10:	8f82800c 	lw	v0,-32756(gp)
  406c14:	00000000 	nop
  406c18:	24430001 	addiu	v1,v0,1
  406c1c:	3c020041 	lui	v0,0x41
  406c20:	00031880 	sll	v1,v1,0x2
  406c24:	2442bc20 	addiu	v0,v0,-17376
  406c28:	00621021 	addu	v0,v1,v0
  406c2c:	8fa303bc 	lw	v1,956(sp)
  406c30:	00000000 	nop
  406c34:	ac430000 	sw	v1,0(v0)
  406c38:	8f82800c 	lw	v0,-32756(gp)
  406c3c:	00000000 	nop
  406c40:	24430002 	addiu	v1,v0,2
  406c44:	3c020041 	lui	v0,0x41
  406c48:	00031880 	sll	v1,v1,0x2
  406c4c:	2442bc20 	addiu	v0,v0,-17376
  406c50:	00621021 	addu	v0,v1,v0
  406c54:	8fa303c0 	lw	v1,960(sp)
  406c58:	00000000 	nop
  406c5c:	ac430000 	sw	v1,0(v0)
  406c60:	8f82800c 	lw	v0,-32756(gp)
  406c64:	00000000 	nop
  406c68:	24420003 	addiu	v0,v0,3
  406c6c:	af82800c 	sw	v0,-32756(gp)
  406c70:	8f828008 	lw	v0,-32760(gp)
  406c74:	00000000 	nop
  406c78:	28420005 	slti	v0,v0,5
  406c7c:	14400056 	bnez	v0,406dd8 <main+0x6dc0>
  406c80:	00000000 	nop
  406c84:	8f82800c 	lw	v0,-32756(gp)
  406c88:	00000000 	nop
  406c8c:	24420003 	addiu	v0,v0,3
  406c90:	28420007 	slti	v0,v0,7
  406c94:	10400050 	beqz	v0,406dd8 <main+0x6dc0>
  406c98:	00000000 	nop
  406c9c:	3c020041 	lui	v0,0x41
  406ca0:	2442bc44 	addiu	v0,v0,-17340
  406ca4:	8c430010 	lw	v1,16(v0)
  406ca8:	3c020041 	lui	v0,0x41
  406cac:	2442bc44 	addiu	v0,v0,-17340
  406cb0:	8c420004 	lw	v0,4(v0)
  406cb4:	00000000 	nop
  406cb8:	14620047 	bne	v1,v0,406dd8 <main+0x6dc0>
  406cbc:	00000000 	nop
  406cc0:	3c020041 	lui	v0,0x41
  406cc4:	2442bc44 	addiu	v0,v0,-17340
  406cc8:	8c430010 	lw	v1,16(v0)
  406ccc:	3c020041 	lui	v0,0x41
  406cd0:	8c42bc44 	lw	v0,-17340(v0)
  406cd4:	00000000 	nop
  406cd8:	1462003f 	bne	v1,v0,406dd8 <main+0x6dc0>
  406cdc:	00000000 	nop
  406ce0:	3c020041 	lui	v0,0x41
  406ce4:	2442bc44 	addiu	v0,v0,-17340
  406ce8:	8c420008 	lw	v0,8(v0)
  406cec:	00000000 	nop
  406cf0:	afa203c4 	sw	v0,964(sp)
  406cf4:	3c020041 	lui	v0,0x41
  406cf8:	2442bc44 	addiu	v0,v0,-17340
  406cfc:	8c420010 	lw	v0,16(v0)
  406d00:	00000000 	nop
  406d04:	afa203c8 	sw	v0,968(sp)
  406d08:	8fa303c8 	lw	v1,968(sp)
  406d0c:	8fa203c4 	lw	v0,964(sp)
  406d10:	00000000 	nop
  406d14:	0043102a 	slt	v0,v0,v1
  406d18:	1040002f 	beqz	v0,406dd8 <main+0x6dc0>
  406d1c:	00000000 	nop
  406d20:	3c020041 	lui	v0,0x41
  406d24:	2442bc44 	addiu	v0,v0,-17340
  406d28:	8c43000c 	lw	v1,12(v0)
  406d2c:	3c020041 	lui	v0,0x41
  406d30:	ac43bc44 	sw	v1,-17340(v0)
  406d34:	8f828008 	lw	v0,-32760(gp)
  406d38:	00000000 	nop
  406d3c:	2442fffc 	addiu	v0,v0,-4
  406d40:	af828008 	sw	v0,-32760(gp)
  406d44:	8fa303c4 	lw	v1,964(sp)
  406d48:	8fa203c8 	lw	v0,968(sp)
  406d4c:	00000000 	nop
  406d50:	00621021 	addu	v0,v1,v0
  406d54:	afa203cc 	sw	v0,972(sp)
  406d58:	8f83800c 	lw	v1,-32756(gp)
  406d5c:	3c020041 	lui	v0,0x41
  406d60:	00031880 	sll	v1,v1,0x2
  406d64:	2442bc20 	addiu	v0,v0,-17376
  406d68:	00621021 	addu	v0,v1,v0
  406d6c:	8fa303c4 	lw	v1,964(sp)
  406d70:	00000000 	nop
  406d74:	ac430000 	sw	v1,0(v0)
  406d78:	8f82800c 	lw	v0,-32756(gp)
  406d7c:	00000000 	nop
  406d80:	24430001 	addiu	v1,v0,1
  406d84:	3c020041 	lui	v0,0x41
  406d88:	00031880 	sll	v1,v1,0x2
  406d8c:	2442bc20 	addiu	v0,v0,-17376
  406d90:	00621021 	addu	v0,v1,v0
  406d94:	8fa303c8 	lw	v1,968(sp)
  406d98:	00000000 	nop
  406d9c:	ac430000 	sw	v1,0(v0)
  406da0:	8f82800c 	lw	v0,-32756(gp)
  406da4:	00000000 	nop
  406da8:	24430002 	addiu	v1,v0,2
  406dac:	3c020041 	lui	v0,0x41
  406db0:	00031880 	sll	v1,v1,0x2
  406db4:	2442bc20 	addiu	v0,v0,-17376
  406db8:	00621021 	addu	v0,v1,v0
  406dbc:	8fa303cc 	lw	v1,972(sp)
  406dc0:	00000000 	nop
  406dc4:	ac430000 	sw	v1,0(v0)
  406dc8:	8f82800c 	lw	v0,-32756(gp)
  406dcc:	00000000 	nop
  406dd0:	24420003 	addiu	v0,v0,3
  406dd4:	af82800c 	sw	v0,-32756(gp)
  406dd8:	8f828008 	lw	v0,-32760(gp)
  406ddc:	00000000 	nop
  406de0:	28420005 	slti	v0,v0,5
  406de4:	14400052 	bnez	v0,406f30 <main+0x6f18>
  406de8:	00000000 	nop
  406dec:	8f82800c 	lw	v0,-32756(gp)
  406df0:	00000000 	nop
  406df4:	24420003 	addiu	v0,v0,3
  406df8:	28420007 	slti	v0,v0,7
  406dfc:	1040004c 	beqz	v0,406f30 <main+0x6f18>
  406e00:	00000000 	nop
  406e04:	3c020041 	lui	v0,0x41
  406e08:	2442bc44 	addiu	v0,v0,-17340
  406e0c:	8c430010 	lw	v1,16(v0)
  406e10:	3c020041 	lui	v0,0x41
  406e14:	2442bc44 	addiu	v0,v0,-17340
  406e18:	8c420004 	lw	v0,4(v0)
  406e1c:	00000000 	nop
  406e20:	14620043 	bne	v1,v0,406f30 <main+0x6f18>
  406e24:	00000000 	nop
  406e28:	3c020041 	lui	v0,0x41
  406e2c:	2442bc44 	addiu	v0,v0,-17340
  406e30:	8c430010 	lw	v1,16(v0)
  406e34:	3c020041 	lui	v0,0x41
  406e38:	2442bc44 	addiu	v0,v0,-17340
  406e3c:	8c42000c 	lw	v0,12(v0)
  406e40:	00000000 	nop
  406e44:	1462003a 	bne	v1,v0,406f30 <main+0x6f18>
  406e48:	00000000 	nop
  406e4c:	3c020041 	lui	v0,0x41
  406e50:	2442bc44 	addiu	v0,v0,-17340
  406e54:	8c420008 	lw	v0,8(v0)
  406e58:	00000000 	nop
  406e5c:	afa203d0 	sw	v0,976(sp)
  406e60:	3c020041 	lui	v0,0x41
  406e64:	2442bc44 	addiu	v0,v0,-17340
  406e68:	8c420010 	lw	v0,16(v0)
  406e6c:	00000000 	nop
  406e70:	afa203d4 	sw	v0,980(sp)
  406e74:	8fa303d4 	lw	v1,980(sp)
  406e78:	8fa203d0 	lw	v0,976(sp)
  406e7c:	00000000 	nop
  406e80:	0043102a 	slt	v0,v0,v1
  406e84:	1040002a 	beqz	v0,406f30 <main+0x6f18>
  406e88:	00000000 	nop
  406e8c:	8f828008 	lw	v0,-32760(gp)
  406e90:	00000000 	nop
  406e94:	2442fffc 	addiu	v0,v0,-4
  406e98:	af828008 	sw	v0,-32760(gp)
  406e9c:	8fa303d0 	lw	v1,976(sp)
  406ea0:	8fa203d4 	lw	v0,980(sp)
  406ea4:	00000000 	nop
  406ea8:	00621021 	addu	v0,v1,v0
  406eac:	afa203d8 	sw	v0,984(sp)
  406eb0:	8f83800c 	lw	v1,-32756(gp)
  406eb4:	3c020041 	lui	v0,0x41
  406eb8:	00031880 	sll	v1,v1,0x2
  406ebc:	2442bc20 	addiu	v0,v0,-17376
  406ec0:	00621021 	addu	v0,v1,v0
  406ec4:	8fa303d0 	lw	v1,976(sp)
  406ec8:	00000000 	nop
  406ecc:	ac430000 	sw	v1,0(v0)
  406ed0:	8f82800c 	lw	v0,-32756(gp)
  406ed4:	00000000 	nop
  406ed8:	24430001 	addiu	v1,v0,1
  406edc:	3c020041 	lui	v0,0x41
  406ee0:	00031880 	sll	v1,v1,0x2
  406ee4:	2442bc20 	addiu	v0,v0,-17376
  406ee8:	00621021 	addu	v0,v1,v0
  406eec:	8fa303d4 	lw	v1,980(sp)
  406ef0:	00000000 	nop
  406ef4:	ac430000 	sw	v1,0(v0)
  406ef8:	8f82800c 	lw	v0,-32756(gp)
  406efc:	00000000 	nop
  406f00:	24430002 	addiu	v1,v0,2
  406f04:	3c020041 	lui	v0,0x41
  406f08:	00031880 	sll	v1,v1,0x2
  406f0c:	2442bc20 	addiu	v0,v0,-17376
  406f10:	00621021 	addu	v0,v1,v0
  406f14:	8fa303d8 	lw	v1,984(sp)
  406f18:	00000000 	nop
  406f1c:	ac430000 	sw	v1,0(v0)
  406f20:	8f82800c 	lw	v0,-32756(gp)
  406f24:	00000000 	nop
  406f28:	24420003 	addiu	v0,v0,3
  406f2c:	af82800c 	sw	v0,-32756(gp)
  406f30:	8f828008 	lw	v0,-32760(gp)
  406f34:	00000000 	nop
  406f38:	28420005 	slti	v0,v0,5
  406f3c:	14400056 	bnez	v0,407098 <main+0x7080>
  406f40:	00000000 	nop
  406f44:	8f82800c 	lw	v0,-32756(gp)
  406f48:	00000000 	nop
  406f4c:	24420003 	addiu	v0,v0,3
  406f50:	28420007 	slti	v0,v0,7
  406f54:	10400050 	beqz	v0,407098 <main+0x7080>
  406f58:	00000000 	nop
  406f5c:	3c020041 	lui	v0,0x41
  406f60:	2442bc44 	addiu	v0,v0,-17340
  406f64:	8c430010 	lw	v1,16(v0)
  406f68:	3c020041 	lui	v0,0x41
  406f6c:	2442bc44 	addiu	v0,v0,-17340
  406f70:	8c42000c 	lw	v0,12(v0)
  406f74:	00000000 	nop
  406f78:	14620047 	bne	v1,v0,407098 <main+0x7080>
  406f7c:	00000000 	nop
  406f80:	3c020041 	lui	v0,0x41
  406f84:	2442bc44 	addiu	v0,v0,-17340
  406f88:	8c430010 	lw	v1,16(v0)
  406f8c:	3c020041 	lui	v0,0x41
  406f90:	8c42bc44 	lw	v0,-17340(v0)
  406f94:	00000000 	nop
  406f98:	1462003f 	bne	v1,v0,407098 <main+0x7080>
  406f9c:	00000000 	nop
  406fa0:	3c020041 	lui	v0,0x41
  406fa4:	2442bc44 	addiu	v0,v0,-17340
  406fa8:	8c420008 	lw	v0,8(v0)
  406fac:	00000000 	nop
  406fb0:	afa203dc 	sw	v0,988(sp)
  406fb4:	3c020041 	lui	v0,0x41
  406fb8:	2442bc44 	addiu	v0,v0,-17340
  406fbc:	8c420010 	lw	v0,16(v0)
  406fc0:	00000000 	nop
  406fc4:	afa203e0 	sw	v0,992(sp)
  406fc8:	8fa303e0 	lw	v1,992(sp)
  406fcc:	8fa203dc 	lw	v0,988(sp)
  406fd0:	00000000 	nop
  406fd4:	0043102a 	slt	v0,v0,v1
  406fd8:	1040002f 	beqz	v0,407098 <main+0x7080>
  406fdc:	00000000 	nop
  406fe0:	3c020041 	lui	v0,0x41
  406fe4:	2442bc44 	addiu	v0,v0,-17340
  406fe8:	8c430004 	lw	v1,4(v0)
  406fec:	3c020041 	lui	v0,0x41
  406ff0:	ac43bc44 	sw	v1,-17340(v0)
  406ff4:	8f828008 	lw	v0,-32760(gp)
  406ff8:	00000000 	nop
  406ffc:	2442fffc 	addiu	v0,v0,-4
  407000:	af828008 	sw	v0,-32760(gp)
  407004:	8fa303dc 	lw	v1,988(sp)
  407008:	8fa203e0 	lw	v0,992(sp)
  40700c:	00000000 	nop
  407010:	00621021 	addu	v0,v1,v0
  407014:	afa203e4 	sw	v0,996(sp)
  407018:	8f83800c 	lw	v1,-32756(gp)
  40701c:	3c020041 	lui	v0,0x41
  407020:	00031880 	sll	v1,v1,0x2
  407024:	2442bc20 	addiu	v0,v0,-17376
  407028:	00621021 	addu	v0,v1,v0
  40702c:	8fa303dc 	lw	v1,988(sp)
  407030:	00000000 	nop
  407034:	ac430000 	sw	v1,0(v0)
  407038:	8f82800c 	lw	v0,-32756(gp)
  40703c:	00000000 	nop
  407040:	24430001 	addiu	v1,v0,1
  407044:	3c020041 	lui	v0,0x41
  407048:	00031880 	sll	v1,v1,0x2
  40704c:	2442bc20 	addiu	v0,v0,-17376
  407050:	00621021 	addu	v0,v1,v0
  407054:	8fa303e0 	lw	v1,992(sp)
  407058:	00000000 	nop
  40705c:	ac430000 	sw	v1,0(v0)
  407060:	8f82800c 	lw	v0,-32756(gp)
  407064:	00000000 	nop
  407068:	24430002 	addiu	v1,v0,2
  40706c:	3c020041 	lui	v0,0x41
  407070:	00031880 	sll	v1,v1,0x2
  407074:	2442bc20 	addiu	v0,v0,-17376
  407078:	00621021 	addu	v0,v1,v0
  40707c:	8fa303e4 	lw	v1,996(sp)
  407080:	00000000 	nop
  407084:	ac430000 	sw	v1,0(v0)
  407088:	8f82800c 	lw	v0,-32756(gp)
  40708c:	00000000 	nop
  407090:	24420003 	addiu	v0,v0,3
  407094:	af82800c 	sw	v0,-32756(gp)
  407098:	8f828008 	lw	v0,-32760(gp)
  40709c:	00000000 	nop
  4070a0:	28420005 	slti	v0,v0,5
  4070a4:	14400052 	bnez	v0,4071f0 <main+0x71d8>
  4070a8:	00000000 	nop
  4070ac:	8f82800c 	lw	v0,-32756(gp)
  4070b0:	00000000 	nop
  4070b4:	24420003 	addiu	v0,v0,3
  4070b8:	28420007 	slti	v0,v0,7
  4070bc:	1040004c 	beqz	v0,4071f0 <main+0x71d8>
  4070c0:	00000000 	nop
  4070c4:	3c020041 	lui	v0,0x41
  4070c8:	2442bc44 	addiu	v0,v0,-17340
  4070cc:	8c430010 	lw	v1,16(v0)
  4070d0:	3c020041 	lui	v0,0x41
  4070d4:	2442bc44 	addiu	v0,v0,-17340
  4070d8:	8c42000c 	lw	v0,12(v0)
  4070dc:	00000000 	nop
  4070e0:	14620043 	bne	v1,v0,4071f0 <main+0x71d8>
  4070e4:	00000000 	nop
  4070e8:	3c020041 	lui	v0,0x41
  4070ec:	2442bc44 	addiu	v0,v0,-17340
  4070f0:	8c430010 	lw	v1,16(v0)
  4070f4:	3c020041 	lui	v0,0x41
  4070f8:	2442bc44 	addiu	v0,v0,-17340
  4070fc:	8c420004 	lw	v0,4(v0)
  407100:	00000000 	nop
  407104:	1462003a 	bne	v1,v0,4071f0 <main+0x71d8>
  407108:	00000000 	nop
  40710c:	3c020041 	lui	v0,0x41
  407110:	2442bc44 	addiu	v0,v0,-17340
  407114:	8c420008 	lw	v0,8(v0)
  407118:	00000000 	nop
  40711c:	afa203e8 	sw	v0,1000(sp)
  407120:	3c020041 	lui	v0,0x41
  407124:	2442bc44 	addiu	v0,v0,-17340
  407128:	8c420010 	lw	v0,16(v0)
  40712c:	00000000 	nop
  407130:	afa203ec 	sw	v0,1004(sp)
  407134:	8fa303ec 	lw	v1,1004(sp)
  407138:	8fa203e8 	lw	v0,1000(sp)
  40713c:	00000000 	nop
  407140:	0043102a 	slt	v0,v0,v1
  407144:	1040002a 	beqz	v0,4071f0 <main+0x71d8>
  407148:	00000000 	nop
  40714c:	8f828008 	lw	v0,-32760(gp)
  407150:	00000000 	nop
  407154:	2442fffc 	addiu	v0,v0,-4
  407158:	af828008 	sw	v0,-32760(gp)
  40715c:	8fa303e8 	lw	v1,1000(sp)
  407160:	8fa203ec 	lw	v0,1004(sp)
  407164:	00000000 	nop
  407168:	00621021 	addu	v0,v1,v0
  40716c:	afa203f0 	sw	v0,1008(sp)
  407170:	8f83800c 	lw	v1,-32756(gp)
  407174:	3c020041 	lui	v0,0x41
  407178:	00031880 	sll	v1,v1,0x2
  40717c:	2442bc20 	addiu	v0,v0,-17376
  407180:	00621021 	addu	v0,v1,v0
  407184:	8fa303e8 	lw	v1,1000(sp)
  407188:	00000000 	nop
  40718c:	ac430000 	sw	v1,0(v0)
  407190:	8f82800c 	lw	v0,-32756(gp)
  407194:	00000000 	nop
  407198:	24430001 	addiu	v1,v0,1
  40719c:	3c020041 	lui	v0,0x41
  4071a0:	00031880 	sll	v1,v1,0x2
  4071a4:	2442bc20 	addiu	v0,v0,-17376
  4071a8:	00621021 	addu	v0,v1,v0
  4071ac:	8fa303ec 	lw	v1,1004(sp)
  4071b0:	00000000 	nop
  4071b4:	ac430000 	sw	v1,0(v0)
  4071b8:	8f82800c 	lw	v0,-32756(gp)
  4071bc:	00000000 	nop
  4071c0:	24430002 	addiu	v1,v0,2
  4071c4:	3c020041 	lui	v0,0x41
  4071c8:	00031880 	sll	v1,v1,0x2
  4071cc:	2442bc20 	addiu	v0,v0,-17376
  4071d0:	00621021 	addu	v0,v1,v0
  4071d4:	8fa303f0 	lw	v1,1008(sp)
  4071d8:	00000000 	nop
  4071dc:	ac430000 	sw	v1,0(v0)
  4071e0:	8f82800c 	lw	v0,-32756(gp)
  4071e4:	00000000 	nop
  4071e8:	24420003 	addiu	v0,v0,3
  4071ec:	af82800c 	sw	v0,-32756(gp)
  4071f0:	8f828008 	lw	v0,-32760(gp)
  4071f4:	00000000 	nop
  4071f8:	28420005 	slti	v0,v0,5
  4071fc:	14400054 	bnez	v0,407350 <main+0x7338>
  407200:	00000000 	nop
  407204:	8f82800c 	lw	v0,-32756(gp)
  407208:	00000000 	nop
  40720c:	24420003 	addiu	v0,v0,3
  407210:	28420007 	slti	v0,v0,7
  407214:	1040004e 	beqz	v0,407350 <main+0x7338>
  407218:	00000000 	nop
  40721c:	3c020041 	lui	v0,0x41
  407220:	8c43bc44 	lw	v1,-17340(v0)
  407224:	3c020041 	lui	v0,0x41
  407228:	2442bc44 	addiu	v0,v0,-17340
  40722c:	8c420004 	lw	v0,4(v0)
  407230:	00000000 	nop
  407234:	14620046 	bne	v1,v0,407350 <main+0x7338>
  407238:	00000000 	nop
  40723c:	3c020041 	lui	v0,0x41
  407240:	8c43bc44 	lw	v1,-17340(v0)
  407244:	3c020041 	lui	v0,0x41
  407248:	2442bc44 	addiu	v0,v0,-17340
  40724c:	8c420010 	lw	v0,16(v0)
  407250:	00000000 	nop
  407254:	1462003e 	bne	v1,v0,407350 <main+0x7338>
  407258:	00000000 	nop
  40725c:	3c020041 	lui	v0,0x41
  407260:	2442bc44 	addiu	v0,v0,-17340
  407264:	8c42000c 	lw	v0,12(v0)
  407268:	00000000 	nop
  40726c:	afa203f4 	sw	v0,1012(sp)
  407270:	3c020041 	lui	v0,0x41
  407274:	8c42bc44 	lw	v0,-17340(v0)
  407278:	00000000 	nop
  40727c:	afa203f8 	sw	v0,1016(sp)
  407280:	8fa303f8 	lw	v1,1016(sp)
  407284:	8fa203f4 	lw	v0,1012(sp)
  407288:	00000000 	nop
  40728c:	0043102a 	slt	v0,v0,v1
  407290:	1040002f 	beqz	v0,407350 <main+0x7338>
  407294:	00000000 	nop
  407298:	3c020041 	lui	v0,0x41
  40729c:	2442bc44 	addiu	v0,v0,-17340
  4072a0:	8c430008 	lw	v1,8(v0)
  4072a4:	3c020041 	lui	v0,0x41
  4072a8:	ac43bc44 	sw	v1,-17340(v0)
  4072ac:	8f828008 	lw	v0,-32760(gp)
  4072b0:	00000000 	nop
  4072b4:	2442fffc 	addiu	v0,v0,-4
  4072b8:	af828008 	sw	v0,-32760(gp)
  4072bc:	8fa303f4 	lw	v1,1012(sp)
  4072c0:	8fa203f8 	lw	v0,1016(sp)
  4072c4:	00000000 	nop
  4072c8:	00621021 	addu	v0,v1,v0
  4072cc:	afa203fc 	sw	v0,1020(sp)
  4072d0:	8f83800c 	lw	v1,-32756(gp)
  4072d4:	3c020041 	lui	v0,0x41
  4072d8:	00031880 	sll	v1,v1,0x2
  4072dc:	2442bc20 	addiu	v0,v0,-17376
  4072e0:	00621021 	addu	v0,v1,v0
  4072e4:	8fa303f4 	lw	v1,1012(sp)
  4072e8:	00000000 	nop
  4072ec:	ac430000 	sw	v1,0(v0)
  4072f0:	8f82800c 	lw	v0,-32756(gp)
  4072f4:	00000000 	nop
  4072f8:	24430001 	addiu	v1,v0,1
  4072fc:	3c020041 	lui	v0,0x41
  407300:	00031880 	sll	v1,v1,0x2
  407304:	2442bc20 	addiu	v0,v0,-17376
  407308:	00621021 	addu	v0,v1,v0
  40730c:	8fa303f8 	lw	v1,1016(sp)
  407310:	00000000 	nop
  407314:	ac430000 	sw	v1,0(v0)
  407318:	8f82800c 	lw	v0,-32756(gp)
  40731c:	00000000 	nop
  407320:	24430002 	addiu	v1,v0,2
  407324:	3c020041 	lui	v0,0x41
  407328:	00031880 	sll	v1,v1,0x2
  40732c:	2442bc20 	addiu	v0,v0,-17376
  407330:	00621021 	addu	v0,v1,v0
  407334:	8fa303fc 	lw	v1,1020(sp)
  407338:	00000000 	nop
  40733c:	ac430000 	sw	v1,0(v0)
  407340:	8f82800c 	lw	v0,-32756(gp)
  407344:	00000000 	nop
  407348:	24420003 	addiu	v0,v0,3
  40734c:	af82800c 	sw	v0,-32756(gp)
  407350:	8f828008 	lw	v0,-32760(gp)
  407354:	00000000 	nop
  407358:	28420005 	slti	v0,v0,5
  40735c:	14400054 	bnez	v0,4074b0 <main+0x7498>
  407360:	00000000 	nop
  407364:	8f82800c 	lw	v0,-32756(gp)
  407368:	00000000 	nop
  40736c:	24420003 	addiu	v0,v0,3
  407370:	28420007 	slti	v0,v0,7
  407374:	1040004e 	beqz	v0,4074b0 <main+0x7498>
  407378:	00000000 	nop
  40737c:	3c020041 	lui	v0,0x41
  407380:	8c43bc44 	lw	v1,-17340(v0)
  407384:	3c020041 	lui	v0,0x41
  407388:	2442bc44 	addiu	v0,v0,-17340
  40738c:	8c420008 	lw	v0,8(v0)
  407390:	00000000 	nop
  407394:	14620046 	bne	v1,v0,4074b0 <main+0x7498>
  407398:	00000000 	nop
  40739c:	3c020041 	lui	v0,0x41
  4073a0:	8c43bc44 	lw	v1,-17340(v0)
  4073a4:	3c020041 	lui	v0,0x41
  4073a8:	2442bc44 	addiu	v0,v0,-17340
  4073ac:	8c420010 	lw	v0,16(v0)
  4073b0:	00000000 	nop
  4073b4:	1462003e 	bne	v1,v0,4074b0 <main+0x7498>
  4073b8:	00000000 	nop
  4073bc:	3c020041 	lui	v0,0x41
  4073c0:	2442bc44 	addiu	v0,v0,-17340
  4073c4:	8c42000c 	lw	v0,12(v0)
  4073c8:	00000000 	nop
  4073cc:	afa20400 	sw	v0,1024(sp)
  4073d0:	3c020041 	lui	v0,0x41
  4073d4:	8c42bc44 	lw	v0,-17340(v0)
  4073d8:	00000000 	nop
  4073dc:	afa20404 	sw	v0,1028(sp)
  4073e0:	8fa30404 	lw	v1,1028(sp)
  4073e4:	8fa20400 	lw	v0,1024(sp)
  4073e8:	00000000 	nop
  4073ec:	0043102a 	slt	v0,v0,v1
  4073f0:	1040002f 	beqz	v0,4074b0 <main+0x7498>
  4073f4:	00000000 	nop
  4073f8:	3c020041 	lui	v0,0x41
  4073fc:	2442bc44 	addiu	v0,v0,-17340
  407400:	8c430004 	lw	v1,4(v0)
  407404:	3c020041 	lui	v0,0x41
  407408:	ac43bc44 	sw	v1,-17340(v0)
  40740c:	8f828008 	lw	v0,-32760(gp)
  407410:	00000000 	nop
  407414:	2442fffc 	addiu	v0,v0,-4
  407418:	af828008 	sw	v0,-32760(gp)
  40741c:	8fa30400 	lw	v1,1024(sp)
  407420:	8fa20404 	lw	v0,1028(sp)
  407424:	00000000 	nop
  407428:	00621021 	addu	v0,v1,v0
  40742c:	afa20408 	sw	v0,1032(sp)
  407430:	8f83800c 	lw	v1,-32756(gp)
  407434:	3c020041 	lui	v0,0x41
  407438:	00031880 	sll	v1,v1,0x2
  40743c:	2442bc20 	addiu	v0,v0,-17376
  407440:	00621021 	addu	v0,v1,v0
  407444:	8fa30400 	lw	v1,1024(sp)
  407448:	00000000 	nop
  40744c:	ac430000 	sw	v1,0(v0)
  407450:	8f82800c 	lw	v0,-32756(gp)
  407454:	00000000 	nop
  407458:	24430001 	addiu	v1,v0,1
  40745c:	3c020041 	lui	v0,0x41
  407460:	00031880 	sll	v1,v1,0x2
  407464:	2442bc20 	addiu	v0,v0,-17376
  407468:	00621021 	addu	v0,v1,v0
  40746c:	8fa30404 	lw	v1,1028(sp)
  407470:	00000000 	nop
  407474:	ac430000 	sw	v1,0(v0)
  407478:	8f82800c 	lw	v0,-32756(gp)
  40747c:	00000000 	nop
  407480:	24430002 	addiu	v1,v0,2
  407484:	3c020041 	lui	v0,0x41
  407488:	00031880 	sll	v1,v1,0x2
  40748c:	2442bc20 	addiu	v0,v0,-17376
  407490:	00621021 	addu	v0,v1,v0
  407494:	8fa30408 	lw	v1,1032(sp)
  407498:	00000000 	nop
  40749c:	ac430000 	sw	v1,0(v0)
  4074a0:	8f82800c 	lw	v0,-32756(gp)
  4074a4:	00000000 	nop
  4074a8:	24420003 	addiu	v0,v0,3
  4074ac:	af82800c 	sw	v0,-32756(gp)
  4074b0:	8f828008 	lw	v0,-32760(gp)
  4074b4:	00000000 	nop
  4074b8:	28420005 	slti	v0,v0,5
  4074bc:	14400054 	bnez	v0,407610 <main+0x75f8>
  4074c0:	00000000 	nop
  4074c4:	8f82800c 	lw	v0,-32756(gp)
  4074c8:	00000000 	nop
  4074cc:	24420003 	addiu	v0,v0,3
  4074d0:	28420007 	slti	v0,v0,7
  4074d4:	1040004e 	beqz	v0,407610 <main+0x75f8>
  4074d8:	00000000 	nop
  4074dc:	3c020041 	lui	v0,0x41
  4074e0:	8c43bc44 	lw	v1,-17340(v0)
  4074e4:	3c020041 	lui	v0,0x41
  4074e8:	2442bc44 	addiu	v0,v0,-17340
  4074ec:	8c420010 	lw	v0,16(v0)
  4074f0:	00000000 	nop
  4074f4:	14620046 	bne	v1,v0,407610 <main+0x75f8>
  4074f8:	00000000 	nop
  4074fc:	3c020041 	lui	v0,0x41
  407500:	8c43bc44 	lw	v1,-17340(v0)
  407504:	3c020041 	lui	v0,0x41
  407508:	2442bc44 	addiu	v0,v0,-17340
  40750c:	8c420004 	lw	v0,4(v0)
  407510:	00000000 	nop
  407514:	1462003e 	bne	v1,v0,407610 <main+0x75f8>
  407518:	00000000 	nop
  40751c:	3c020041 	lui	v0,0x41
  407520:	2442bc44 	addiu	v0,v0,-17340
  407524:	8c42000c 	lw	v0,12(v0)
  407528:	00000000 	nop
  40752c:	afa2040c 	sw	v0,1036(sp)
  407530:	3c020041 	lui	v0,0x41
  407534:	8c42bc44 	lw	v0,-17340(v0)
  407538:	00000000 	nop
  40753c:	afa20410 	sw	v0,1040(sp)
  407540:	8fa30410 	lw	v1,1040(sp)
  407544:	8fa2040c 	lw	v0,1036(sp)
  407548:	00000000 	nop
  40754c:	0043102a 	slt	v0,v0,v1
  407550:	1040002f 	beqz	v0,407610 <main+0x75f8>
  407554:	00000000 	nop
  407558:	3c020041 	lui	v0,0x41
  40755c:	2442bc44 	addiu	v0,v0,-17340
  407560:	8c430008 	lw	v1,8(v0)
  407564:	3c020041 	lui	v0,0x41
  407568:	ac43bc44 	sw	v1,-17340(v0)
  40756c:	8f828008 	lw	v0,-32760(gp)
  407570:	00000000 	nop
  407574:	2442fffc 	addiu	v0,v0,-4
  407578:	af828008 	sw	v0,-32760(gp)
  40757c:	8fa3040c 	lw	v1,1036(sp)
  407580:	8fa20410 	lw	v0,1040(sp)
  407584:	00000000 	nop
  407588:	00621021 	addu	v0,v1,v0
  40758c:	afa20414 	sw	v0,1044(sp)
  407590:	8f83800c 	lw	v1,-32756(gp)
  407594:	3c020041 	lui	v0,0x41
  407598:	00031880 	sll	v1,v1,0x2
  40759c:	2442bc20 	addiu	v0,v0,-17376
