
/tmp/ludcmp:     file format elf32-bigmips

SYMBOL TABLE:
00400000 l    d  .reginfo	00000000 .reginfo
00400018 l    d  .text	00000000 .text
00401c30 l    d  .sdata	00000000 .sdata
00401c40 l    d  .bss	00000000 .bss
00000000 l    d  .pdr	00000000 .pdr
00000000 l    d  .wcet_annot	00000000 .wcet_annot
00000000 l    d  .comment	00000000 .comment
00000000 l    d  .debug_aranges	00000000 .debug_aranges
00000000 l    d  .debug_info	00000000 .debug_info
00000000 l    d  .debug_abbrev	00000000 .debug_abbrev
00000000 l    d  .debug_line	00000000 .debug_line
00000000 l    d  .debug_frame	00000000 .debug_frame
00000000 l    d  .debug_str	00000000 .debug_str
00000000 l    d  .debug_loc	00000000 .debug_loc
00000000 l    d  .gnu.attributes	00000000 .gnu.attributes
00000010 l    d  .mdebug.abi32	00000000 .mdebug.abi32
00000000 l    df *ABS*	00000000 ludcmp.c
00400018 l     F .text	0000009c fabs
00401c2c g       .sdata	00000000 _fdata
00401c40 g     O .bss	00000190 b
00401dd0 g     O .bss	00000190 x
00409c20 g       *ABS*	00000000 _gp
00400018 g       .text	00000000 _ftext
0040032c g     F .text	00000900 ludcmp
00401c40 g       *ABS*	00000000 __bss_start
004000b4 g     F .text	00000278 main
00401c40 g       *ABS*	00000000 _edata
00406d80 g       *ABS*	00000000 _end
00401f60 g     O .bss	00004e20 a
00401c40 g       *ABS*	00000000 _fbss



Disassembly of section .text:

00400018 <fabs>:
  400018:	27bdfff8 	addiu	sp,sp,-8
  40001c:	e7ac000c 	swc1	$f12,12(sp)
  400020:	e7ad0008 	swc1	$f13,8(sp)
  400024:	8fa5000c 	lw	a1,12(sp)
  400028:	8fa40008 	lw	a0,8(sp)
  40002c:	00001821 	move	v1,zero
  400030:	00001021 	move	v0,zero
  400034:	44850000 	mtc1	a1,$f0
  400038:	00000000 	nop
  40003c:	44840800 	mtc1	a0,$f1
  400040:	44831000 	mtc1	v1,$f2
  400044:	00000000 	nop
  400048:	44821800 	mtc1	v0,$f3
  40004c:	00000000 	nop
  400050:	4620103e 	c.le.d	$f2,$f0
  400054:	00000000 	nop
  400058:	45000007 	bc1f	400078 <fabs+0x60>
  40005c:	00000000 	nop
  400060:	8fa3000c 	lw	v1,12(sp)
  400064:	8fa20008 	lw	v0,8(sp)
  400068:	afa30004 	sw	v1,4(sp)
  40006c:	afa20000 	sw	v0,0(sp)
  400070:	08100025 	j	400094 <fabs+0x7c>
  400074:	00000000 	nop
  400078:	8fa30008 	lw	v1,8(sp)
  40007c:	3c028000 	lui	v0,0x8000
  400080:	00621026 	xor	v0,v1,v0
  400084:	afa20000 	sw	v0,0(sp)
  400088:	8fa2000c 	lw	v0,12(sp)
  40008c:	00000000 	nop
  400090:	afa20004 	sw	v0,4(sp)
  400094:	8fa30004 	lw	v1,4(sp)
  400098:	8fa20000 	lw	v0,0(sp)
  40009c:	44830000 	mtc1	v1,$f0
  4000a0:	00000000 	nop
  4000a4:	44820800 	mtc1	v0,$f1
  4000a8:	27bd0008 	addiu	sp,sp,8
  4000ac:	03e00008 	jr	ra
  4000b0:	00000000 	nop

004000b4 <main>:
  4000b4:	27bdffc0 	addiu	sp,sp,-64
  4000b8:	afbf003c 	sw	ra,60(sp)
  4000bc:	24020005 	li	v0,5
  4000c0:	afa20020 	sw	v0,32(sp)
  4000c4:	8f838014 	lw	v1,-32748(gp)
  4000c8:	8f828010 	lw	v0,-32752(gp)
  4000cc:	afa3002c 	sw	v1,44(sp)
  4000d0:	afa20028 	sw	v0,40(sp)
  4000d4:	081000ba 	j	4002e8 <main+0x234>
  4000d8:	afa00010 	sw	zero,16(sp)
  4000dc:	afa0001c 	sw	zero,28(sp)
  4000e0:	afa00018 	sw	zero,24(sp)
  4000e4:	081000a6 	j	400298 <main+0x1e4>
  4000e8:	afa00014 	sw	zero,20(sp)
  4000ec:	8fa20010 	lw	v0,16(sp)
  4000f0:	00000000 	nop
  4000f4:	24430001 	addiu	v1,v0,1
  4000f8:	8fa20014 	lw	v0,20(sp)
  4000fc:	00000000 	nop
  400100:	24420001 	addiu	v0,v0,1
  400104:	00621021 	addu	v0,v1,v0
  400108:	44820000 	mtc1	v0,$f0
  40010c:	00000000 	nop
  400110:	46800021 	cvt.d.w	$f0,$f0
  400114:	44050000 	mfc1	a1,$f0
  400118:	44040800 	mfc1	a0,$f1
  40011c:	3c060040 	lui	a2,0x40
  400120:	8fa20010 	lw	v0,16(sp)
  400124:	00000000 	nop
  400128:	00021040 	sll	v0,v0,0x1
  40012c:	00021880 	sll	v1,v0,0x2
  400130:	00431021 	addu	v0,v0,v1
  400134:	00021880 	sll	v1,v0,0x2
  400138:	00431021 	addu	v0,v0,v1
  40013c:	8fa30014 	lw	v1,20(sp)
  400140:	00000000 	nop
  400144:	00431021 	addu	v0,v0,v1
  400148:	000218c0 	sll	v1,v0,0x3
  40014c:	24c21f60 	addiu	v0,a2,8032
  400150:	00621021 	addu	v0,v1,v0
  400154:	ac450004 	sw	a1,4(v0)
  400158:	ac440000 	sw	a0,0(v0)
  40015c:	8fa30010 	lw	v1,16(sp)
  400160:	8fa20014 	lw	v0,20(sp)
  400164:	00000000 	nop
  400168:	1462002b 	bne	v1,v0,400218 <main+0x164>
  40016c:	00000000 	nop
  400170:	3c040040 	lui	a0,0x40
  400174:	8fa20010 	lw	v0,16(sp)
  400178:	00000000 	nop
  40017c:	00021040 	sll	v0,v0,0x1
  400180:	00021880 	sll	v1,v0,0x2
  400184:	00431021 	addu	v0,v0,v1
  400188:	00021880 	sll	v1,v0,0x2
  40018c:	00431021 	addu	v0,v0,v1
  400190:	8fa30014 	lw	v1,20(sp)
  400194:	00000000 	nop
  400198:	00431021 	addu	v0,v0,v1
  40019c:	000218c0 	sll	v1,v0,0x3
  4001a0:	24821f60 	addiu	v0,a0,8032
  4001a4:	00621021 	addu	v0,v1,v0
  4001a8:	8c450004 	lw	a1,4(v0)
  4001ac:	8c440000 	lw	a0,0(v0)
  4001b0:	8f83801c 	lw	v1,-32740(gp)
  4001b4:	8f828018 	lw	v0,-32744(gp)
  4001b8:	44851000 	mtc1	a1,$f2
  4001bc:	44841800 	mtc1	a0,$f3
  4001c0:	44830000 	mtc1	v1,$f0
  4001c4:	44820800 	mtc1	v0,$f1
  4001c8:	00000000 	nop
  4001cc:	46201082 	mul.d	$f2,$f2,$f0
  4001d0:	44051000 	mfc1	a1,$f2
  4001d4:	44041800 	mfc1	a0,$f3
  4001d8:	3c060040 	lui	a2,0x40
  4001dc:	8fa20010 	lw	v0,16(sp)
  4001e0:	00000000 	nop
  4001e4:	00021040 	sll	v0,v0,0x1
  4001e8:	00021880 	sll	v1,v0,0x2
  4001ec:	00431021 	addu	v0,v0,v1
  4001f0:	00021880 	sll	v1,v0,0x2
  4001f4:	00431021 	addu	v0,v0,v1
  4001f8:	8fa30014 	lw	v1,20(sp)
  4001fc:	00000000 	nop
  400200:	00431021 	addu	v0,v0,v1
  400204:	000218c0 	sll	v1,v0,0x3
  400208:	24c21f60 	addiu	v0,a2,8032
  40020c:	00621021 	addu	v0,v1,v0
  400210:	ac450004 	sw	a1,4(v0)
  400214:	ac440000 	sw	a0,0(v0)
  400218:	3c040040 	lui	a0,0x40
  40021c:	8fa20010 	lw	v0,16(sp)
  400220:	00000000 	nop
  400224:	00021040 	sll	v0,v0,0x1
  400228:	00021880 	sll	v1,v0,0x2
  40022c:	00431021 	addu	v0,v0,v1
  400230:	00021880 	sll	v1,v0,0x2
  400234:	00431021 	addu	v0,v0,v1
  400238:	8fa30014 	lw	v1,20(sp)
  40023c:	00000000 	nop
  400240:	00431021 	addu	v0,v0,v1
  400244:	000218c0 	sll	v1,v0,0x3
  400248:	24821f60 	addiu	v0,a0,8032
  40024c:	00621021 	addu	v0,v1,v0
  400250:	8c430004 	lw	v1,4(v0)
  400254:	8c420000 	lw	v0,0(v0)
  400258:	8fa5001c 	lw	a1,28(sp)
  40025c:	8fa40018 	lw	a0,24(sp)
  400260:	44851000 	mtc1	a1,$f2
  400264:	44841800 	mtc1	a0,$f3
  400268:	44830000 	mtc1	v1,$f0
  40026c:	44820800 	mtc1	v0,$f1
  400270:	00000000 	nop
  400274:	46201080 	add.d	$f2,$f2,$f0
  400278:	44031000 	mfc1	v1,$f2
  40027c:	44021800 	mfc1	v0,$f3
  400280:	afa3001c 	sw	v1,28(sp)
  400284:	afa20018 	sw	v0,24(sp)
  400288:	8fa20014 	lw	v0,20(sp)
  40028c:	00000000 	nop
  400290:	24420001 	addiu	v0,v0,1
  400294:	afa20014 	sw	v0,20(sp)
  400298:	8fa30014 	lw	v1,20(sp)
  40029c:	8fa20020 	lw	v0,32(sp)
  4002a0:	00000000 	nop
  4002a4:	0043102a 	slt	v0,v0,v1
  4002a8:	1040ff90 	beqz	v0,4000ec <main+0x38>
  4002ac:	00000000 	nop
  4002b0:	3c020040 	lui	v0,0x40
  4002b4:	8fa30010 	lw	v1,16(sp)
  4002b8:	00000000 	nop
  4002bc:	000318c0 	sll	v1,v1,0x3
  4002c0:	24421c40 	addiu	v0,v0,7232
  4002c4:	00622021 	addu	a0,v1,v0
  4002c8:	8fa3001c 	lw	v1,28(sp)
  4002cc:	8fa20018 	lw	v0,24(sp)
  4002d0:	ac830004 	sw	v1,4(a0)
  4002d4:	ac820000 	sw	v0,0(a0)
  4002d8:	8fa20010 	lw	v0,16(sp)
  4002dc:	00000000 	nop
  4002e0:	24420001 	addiu	v0,v0,1
  4002e4:	afa20010 	sw	v0,16(sp)
  4002e8:	8fa30010 	lw	v1,16(sp)
  4002ec:	8fa20020 	lw	v0,32(sp)
  4002f0:	00000000 	nop
  4002f4:	0043102a 	slt	v0,v0,v1
  4002f8:	1040ff78 	beqz	v0,4000dc <main+0x28>
  4002fc:	00000000 	nop
  400300:	8fa40020 	lw	a0,32(sp)
  400304:	8fa7002c 	lw	a3,44(sp)
  400308:	8fa60028 	lw	a2,40(sp)
  40030c:	0c1000cb 	jal	40032c <ludcmp>
  400310:	00000000 	nop
  400314:	afa20030 	sw	v0,48(sp)
  400318:	00001021 	move	v0,zero
  40031c:	8fbf003c 	lw	ra,60(sp)
  400320:	27bd0040 	addiu	sp,sp,64
  400324:	03e00008 	jr	ra
  400328:	00000000 	nop

0040032c <ludcmp>:
  40032c:	27bdfcb0 	addiu	sp,sp,-848
  400330:	afbf034c 	sw	ra,844(sp)
  400334:	afa40350 	sw	a0,848(sp)
  400338:	afa7035c 	sw	a3,860(sp)
  40033c:	afa60358 	sw	a2,856(sp)
  400340:	8fa20350 	lw	v0,848(sp)
  400344:	00000000 	nop
  400348:	28420064 	slti	v0,v0,100
  40034c:	1040000e 	beqz	v0,400388 <ludcmp+0x5c>
  400350:	00000000 	nop
  400354:	8fa5035c 	lw	a1,860(sp)
  400358:	8fa40358 	lw	a0,856(sp)
  40035c:	00001821 	move	v1,zero
  400360:	00001021 	move	v0,zero
  400364:	44850000 	mtc1	a1,$f0
  400368:	44840800 	mtc1	a0,$f1
  40036c:	44831000 	mtc1	v1,$f2
  400370:	44821800 	mtc1	v0,$f3
  400374:	00000000 	nop
  400378:	4622003e 	c.le.d	$f0,$f2
  40037c:	00000000 	nop
  400380:	45000003 	bc1f	400390 <ludcmp+0x64>
  400384:	00000000 	nop
  400388:	08100307 	j	400c1c <ludcmp+0x8f0>
  40038c:	240203e7 	li	v0,999
  400390:	0810020e 	j	400838 <ludcmp+0x50c>
  400394:	afa00010 	sw	zero,16(sp)
  400398:	3c040040 	lui	a0,0x40
  40039c:	8fa20010 	lw	v0,16(sp)
  4003a0:	00000000 	nop
  4003a4:	00401821 	move	v1,v0
  4003a8:	000310c0 	sll	v0,v1,0x3
  4003ac:	00401821 	move	v1,v0
  4003b0:	00031080 	sll	v0,v1,0x2
  4003b4:	00431023 	subu	v0,v0,v1
  4003b8:	00021900 	sll	v1,v0,0x4
  4003bc:	00431021 	addu	v0,v0,v1
  4003c0:	24831f60 	addiu	v1,a0,8032
  4003c4:	00431021 	addu	v0,v0,v1
  4003c8:	8c430004 	lw	v1,4(v0)
  4003cc:	8c420000 	lw	v0,0(v0)
  4003d0:	44836000 	mtc1	v1,$f12
  4003d4:	44826800 	mtc1	v0,$f13
  4003d8:	0c100006 	jal	400018 <fabs>
  4003dc:	00000000 	nop
  4003e0:	44050000 	mfc1	a1,$f0
  4003e4:	44040800 	mfc1	a0,$f1
  4003e8:	8fa3035c 	lw	v1,860(sp)
  4003ec:	8fa20358 	lw	v0,856(sp)
  4003f0:	44850000 	mtc1	a1,$f0
  4003f4:	44840800 	mtc1	a0,$f1
  4003f8:	44831000 	mtc1	v1,$f2
  4003fc:	44821800 	mtc1	v0,$f3
  400400:	00000000 	nop
  400404:	4622003e 	c.le.d	$f0,$f2
  400408:	00000000 	nop
  40040c:	45000003 	bc1f	40041c <ludcmp+0xf0>
  400410:	00000000 	nop
  400414:	08100307 	j	400c1c <ludcmp+0x8f0>
  400418:	24020001 	li	v0,1
  40041c:	8fa20010 	lw	v0,16(sp)
  400420:	00000000 	nop
  400424:	24420001 	addiu	v0,v0,1
  400428:	0810018e 	j	400638 <ludcmp+0x30c>
  40042c:	afa20014 	sw	v0,20(sp)
  400430:	3c040040 	lui	a0,0x40
  400434:	8fa20014 	lw	v0,20(sp)
  400438:	00000000 	nop
  40043c:	00021040 	sll	v0,v0,0x1
  400440:	00021880 	sll	v1,v0,0x2
  400444:	00431021 	addu	v0,v0,v1
  400448:	00021880 	sll	v1,v0,0x2
  40044c:	00431021 	addu	v0,v0,v1
  400450:	8fa30010 	lw	v1,16(sp)
  400454:	00000000 	nop
  400458:	00431021 	addu	v0,v0,v1
  40045c:	000218c0 	sll	v1,v0,0x3
  400460:	24821f60 	addiu	v0,a0,8032
  400464:	00621021 	addu	v0,v1,v0
  400468:	8c430004 	lw	v1,4(v0)
  40046c:	8c420000 	lw	v0,0(v0)
  400470:	afa30024 	sw	v1,36(sp)
  400474:	afa20020 	sw	v0,32(sp)
  400478:	8fa20010 	lw	v0,16(sp)
  40047c:	00000000 	nop
  400480:	10400041 	beqz	v0,400588 <ludcmp+0x25c>
  400484:	00000000 	nop
  400488:	0810015c 	j	400570 <ludcmp+0x244>
  40048c:	afa00018 	sw	zero,24(sp)
  400490:	3c040040 	lui	a0,0x40
  400494:	8fa20014 	lw	v0,20(sp)
  400498:	00000000 	nop
  40049c:	00021040 	sll	v0,v0,0x1
  4004a0:	00021880 	sll	v1,v0,0x2
  4004a4:	00431021 	addu	v0,v0,v1
  4004a8:	00021880 	sll	v1,v0,0x2
  4004ac:	00431021 	addu	v0,v0,v1
  4004b0:	8fa30018 	lw	v1,24(sp)
  4004b4:	00000000 	nop
  4004b8:	00431021 	addu	v0,v0,v1
  4004bc:	000218c0 	sll	v1,v0,0x3
  4004c0:	24821f60 	addiu	v0,a0,8032
  4004c4:	00621021 	addu	v0,v1,v0
  4004c8:	8c450004 	lw	a1,4(v0)
  4004cc:	8c440000 	lw	a0,0(v0)
  4004d0:	3c060040 	lui	a2,0x40
  4004d4:	8fa20018 	lw	v0,24(sp)
  4004d8:	00000000 	nop
  4004dc:	00021040 	sll	v0,v0,0x1
  4004e0:	00021880 	sll	v1,v0,0x2
  4004e4:	00431021 	addu	v0,v0,v1
  4004e8:	00021880 	sll	v1,v0,0x2
  4004ec:	00431021 	addu	v0,v0,v1
  4004f0:	8fa30010 	lw	v1,16(sp)
  4004f4:	00000000 	nop
  4004f8:	00431021 	addu	v0,v0,v1
  4004fc:	000218c0 	sll	v1,v0,0x3
  400500:	24c21f60 	addiu	v0,a2,8032
  400504:	00621021 	addu	v0,v1,v0
  400508:	8c430004 	lw	v1,4(v0)
  40050c:	8c420000 	lw	v0,0(v0)
  400510:	44850000 	mtc1	a1,$f0
  400514:	44840800 	mtc1	a0,$f1
  400518:	44831000 	mtc1	v1,$f2
  40051c:	44821800 	mtc1	v0,$f3
  400520:	00000000 	nop
  400524:	46220002 	mul.d	$f0,$f0,$f2
  400528:	44030000 	mfc1	v1,$f0
  40052c:	44020800 	mfc1	v0,$f1
  400530:	8fa50024 	lw	a1,36(sp)
  400534:	8fa40020 	lw	a0,32(sp)
  400538:	44850000 	mtc1	a1,$f0
  40053c:	44840800 	mtc1	a0,$f1
  400540:	44831000 	mtc1	v1,$f2
  400544:	44821800 	mtc1	v0,$f3
  400548:	00000000 	nop
  40054c:	46220001 	sub.d	$f0,$f0,$f2
  400550:	44030000 	mfc1	v1,$f0
  400554:	44020800 	mfc1	v0,$f1
  400558:	afa30024 	sw	v1,36(sp)
  40055c:	afa20020 	sw	v0,32(sp)
  400560:	8fa20018 	lw	v0,24(sp)
  400564:	00000000 	nop
  400568:	24420001 	addiu	v0,v0,1
  40056c:	afa20018 	sw	v0,24(sp)
  400570:	8fa30018 	lw	v1,24(sp)
  400574:	8fa20010 	lw	v0,16(sp)
  400578:	00000000 	nop
  40057c:	0062102a 	slt	v0,v1,v0
  400580:	1440ffc3 	bnez	v0,400490 <ludcmp+0x164>
  400584:	00000000 	nop
  400588:	3c040040 	lui	a0,0x40
  40058c:	8fa20010 	lw	v0,16(sp)
  400590:	00000000 	nop
  400594:	00401821 	move	v1,v0
  400598:	000310c0 	sll	v0,v1,0x3
  40059c:	00401821 	move	v1,v0
  4005a0:	00031080 	sll	v0,v1,0x2
  4005a4:	00431023 	subu	v0,v0,v1
  4005a8:	00021900 	sll	v1,v0,0x4
  4005ac:	00431021 	addu	v0,v0,v1
  4005b0:	24831f60 	addiu	v1,a0,8032
  4005b4:	00431021 	addu	v0,v0,v1
  4005b8:	8c430004 	lw	v1,4(v0)
  4005bc:	8c420000 	lw	v0,0(v0)
  4005c0:	8fa50024 	lw	a1,36(sp)
  4005c4:	8fa40020 	lw	a0,32(sp)
  4005c8:	44850000 	mtc1	a1,$f0
  4005cc:	44840800 	mtc1	a0,$f1
  4005d0:	44831000 	mtc1	v1,$f2
  4005d4:	44821800 	mtc1	v0,$f3
  4005d8:	00000000 	nop
  4005dc:	46220003 	div.d	$f0,$f0,$f2
  4005e0:	44050000 	mfc1	a1,$f0
  4005e4:	44040800 	mfc1	a0,$f1
  4005e8:	3c060040 	lui	a2,0x40
  4005ec:	8fa20014 	lw	v0,20(sp)
  4005f0:	00000000 	nop
  4005f4:	00021040 	sll	v0,v0,0x1
  4005f8:	00021880 	sll	v1,v0,0x2
  4005fc:	00431021 	addu	v0,v0,v1
  400600:	00021880 	sll	v1,v0,0x2
  400604:	00431021 	addu	v0,v0,v1
  400608:	8fa30010 	lw	v1,16(sp)
  40060c:	00000000 	nop
  400610:	00431021 	addu	v0,v0,v1
  400614:	000218c0 	sll	v1,v0,0x3
  400618:	24c21f60 	addiu	v0,a2,8032
  40061c:	00621021 	addu	v0,v1,v0
  400620:	ac450004 	sw	a1,4(v0)
  400624:	ac440000 	sw	a0,0(v0)
  400628:	8fa20014 	lw	v0,20(sp)
  40062c:	00000000 	nop
  400630:	24420001 	addiu	v0,v0,1
  400634:	afa20014 	sw	v0,20(sp)
  400638:	8fa30014 	lw	v1,20(sp)
  40063c:	8fa20350 	lw	v0,848(sp)
  400640:	00000000 	nop
  400644:	0043102a 	slt	v0,v0,v1
  400648:	1040ff79 	beqz	v0,400430 <ludcmp+0x104>
  40064c:	00000000 	nop
  400650:	8fa20010 	lw	v0,16(sp)
  400654:	00000000 	nop
  400658:	24420001 	addiu	v0,v0,1
  40065c:	08100204 	j	400810 <ludcmp+0x4e4>
  400660:	afa20014 	sw	v0,20(sp)
  400664:	8fa20010 	lw	v0,16(sp)
  400668:	00000000 	nop
  40066c:	24420001 	addiu	v0,v0,1
  400670:	3c040040 	lui	a0,0x40
  400674:	00021040 	sll	v0,v0,0x1
  400678:	00021880 	sll	v1,v0,0x2
  40067c:	00431021 	addu	v0,v0,v1
  400680:	00021880 	sll	v1,v0,0x2
  400684:	00431021 	addu	v0,v0,v1
  400688:	8fa30014 	lw	v1,20(sp)
  40068c:	00000000 	nop
  400690:	00431021 	addu	v0,v0,v1
  400694:	000218c0 	sll	v1,v0,0x3
  400698:	24821f60 	addiu	v0,a0,8032
  40069c:	00621021 	addu	v0,v1,v0
  4006a0:	8c430004 	lw	v1,4(v0)
  4006a4:	8c420000 	lw	v0,0(v0)
  4006a8:	afa30024 	sw	v1,36(sp)
  4006ac:	afa20020 	sw	v0,32(sp)
  4006b0:	081001e7 	j	40079c <ludcmp+0x470>
  4006b4:	afa00018 	sw	zero,24(sp)
  4006b8:	8fa20010 	lw	v0,16(sp)
  4006bc:	00000000 	nop
  4006c0:	24420001 	addiu	v0,v0,1
  4006c4:	3c040040 	lui	a0,0x40
  4006c8:	00021040 	sll	v0,v0,0x1
  4006cc:	00021880 	sll	v1,v0,0x2
  4006d0:	00431021 	addu	v0,v0,v1
  4006d4:	00021880 	sll	v1,v0,0x2
  4006d8:	00431021 	addu	v0,v0,v1
  4006dc:	8fa30018 	lw	v1,24(sp)
  4006e0:	00000000 	nop
  4006e4:	00431021 	addu	v0,v0,v1
  4006e8:	000218c0 	sll	v1,v0,0x3
  4006ec:	24821f60 	addiu	v0,a0,8032
  4006f0:	00621021 	addu	v0,v1,v0
  4006f4:	8c450004 	lw	a1,4(v0)
  4006f8:	8c440000 	lw	a0,0(v0)
  4006fc:	3c060040 	lui	a2,0x40
  400700:	8fa20018 	lw	v0,24(sp)
  400704:	00000000 	nop
  400708:	00021040 	sll	v0,v0,0x1
  40070c:	00021880 	sll	v1,v0,0x2
  400710:	00431021 	addu	v0,v0,v1
  400714:	00021880 	sll	v1,v0,0x2
  400718:	00431021 	addu	v0,v0,v1
  40071c:	8fa30014 	lw	v1,20(sp)
  400720:	00000000 	nop
  400724:	00431021 	addu	v0,v0,v1
  400728:	000218c0 	sll	v1,v0,0x3
  40072c:	24c21f60 	addiu	v0,a2,8032
  400730:	00621021 	addu	v0,v1,v0
  400734:	8c430004 	lw	v1,4(v0)
  400738:	8c420000 	lw	v0,0(v0)
  40073c:	44850000 	mtc1	a1,$f0
  400740:	44840800 	mtc1	a0,$f1
  400744:	44831000 	mtc1	v1,$f2
  400748:	44821800 	mtc1	v0,$f3
  40074c:	00000000 	nop
  400750:	46220002 	mul.d	$f0,$f0,$f2
  400754:	44030000 	mfc1	v1,$f0
  400758:	44020800 	mfc1	v0,$f1
  40075c:	8fa50024 	lw	a1,36(sp)
  400760:	8fa40020 	lw	a0,32(sp)
  400764:	44850000 	mtc1	a1,$f0
  400768:	44840800 	mtc1	a0,$f1
  40076c:	44831000 	mtc1	v1,$f2
  400770:	44821800 	mtc1	v0,$f3
  400774:	00000000 	nop
  400778:	46220001 	sub.d	$f0,$f0,$f2
  40077c:	44030000 	mfc1	v1,$f0
  400780:	44020800 	mfc1	v0,$f1
  400784:	afa30024 	sw	v1,36(sp)
  400788:	afa20020 	sw	v0,32(sp)
  40078c:	8fa20018 	lw	v0,24(sp)
  400790:	00000000 	nop
  400794:	24420001 	addiu	v0,v0,1
  400798:	afa20018 	sw	v0,24(sp)
  40079c:	8fa30018 	lw	v1,24(sp)
  4007a0:	8fa20010 	lw	v0,16(sp)
  4007a4:	00000000 	nop
  4007a8:	0043102a 	slt	v0,v0,v1
  4007ac:	1040ffc2 	beqz	v0,4006b8 <ludcmp+0x38c>
  4007b0:	00000000 	nop
  4007b4:	8fa20010 	lw	v0,16(sp)
  4007b8:	00000000 	nop
  4007bc:	24420001 	addiu	v0,v0,1
  4007c0:	3c040040 	lui	a0,0x40
  4007c4:	00021040 	sll	v0,v0,0x1
  4007c8:	00021880 	sll	v1,v0,0x2
  4007cc:	00431021 	addu	v0,v0,v1
  4007d0:	00021880 	sll	v1,v0,0x2
  4007d4:	00431021 	addu	v0,v0,v1
  4007d8:	8fa30014 	lw	v1,20(sp)
  4007dc:	00000000 	nop
  4007e0:	00431021 	addu	v0,v0,v1
  4007e4:	000218c0 	sll	v1,v0,0x3
  4007e8:	24821f60 	addiu	v0,a0,8032
  4007ec:	00622021 	addu	a0,v1,v0
  4007f0:	8fa30024 	lw	v1,36(sp)
  4007f4:	8fa20020 	lw	v0,32(sp)
  4007f8:	ac830004 	sw	v1,4(a0)
  4007fc:	ac820000 	sw	v0,0(a0)
  400800:	8fa20014 	lw	v0,20(sp)
  400804:	00000000 	nop
  400808:	24420001 	addiu	v0,v0,1
  40080c:	afa20014 	sw	v0,20(sp)
  400810:	8fa30014 	lw	v1,20(sp)
  400814:	8fa20350 	lw	v0,848(sp)
  400818:	00000000 	nop
  40081c:	0043102a 	slt	v0,v0,v1
  400820:	1040ff90 	beqz	v0,400664 <ludcmp+0x338>
  400824:	00000000 	nop
  400828:	8fa20010 	lw	v0,16(sp)
  40082c:	00000000 	nop
  400830:	24420001 	addiu	v0,v0,1
  400834:	afa20010 	sw	v0,16(sp)
  400838:	8fa30010 	lw	v1,16(sp)
  40083c:	8fa20350 	lw	v0,848(sp)
  400840:	00000000 	nop
  400844:	0062102a 	slt	v0,v1,v0
  400848:	1440fed3 	bnez	v0,400398 <ludcmp+0x6c>
  40084c:	00000000 	nop
  400850:	3c020040 	lui	v0,0x40
  400854:	8c431c44 	lw	v1,7236(v0)
  400858:	8c421c40 	lw	v0,7232(v0)
  40085c:	afa3002c 	sw	v1,44(sp)
  400860:	afa20028 	sw	v0,40(sp)
  400864:	24020001 	li	v0,1
  400868:	0810026a 	j	4009a8 <ludcmp+0x67c>
  40086c:	afa20010 	sw	v0,16(sp)
  400870:	3c020040 	lui	v0,0x40
  400874:	8fa30010 	lw	v1,16(sp)
  400878:	00000000 	nop
  40087c:	000318c0 	sll	v1,v1,0x3
  400880:	24421c40 	addiu	v0,v0,7232
  400884:	00621021 	addu	v0,v1,v0
  400888:	8c430004 	lw	v1,4(v0)
  40088c:	8c420000 	lw	v0,0(v0)
  400890:	afa30024 	sw	v1,36(sp)
  400894:	afa20020 	sw	v0,32(sp)
  400898:	08100257 	j	40095c <ludcmp+0x630>
  40089c:	afa00014 	sw	zero,20(sp)
  4008a0:	3c040040 	lui	a0,0x40
  4008a4:	8fa20010 	lw	v0,16(sp)
  4008a8:	00000000 	nop
  4008ac:	00021040 	sll	v0,v0,0x1
  4008b0:	00021880 	sll	v1,v0,0x2
  4008b4:	00431021 	addu	v0,v0,v1
  4008b8:	00021880 	sll	v1,v0,0x2
  4008bc:	00431021 	addu	v0,v0,v1
  4008c0:	8fa30014 	lw	v1,20(sp)
  4008c4:	00000000 	nop
  4008c8:	00431021 	addu	v0,v0,v1
  4008cc:	000218c0 	sll	v1,v0,0x3
  4008d0:	24821f60 	addiu	v0,a0,8032
  4008d4:	00621021 	addu	v0,v1,v0
  4008d8:	8c450004 	lw	a1,4(v0)
  4008dc:	8c440000 	lw	a0,0(v0)
  4008e0:	8fa20014 	lw	v0,20(sp)
  4008e4:	00000000 	nop
  4008e8:	000210c0 	sll	v0,v0,0x3
  4008ec:	27a30010 	addiu	v1,sp,16
  4008f0:	00621021 	addu	v0,v1,v0
  4008f4:	8c43001c 	lw	v1,28(v0)
  4008f8:	8c420018 	lw	v0,24(v0)
  4008fc:	44850000 	mtc1	a1,$f0
  400900:	44840800 	mtc1	a0,$f1
  400904:	44831000 	mtc1	v1,$f2
  400908:	44821800 	mtc1	v0,$f3
  40090c:	00000000 	nop
  400910:	46220002 	mul.d	$f0,$f0,$f2
  400914:	44030000 	mfc1	v1,$f0
  400918:	44020800 	mfc1	v0,$f1
  40091c:	8fa50024 	lw	a1,36(sp)
  400920:	8fa40020 	lw	a0,32(sp)
  400924:	44850000 	mtc1	a1,$f0
  400928:	44840800 	mtc1	a0,$f1
  40092c:	44831000 	mtc1	v1,$f2
  400930:	44821800 	mtc1	v0,$f3
  400934:	00000000 	nop
  400938:	46220001 	sub.d	$f0,$f0,$f2
  40093c:	44030000 	mfc1	v1,$f0
  400940:	44020800 	mfc1	v0,$f1
  400944:	afa30024 	sw	v1,36(sp)
  400948:	afa20020 	sw	v0,32(sp)
  40094c:	8fa20014 	lw	v0,20(sp)
  400950:	00000000 	nop
  400954:	24420001 	addiu	v0,v0,1
  400958:	afa20014 	sw	v0,20(sp)
  40095c:	8fa30014 	lw	v1,20(sp)
  400960:	8fa20010 	lw	v0,16(sp)
  400964:	00000000 	nop
  400968:	0062102a 	slt	v0,v1,v0
  40096c:	1440ffcc 	bnez	v0,4008a0 <ludcmp+0x574>
  400970:	00000000 	nop
  400974:	8fa20010 	lw	v0,16(sp)
  400978:	00000000 	nop
  40097c:	000210c0 	sll	v0,v0,0x3
  400980:	27a30010 	addiu	v1,sp,16
  400984:	00621021 	addu	v0,v1,v0
  400988:	8fa50024 	lw	a1,36(sp)
  40098c:	8fa40020 	lw	a0,32(sp)
  400990:	ac45001c 	sw	a1,28(v0)
  400994:	ac440018 	sw	a0,24(v0)
  400998:	8fa20010 	lw	v0,16(sp)
  40099c:	00000000 	nop
  4009a0:	24420001 	addiu	v0,v0,1
  4009a4:	afa20010 	sw	v0,16(sp)
  4009a8:	8fa30010 	lw	v1,16(sp)
  4009ac:	8fa20350 	lw	v0,848(sp)
  4009b0:	00000000 	nop
  4009b4:	0043102a 	slt	v0,v0,v1
  4009b8:	1040ffad 	beqz	v0,400870 <ludcmp+0x544>
  4009bc:	00000000 	nop
  4009c0:	8fa20350 	lw	v0,848(sp)
  4009c4:	00000000 	nop
  4009c8:	000210c0 	sll	v0,v0,0x3
  4009cc:	27a30010 	addiu	v1,sp,16
  4009d0:	00621021 	addu	v0,v1,v0
  4009d4:	8c45001c 	lw	a1,28(v0)
  4009d8:	8c440018 	lw	a0,24(v0)
  4009dc:	3c060040 	lui	a2,0x40
  4009e0:	8fa20350 	lw	v0,848(sp)
  4009e4:	00000000 	nop
  4009e8:	00401821 	move	v1,v0
  4009ec:	000310c0 	sll	v0,v1,0x3
  4009f0:	00401821 	move	v1,v0
  4009f4:	00031080 	sll	v0,v1,0x2
  4009f8:	00431023 	subu	v0,v0,v1
  4009fc:	00021900 	sll	v1,v0,0x4
  400a00:	00431021 	addu	v0,v0,v1
  400a04:	24c31f60 	addiu	v1,a2,8032
  400a08:	00431021 	addu	v0,v0,v1
  400a0c:	8c430004 	lw	v1,4(v0)
  400a10:	8c420000 	lw	v0,0(v0)
  400a14:	44850000 	mtc1	a1,$f0
  400a18:	44840800 	mtc1	a0,$f1
  400a1c:	44831000 	mtc1	v1,$f2
  400a20:	44821800 	mtc1	v0,$f3
  400a24:	00000000 	nop
  400a28:	46220003 	div.d	$f0,$f0,$f2
  400a2c:	44030000 	mfc1	v1,$f0
  400a30:	44020800 	mfc1	v0,$f1
  400a34:	3c040040 	lui	a0,0x40
  400a38:	8fa50350 	lw	a1,848(sp)
  400a3c:	00000000 	nop
  400a40:	000528c0 	sll	a1,a1,0x3
  400a44:	24841dd0 	addiu	a0,a0,7632
  400a48:	00a42021 	addu	a0,a1,a0
  400a4c:	ac830004 	sw	v1,4(a0)
  400a50:	ac820000 	sw	v0,0(a0)
  400a54:	8fa20350 	lw	v0,848(sp)
  400a58:	00000000 	nop
  400a5c:	2442ffff 	addiu	v0,v0,-1
  400a60:	08100302 	j	400c08 <ludcmp+0x8dc>
  400a64:	afa20010 	sw	v0,16(sp)
  400a68:	8fa20010 	lw	v0,16(sp)
  400a6c:	00000000 	nop
  400a70:	000210c0 	sll	v0,v0,0x3
  400a74:	27a30010 	addiu	v1,sp,16
  400a78:	00621021 	addu	v0,v1,v0
  400a7c:	8c43001c 	lw	v1,28(v0)
  400a80:	8c420018 	lw	v0,24(v0)
  400a84:	afa30024 	sw	v1,36(sp)
  400a88:	afa20020 	sw	v0,32(sp)
  400a8c:	8fa20010 	lw	v0,16(sp)
  400a90:	00000000 	nop
  400a94:	24420001 	addiu	v0,v0,1
  400a98:	081002d8 	j	400b60 <ludcmp+0x834>
  400a9c:	afa20014 	sw	v0,20(sp)
  400aa0:	3c040040 	lui	a0,0x40
  400aa4:	8fa20010 	lw	v0,16(sp)
  400aa8:	00000000 	nop
  400aac:	00021040 	sll	v0,v0,0x1
  400ab0:	00021880 	sll	v1,v0,0x2
  400ab4:	00431021 	addu	v0,v0,v1
  400ab8:	00021880 	sll	v1,v0,0x2
  400abc:	00431021 	addu	v0,v0,v1
  400ac0:	8fa30014 	lw	v1,20(sp)
  400ac4:	00000000 	nop
  400ac8:	00431021 	addu	v0,v0,v1
  400acc:	000218c0 	sll	v1,v0,0x3
  400ad0:	24821f60 	addiu	v0,a0,8032
  400ad4:	00621021 	addu	v0,v1,v0
  400ad8:	8c450004 	lw	a1,4(v0)
  400adc:	8c440000 	lw	a0,0(v0)
  400ae0:	3c020040 	lui	v0,0x40
  400ae4:	8fa30014 	lw	v1,20(sp)
  400ae8:	00000000 	nop
  400aec:	000318c0 	sll	v1,v1,0x3
  400af0:	24421dd0 	addiu	v0,v0,7632
  400af4:	00621021 	addu	v0,v1,v0
  400af8:	8c430004 	lw	v1,4(v0)
  400afc:	8c420000 	lw	v0,0(v0)
  400b00:	44850000 	mtc1	a1,$f0
  400b04:	44840800 	mtc1	a0,$f1
  400b08:	44831000 	mtc1	v1,$f2
  400b0c:	44821800 	mtc1	v0,$f3
  400b10:	00000000 	nop
  400b14:	46220002 	mul.d	$f0,$f0,$f2
  400b18:	44030000 	mfc1	v1,$f0
  400b1c:	44020800 	mfc1	v0,$f1
  400b20:	8fa50024 	lw	a1,36(sp)
  400b24:	8fa40020 	lw	a0,32(sp)
  400b28:	44850000 	mtc1	a1,$f0
  400b2c:	44840800 	mtc1	a0,$f1
  400b30:	44831000 	mtc1	v1,$f2
  400b34:	44821800 	mtc1	v0,$f3
  400b38:	00000000 	nop
  400b3c:	46220001 	sub.d	$f0,$f0,$f2
  400b40:	44030000 	mfc1	v1,$f0
  400b44:	44020800 	mfc1	v0,$f1
  400b48:	afa30024 	sw	v1,36(sp)
  400b4c:	afa20020 	sw	v0,32(sp)
  400b50:	8fa20014 	lw	v0,20(sp)
  400b54:	00000000 	nop
  400b58:	24420001 	addiu	v0,v0,1
  400b5c:	afa20014 	sw	v0,20(sp)
  400b60:	8fa30014 	lw	v1,20(sp)
  400b64:	8fa20350 	lw	v0,848(sp)
  400b68:	00000000 	nop
  400b6c:	0043102a 	slt	v0,v0,v1
  400b70:	1040ffcb 	beqz	v0,400aa0 <ludcmp+0x774>
  400b74:	00000000 	nop
  400b78:	3c040040 	lui	a0,0x40
  400b7c:	8fa20010 	lw	v0,16(sp)
  400b80:	00000000 	nop
  400b84:	00401821 	move	v1,v0
  400b88:	000310c0 	sll	v0,v1,0x3
  400b8c:	00401821 	move	v1,v0
  400b90:	00031080 	sll	v0,v1,0x2
  400b94:	00431023 	subu	v0,v0,v1
  400b98:	00021900 	sll	v1,v0,0x4
  400b9c:	00431021 	addu	v0,v0,v1
  400ba0:	24831f60 	addiu	v1,a0,8032
  400ba4:	00431021 	addu	v0,v0,v1
  400ba8:	8c430004 	lw	v1,4(v0)
  400bac:	8c420000 	lw	v0,0(v0)
  400bb0:	8fa50024 	lw	a1,36(sp)
  400bb4:	8fa40020 	lw	a0,32(sp)
  400bb8:	44850000 	mtc1	a1,$f0
  400bbc:	44840800 	mtc1	a0,$f1
  400bc0:	44831000 	mtc1	v1,$f2
  400bc4:	44821800 	mtc1	v0,$f3
  400bc8:	00000000 	nop
  400bcc:	46220003 	div.d	$f0,$f0,$f2
  400bd0:	44030000 	mfc1	v1,$f0
  400bd4:	44020800 	mfc1	v0,$f1
  400bd8:	3c040040 	lui	a0,0x40
  400bdc:	8fa50010 	lw	a1,16(sp)
  400be0:	00000000 	nop
  400be4:	000528c0 	sll	a1,a1,0x3
  400be8:	24841dd0 	addiu	a0,a0,7632
  400bec:	00a42021 	addu	a0,a1,a0
  400bf0:	ac830004 	sw	v1,4(a0)
  400bf4:	ac820000 	sw	v0,0(a0)
  400bf8:	8fa20010 	lw	v0,16(sp)
  400bfc:	00000000 	nop
  400c00:	2442ffff 	addiu	v0,v0,-1
  400c04:	afa20010 	sw	v0,16(sp)
  400c08:	8fa20010 	lw	v0,16(sp)
  400c0c:	00000000 	nop
  400c10:	0441ff95 	bgez	v0,400a68 <ludcmp+0x73c>
  400c14:	00000000 	nop
  400c18:	00001021 	move	v0,zero
  400c1c:	8fbf034c 	lw	ra,844(sp)
  400c20:	27bd0350 	addiu	sp,sp,848
  400c24:	03e00008 	jr	ra
  400c28:	00000000 	nop
