
/tmp/minver:     file format elf32-bigmips

SYMBOL TABLE:
00400000 l    d  .reginfo	00000000 .reginfo
00400018 l    d  .text	00000000 .text
004024d8 l    d  .data	00000000 .data
00402520 l    d  .sdata	00000000 .sdata
00402570 l    d  .sbss	00000000 .sbss
00402580 l    d  .bss	00000000 .bss
00000000 l    d  .pdr	00000000 .pdr
00000000 l    d  .wcet_annot	00000000 .wcet_annot
00000000 l    d  .comment	00000000 .comment
00000000 l    d  .debug_aranges	00000000 .debug_aranges
00000000 l    d  .debug_info	00000000 .debug_info
00000000 l    d  .debug_abbrev	00000000 .debug_abbrev
00000000 l    d  .debug_line	00000000 .debug_line
00000000 l    d  .debug_frame	00000000 .debug_frame
00000000 l    d  .debug_str	00000000 .debug_str
00000000 l    d  .debug_loc	00000000 .debug_loc
00000000 l    d  .gnu.attributes	00000000 .gnu.attributes
00000010 l    d  .mdebug.abi32	00000000 .mdebug.abi32
00000000 l    df *ABS*	00000000 minver.c
004024d8 l     O .data	00000048 a
004024d8 g       .data	00000000 _fdata
00402580 g     O .bss	00000048 b
00402570 g     O .sbss	00000008 det
0040a510 g       *ABS*	00000000 _gp
004025c8 g     O .bss	00000048 a_i
004004a4 g     F .text	00001034 minver
004002d0 g     F .text	000001d4 mmul
00402610 g     O .bss	00000048 aa
00402658 g     O .bss	00000048 mt
00400018 g       .text	00000000 _ftext
004026a0 g     O .bss	00000048 c
00402570 g       *ABS*	00000000 __bss_start
00400018 g     F .text	000002b8 main
004026e8 g     O .bss	00000048 m1
00402570 g       *ABS*	00000000 _edata
00402778 g       *ABS*	00000000 _end
00402578 g     O .sbss	00000008 eps
00402730 g     O .bss	00000048 e
00402570 g       *ABS*	00000000 _fbss



Disassembly of section .text:

00400018 <main>:
  400018:	27bdffe0 	addiu	sp,sp,-32
  40001c:	afbf001c 	sw	ra,28(sp)
  400020:	8f838014 	lw	v1,-32748(gp)
  400024:	8f828010 	lw	v0,-32752(gp)
  400028:	af83806c 	sw	v1,-32660(gp)
  40002c:	af828068 	sw	v0,-32664(gp)
  400030:	3c040040 	lui	a0,0x40
  400034:	8f83801c 	lw	v1,-32740(gp)
  400038:	8f828018 	lw	v0,-32744(gp)
  40003c:	ac8324dc 	sw	v1,9436(a0)
  400040:	ac8224d8 	sw	v0,9432(a0)
  400044:	3c020040 	lui	v0,0x40
  400048:	244424d8 	addiu	a0,v0,9432
  40004c:	8f838024 	lw	v1,-32732(gp)
  400050:	8f828020 	lw	v0,-32736(gp)
  400054:	ac83000c 	sw	v1,12(a0)
  400058:	ac820008 	sw	v0,8(a0)
  40005c:	3c020040 	lui	v0,0x40
  400060:	244424d8 	addiu	a0,v0,9432
  400064:	8f83802c 	lw	v1,-32724(gp)
  400068:	8f828028 	lw	v0,-32728(gp)
  40006c:	ac830014 	sw	v1,20(a0)
  400070:	ac820010 	sw	v0,16(a0)
  400074:	3c020040 	lui	v0,0x40
  400078:	244424d8 	addiu	a0,v0,9432
  40007c:	8f838034 	lw	v1,-32716(gp)
  400080:	8f828030 	lw	v0,-32720(gp)
  400084:	ac83001c 	sw	v1,28(a0)
  400088:	ac820018 	sw	v0,24(a0)
  40008c:	3c020040 	lui	v0,0x40
  400090:	244224d8 	addiu	v0,v0,9432
  400094:	ac400024 	sw	zero,36(v0)
  400098:	ac400020 	sw	zero,32(v0)
  40009c:	3c020040 	lui	v0,0x40
  4000a0:	244424d8 	addiu	a0,v0,9432
  4000a4:	8f83803c 	lw	v1,-32708(gp)
  4000a8:	8f828038 	lw	v0,-32712(gp)
  4000ac:	ac83002c 	sw	v1,44(a0)
  4000b0:	ac820028 	sw	v0,40(a0)
  4000b4:	3c020040 	lui	v0,0x40
  4000b8:	244424d8 	addiu	a0,v0,9432
  4000bc:	8f838044 	lw	v1,-32700(gp)
  4000c0:	8f828040 	lw	v0,-32704(gp)
  4000c4:	ac830034 	sw	v1,52(a0)
  4000c8:	ac820030 	sw	v0,48(a0)
  4000cc:	3c020040 	lui	v0,0x40
  4000d0:	244424d8 	addiu	a0,v0,9432
  4000d4:	8f83804c 	lw	v1,-32692(gp)
  4000d8:	8f828048 	lw	v0,-32696(gp)
  4000dc:	ac83003c 	sw	v1,60(a0)
  4000e0:	ac820038 	sw	v0,56(a0)
  4000e4:	3c020040 	lui	v0,0x40
  4000e8:	244424d8 	addiu	a0,v0,9432
  4000ec:	8f838054 	lw	v1,-32684(gp)
  4000f0:	8f828050 	lw	v0,-32688(gp)
  4000f4:	ac830044 	sw	v1,68(a0)
  4000f8:	ac820040 	sw	v0,64(a0)
  4000fc:	0810006c 	j	4001b0 <main+0x198>
  400100:	afa00010 	sw	zero,16(sp)
  400104:	08100063 	j	40018c <main+0x174>
  400108:	afa00014 	sw	zero,20(sp)
  40010c:	3c040040 	lui	a0,0x40
  400110:	8fa30010 	lw	v1,16(sp)
  400114:	00000000 	nop
  400118:	00601021 	move	v0,v1
  40011c:	00021040 	sll	v0,v0,0x1
  400120:	00431021 	addu	v0,v0,v1
  400124:	8fa30014 	lw	v1,20(sp)
  400128:	00000000 	nop
  40012c:	00431021 	addu	v0,v0,v1
  400130:	000218c0 	sll	v1,v0,0x3
  400134:	248224d8 	addiu	v0,a0,9432
  400138:	00621021 	addu	v0,v1,v0
  40013c:	8c450004 	lw	a1,4(v0)
  400140:	8c440000 	lw	a0,0(v0)
  400144:	3c060040 	lui	a2,0x40
  400148:	8fa30010 	lw	v1,16(sp)
  40014c:	00000000 	nop
  400150:	00601021 	move	v0,v1
  400154:	00021040 	sll	v0,v0,0x1
  400158:	00431021 	addu	v0,v0,v1
  40015c:	8fa30014 	lw	v1,20(sp)
  400160:	00000000 	nop
  400164:	00431021 	addu	v0,v0,v1
  400168:	000218c0 	sll	v1,v0,0x3
  40016c:	24c22610 	addiu	v0,a2,9744
  400170:	00621021 	addu	v0,v1,v0
  400174:	ac450004 	sw	a1,4(v0)
  400178:	ac440000 	sw	a0,0(v0)
  40017c:	8fa20014 	lw	v0,20(sp)
  400180:	00000000 	nop
  400184:	24420001 	addiu	v0,v0,1
  400188:	afa20014 	sw	v0,20(sp)
  40018c:	8fa20014 	lw	v0,20(sp)
  400190:	00000000 	nop
  400194:	28420003 	slti	v0,v0,3
  400198:	1440ffdc 	bnez	v0,40010c <main+0xf4>
  40019c:	00000000 	nop
  4001a0:	8fa20010 	lw	v0,16(sp)
  4001a4:	00000000 	nop
  4001a8:	24420001 	addiu	v0,v0,1
  4001ac:	afa20010 	sw	v0,16(sp)
  4001b0:	8fa20010 	lw	v0,16(sp)
  4001b4:	00000000 	nop
  4001b8:	28420003 	slti	v0,v0,3
  4001bc:	1440ffd1 	bnez	v0,400104 <main+0xec>
  4001c0:	00000000 	nop
  4001c4:	8f83806c 	lw	v1,-32660(gp)
  4001c8:	8f828068 	lw	v0,-32664(gp)
  4001cc:	24040003 	li	a0,3
  4001d0:	24050003 	li	a1,3
  4001d4:	00603821 	move	a3,v1
  4001d8:	0c100129 	jal	4004a4 <minver>
  4001dc:	00403021 	move	a2,v0
  4001e0:	081000a5 	j	400294 <main+0x27c>
  4001e4:	afa00010 	sw	zero,16(sp)
  4001e8:	0810009c 	j	400270 <main+0x258>
  4001ec:	afa00014 	sw	zero,20(sp)
  4001f0:	3c040040 	lui	a0,0x40
  4001f4:	8fa30010 	lw	v1,16(sp)
  4001f8:	00000000 	nop
  4001fc:	00601021 	move	v0,v1
  400200:	00021040 	sll	v0,v0,0x1
  400204:	00431021 	addu	v0,v0,v1
  400208:	8fa30014 	lw	v1,20(sp)
  40020c:	00000000 	nop
  400210:	00431021 	addu	v0,v0,v1
  400214:	000218c0 	sll	v1,v0,0x3
  400218:	248224d8 	addiu	v0,a0,9432
  40021c:	00621021 	addu	v0,v1,v0
  400220:	8c450004 	lw	a1,4(v0)
  400224:	8c440000 	lw	a0,0(v0)
  400228:	3c060040 	lui	a2,0x40
  40022c:	8fa30010 	lw	v1,16(sp)
  400230:	00000000 	nop
  400234:	00601021 	move	v0,v1
  400238:	00021040 	sll	v0,v0,0x1
  40023c:	00431021 	addu	v0,v0,v1
  400240:	8fa30014 	lw	v1,20(sp)
  400244:	00000000 	nop
  400248:	00431021 	addu	v0,v0,v1
  40024c:	000218c0 	sll	v1,v0,0x3
  400250:	24c225c8 	addiu	v0,a2,9672
  400254:	00621021 	addu	v0,v1,v0
  400258:	ac450004 	sw	a1,4(v0)
  40025c:	ac440000 	sw	a0,0(v0)
  400260:	8fa20014 	lw	v0,20(sp)
  400264:	00000000 	nop
  400268:	24420001 	addiu	v0,v0,1
  40026c:	afa20014 	sw	v0,20(sp)
  400270:	8fa20014 	lw	v0,20(sp)
  400274:	00000000 	nop
  400278:	28420003 	slti	v0,v0,3
  40027c:	1440ffdc 	bnez	v0,4001f0 <main+0x1d8>
  400280:	00000000 	nop
  400284:	8fa20010 	lw	v0,16(sp)
  400288:	00000000 	nop
  40028c:	24420001 	addiu	v0,v0,1
  400290:	afa20010 	sw	v0,16(sp)
  400294:	8fa20010 	lw	v0,16(sp)
  400298:	00000000 	nop
  40029c:	28420003 	slti	v0,v0,3
  4002a0:	1440ffd1 	bnez	v0,4001e8 <main+0x1d0>
  4002a4:	00000000 	nop
  4002a8:	24040003 	li	a0,3
  4002ac:	24050003 	li	a1,3
  4002b0:	24060003 	li	a2,3
  4002b4:	0c1000b4 	jal	4002d0 <mmul>
  4002b8:	24070003 	li	a3,3
  4002bc:	00001021 	move	v0,zero
  4002c0:	8fbf001c 	lw	ra,28(sp)
  4002c4:	27bd0020 	addiu	sp,sp,32
  4002c8:	03e00008 	jr	ra
  4002cc:	00000000 	nop

004002d0 <mmul>:
  4002d0:	27bdffd8 	addiu	sp,sp,-40
  4002d4:	afa40028 	sw	a0,40(sp)
  4002d8:	afa5002c 	sw	a1,44(sp)
  4002dc:	afa60030 	sw	a2,48(sp)
  4002e0:	afa70034 	sw	a3,52(sp)
  4002e4:	afa00018 	sw	zero,24(sp)
  4002e8:	8fa20028 	lw	v0,40(sp)
  4002ec:	00000000 	nop
  4002f0:	afa2001c 	sw	v0,28(sp)
  4002f4:	8fa20034 	lw	v0,52(sp)
  4002f8:	00000000 	nop
  4002fc:	afa20020 	sw	v0,32(sp)
  400300:	08100120 	j	400480 <mmul+0x1b0>
  400304:	afa00000 	sw	zero,0(sp)
  400308:	08100116 	j	400458 <mmul+0x188>
  40030c:	afa00004 	sw	zero,4(sp)
  400310:	afa00014 	sw	zero,20(sp)
  400314:	afa00010 	sw	zero,16(sp)
  400318:	081000fc 	j	4003f0 <mmul+0x120>
  40031c:	afa00008 	sw	zero,8(sp)
  400320:	3c040040 	lui	a0,0x40
  400324:	8fa30000 	lw	v1,0(sp)
  400328:	00000000 	nop
  40032c:	00601021 	move	v0,v1
  400330:	00021040 	sll	v0,v0,0x1
  400334:	00431021 	addu	v0,v0,v1
  400338:	8fa30008 	lw	v1,8(sp)
  40033c:	00000000 	nop
  400340:	00431021 	addu	v0,v0,v1
  400344:	000218c0 	sll	v1,v0,0x3
  400348:	248224d8 	addiu	v0,a0,9432
  40034c:	00621021 	addu	v0,v1,v0
  400350:	8c450004 	lw	a1,4(v0)
  400354:	8c440000 	lw	a0,0(v0)
  400358:	3c060040 	lui	a2,0x40
  40035c:	8fa30008 	lw	v1,8(sp)
  400360:	00000000 	nop
  400364:	00601021 	move	v0,v1
  400368:	00021040 	sll	v0,v0,0x1
  40036c:	00431021 	addu	v0,v0,v1
  400370:	8fa30004 	lw	v1,4(sp)
  400374:	00000000 	nop
  400378:	00431021 	addu	v0,v0,v1
  40037c:	000218c0 	sll	v1,v0,0x3
  400380:	24c22580 	addiu	v0,a2,9600
  400384:	00621021 	addu	v0,v1,v0
  400388:	8c430004 	lw	v1,4(v0)
  40038c:	8c420000 	lw	v0,0(v0)
  400390:	44850000 	mtc1	a1,$f0
  400394:	44840800 	mtc1	a0,$f1
  400398:	44831000 	mtc1	v1,$f2
  40039c:	44821800 	mtc1	v0,$f3
  4003a0:	00000000 	nop
  4003a4:	46220002 	mul.d	$f0,$f0,$f2
  4003a8:	44030000 	mfc1	v1,$f0
  4003ac:	44020800 	mfc1	v0,$f1
  4003b0:	8fa50014 	lw	a1,20(sp)
  4003b4:	8fa40010 	lw	a0,16(sp)
  4003b8:	44850000 	mtc1	a1,$f0
  4003bc:	44840800 	mtc1	a0,$f1
  4003c0:	44831000 	mtc1	v1,$f2
  4003c4:	44821800 	mtc1	v0,$f3
  4003c8:	00000000 	nop
  4003cc:	46220000 	add.d	$f0,$f0,$f2
  4003d0:	44030000 	mfc1	v1,$f0
  4003d4:	44020800 	mfc1	v0,$f1
  4003d8:	afa30014 	sw	v1,20(sp)
  4003dc:	afa20010 	sw	v0,16(sp)
  4003e0:	8fa20008 	lw	v0,8(sp)
  4003e4:	00000000 	nop
  4003e8:	24420001 	addiu	v0,v0,1
  4003ec:	afa20008 	sw	v0,8(sp)
  4003f0:	8fa30008 	lw	v1,8(sp)
  4003f4:	8fa20030 	lw	v0,48(sp)
  4003f8:	00000000 	nop
  4003fc:	0062102a 	slt	v0,v1,v0
  400400:	1440ffc7 	bnez	v0,400320 <mmul+0x50>
  400404:	00000000 	nop
  400408:	3c040040 	lui	a0,0x40
  40040c:	8fa30000 	lw	v1,0(sp)
  400410:	00000000 	nop
  400414:	00601021 	move	v0,v1
  400418:	00021040 	sll	v0,v0,0x1
  40041c:	00431021 	addu	v0,v0,v1
  400420:	8fa30004 	lw	v1,4(sp)
  400424:	00000000 	nop
  400428:	00431021 	addu	v0,v0,v1
  40042c:	000218c0 	sll	v1,v0,0x3
  400430:	248226a0 	addiu	v0,a0,9888
  400434:	00622021 	addu	a0,v1,v0
  400438:	8fa30014 	lw	v1,20(sp)
  40043c:	8fa20010 	lw	v0,16(sp)
  400440:	ac830004 	sw	v1,4(a0)
  400444:	ac820000 	sw	v0,0(a0)
  400448:	8fa20004 	lw	v0,4(sp)
  40044c:	00000000 	nop
  400450:	24420001 	addiu	v0,v0,1
  400454:	afa20004 	sw	v0,4(sp)
  400458:	8fa30004 	lw	v1,4(sp)
  40045c:	8fa20020 	lw	v0,32(sp)
  400460:	00000000 	nop
  400464:	0062102a 	slt	v0,v1,v0
  400468:	1440ffa9 	bnez	v0,400310 <mmul+0x40>
  40046c:	00000000 	nop
  400470:	8fa20000 	lw	v0,0(sp)
  400474:	00000000 	nop
  400478:	24420001 	addiu	v0,v0,1
  40047c:	afa20000 	sw	v0,0(sp)
  400480:	8fa30000 	lw	v1,0(sp)
  400484:	8fa2001c 	lw	v0,28(sp)
  400488:	00000000 	nop
  40048c:	0062102a 	slt	v0,v1,v0
  400490:	1440ff9d 	bnez	v0,400308 <mmul+0x38>
  400494:	00000000 	nop
  400498:	8fa20018 	lw	v0,24(sp)
  40049c:	03e00008 	jr	ra
  4004a0:	27bd0028 	addiu	sp,sp,40

004004a4 <minver>:
  4004a4:	27bdffa0 	addiu	sp,sp,-96
  4004a8:	afa40060 	sw	a0,96(sp)
  4004ac:	afa50064 	sw	a1,100(sp)
  4004b0:	afa7006c 	sw	a3,108(sp)
  4004b4:	afa60068 	sw	a2,104(sp)
  4004b8:	af808064 	sw	zero,-32668(gp)
  4004bc:	af808060 	sw	zero,-32672(gp)
  4004c0:	0810019c 	j	400670 <minver+0x1cc>
  4004c4:	afa00000 	sw	zero,0(sp)
  4004c8:	8fa20000 	lw	v0,0(sp)
  4004cc:	00000000 	nop
  4004d0:	24430001 	addiu	v1,v0,1
  4004d4:	24020003 	li	v0,3
  4004d8:	14400002 	bnez	v0,4004e4 <minver+0x40>
  4004dc:	0062001a 	div	zero,v1,v0
  4004e0:	0007000d 	break	0x7
  4004e4:	00001010 	mfhi	v0
  4004e8:	afa20008 	sw	v0,8(sp)
  4004ec:	8fa20000 	lw	v0,0(sp)
  4004f0:	00000000 	nop
  4004f4:	24430002 	addiu	v1,v0,2
  4004f8:	24020003 	li	v0,3
  4004fc:	14400002 	bnez	v0,400508 <minver+0x64>
  400500:	0062001a 	div	zero,v1,v0
  400504:	0007000d 	break	0x7
  400508:	00001010 	mfhi	v0
  40050c:	afa2000c 	sw	v0,12(sp)
  400510:	8fa20008 	lw	v0,8(sp)
  400514:	00000000 	nop
  400518:	afa20010 	sw	v0,16(sp)
  40051c:	8fa2000c 	lw	v0,12(sp)
  400520:	00000000 	nop
  400524:	afa20014 	sw	v0,20(sp)
  400528:	3c020040 	lui	v0,0x40
  40052c:	8fa30000 	lw	v1,0(sp)
  400530:	00000000 	nop
  400534:	000318c0 	sll	v1,v1,0x3
  400538:	244224d8 	addiu	v0,v0,9432
  40053c:	00621021 	addu	v0,v1,v0
  400540:	8c450004 	lw	a1,4(v0)
  400544:	8c440000 	lw	a0,0(v0)
  400548:	3c020040 	lui	v0,0x40
  40054c:	8fa30010 	lw	v1,16(sp)
  400550:	00000000 	nop
  400554:	24630003 	addiu	v1,v1,3
  400558:	000318c0 	sll	v1,v1,0x3
  40055c:	244224d8 	addiu	v0,v0,9432
  400560:	00621021 	addu	v0,v1,v0
  400564:	8c470004 	lw	a3,4(v0)
  400568:	8c460000 	lw	a2,0(v0)
  40056c:	3c020040 	lui	v0,0x40
  400570:	8fa30014 	lw	v1,20(sp)
  400574:	00000000 	nop
  400578:	24630006 	addiu	v1,v1,6
  40057c:	000318c0 	sll	v1,v1,0x3
  400580:	244224d8 	addiu	v0,v0,9432
  400584:	00621021 	addu	v0,v1,v0
  400588:	8c430004 	lw	v1,4(v0)
  40058c:	8c420000 	lw	v0,0(v0)
  400590:	44870000 	mtc1	a3,$f0
  400594:	44860800 	mtc1	a2,$f1
  400598:	44831000 	mtc1	v1,$f2
  40059c:	44821800 	mtc1	v0,$f3
  4005a0:	00000000 	nop
  4005a4:	46220002 	mul.d	$f0,$f0,$f2
  4005a8:	44070000 	mfc1	a3,$f0
  4005ac:	44060800 	mfc1	a2,$f1
  4005b0:	3c020040 	lui	v0,0x40
  4005b4:	8fa30014 	lw	v1,20(sp)
  4005b8:	00000000 	nop
  4005bc:	24630003 	addiu	v1,v1,3
  4005c0:	000318c0 	sll	v1,v1,0x3
  4005c4:	244224d8 	addiu	v0,v0,9432
  4005c8:	00621021 	addu	v0,v1,v0
  4005cc:	8c490004 	lw	t1,4(v0)
  4005d0:	8c480000 	lw	t0,0(v0)
  4005d4:	3c020040 	lui	v0,0x40
  4005d8:	8fa30010 	lw	v1,16(sp)
  4005dc:	00000000 	nop
  4005e0:	24630006 	addiu	v1,v1,6
  4005e4:	000318c0 	sll	v1,v1,0x3
  4005e8:	244224d8 	addiu	v0,v0,9432
  4005ec:	00621021 	addu	v0,v1,v0
  4005f0:	8c430004 	lw	v1,4(v0)
  4005f4:	8c420000 	lw	v0,0(v0)
  4005f8:	44890000 	mtc1	t1,$f0
  4005fc:	44880800 	mtc1	t0,$f1
  400600:	44831000 	mtc1	v1,$f2
  400604:	44821800 	mtc1	v0,$f3
  400608:	00000000 	nop
  40060c:	46220002 	mul.d	$f0,$f0,$f2
  400610:	44030000 	mfc1	v1,$f0
  400614:	44020800 	mfc1	v0,$f1
  400618:	44870000 	mtc1	a3,$f0
  40061c:	44860800 	mtc1	a2,$f1
  400620:	44831000 	mtc1	v1,$f2
  400624:	44821800 	mtc1	v0,$f3
  400628:	00000000 	nop
  40062c:	46220001 	sub.d	$f0,$f0,$f2
  400630:	44030000 	mfc1	v1,$f0
  400634:	44020800 	mfc1	v0,$f1
  400638:	44850000 	mtc1	a1,$f0
  40063c:	44840800 	mtc1	a0,$f1
  400640:	44831000 	mtc1	v1,$f2
  400644:	44821800 	mtc1	v0,$f3
  400648:	00000000 	nop
  40064c:	46220002 	mul.d	$f0,$f0,$f2
  400650:	44030000 	mfc1	v1,$f0
  400654:	44020800 	mfc1	v0,$f1
  400658:	af838064 	sw	v1,-32668(gp)
  40065c:	af828060 	sw	v0,-32672(gp)
  400660:	8fa20000 	lw	v0,0(sp)
  400664:	00000000 	nop
  400668:	24420001 	addiu	v0,v0,1
  40066c:	afa20000 	sw	v0,0(sp)
  400670:	8fa30000 	lw	v1,0(sp)
  400674:	8fa20060 	lw	v0,96(sp)
  400678:	00000000 	nop
  40067c:	0062102a 	slt	v0,v1,v0
  400680:	1440ff91 	bnez	v0,4004c8 <minver+0x24>
  400684:	00000000 	nop
  400688:	8f838064 	lw	v1,-32668(gp)
  40068c:	8f828060 	lw	v0,-32672(gp)
  400690:	8f85805c 	lw	a1,-32676(gp)
  400694:	8f848058 	lw	a0,-32680(gp)
  400698:	44850000 	mtc1	a1,$f0
  40069c:	44840800 	mtc1	a0,$f1
  4006a0:	44831000 	mtc1	v1,$f2
  4006a4:	44821800 	mtc1	v0,$f3
  4006a8:	00000000 	nop
  4006ac:	46220003 	div.d	$f0,$f0,$f2
  4006b0:	44030000 	mfc1	v1,$f0
  4006b4:	44020800 	mfc1	v0,$f1
  4006b8:	af838064 	sw	v1,-32668(gp)
  4006bc:	af828060 	sw	v0,-32672(gp)
  4006c0:	afa00018 	sw	zero,24(sp)
  4006c4:	afa0001c 	sw	zero,28(sp)
  4006c8:	24020001 	li	v0,1
  4006cc:	afa20020 	sw	v0,32(sp)
  4006d0:	afa00024 	sw	zero,36(sp)
  4006d4:	24020002 	li	v0,2
  4006d8:	afa20028 	sw	v0,40(sp)
  4006dc:	afa0002c 	sw	zero,44(sp)
  4006e0:	afa00030 	sw	zero,48(sp)
  4006e4:	24020001 	li	v0,1
  4006e8:	afa20034 	sw	v0,52(sp)
  4006ec:	24020001 	li	v0,1
  4006f0:	afa20038 	sw	v0,56(sp)
  4006f4:	24020001 	li	v0,1
  4006f8:	afa2003c 	sw	v0,60(sp)
  4006fc:	24020002 	li	v0,2
  400700:	afa20040 	sw	v0,64(sp)
  400704:	24020001 	li	v0,1
  400708:	afa20044 	sw	v0,68(sp)
  40070c:	afa00048 	sw	zero,72(sp)
  400710:	24020002 	li	v0,2
  400714:	afa2004c 	sw	v0,76(sp)
  400718:	24020001 	li	v0,1
  40071c:	afa20050 	sw	v0,80(sp)
  400720:	24020002 	li	v0,2
  400724:	afa20054 	sw	v0,84(sp)
  400728:	24020002 	li	v0,2
  40072c:	afa20058 	sw	v0,88(sp)
  400730:	24020002 	li	v0,2
  400734:	afa2005c 	sw	v0,92(sp)
  400738:	3c040040 	lui	a0,0x40
  40073c:	8fa3003c 	lw	v1,60(sp)
  400740:	00000000 	nop
  400744:	00601021 	move	v0,v1
  400748:	00021040 	sll	v0,v0,0x1
  40074c:	00431021 	addu	v0,v0,v1
  400750:	8fa30038 	lw	v1,56(sp)
  400754:	00000000 	nop
  400758:	00431021 	addu	v0,v0,v1
  40075c:	000218c0 	sll	v1,v0,0x3
  400760:	248224d8 	addiu	v0,a0,9432
  400764:	00621021 	addu	v0,v1,v0
  400768:	8c450004 	lw	a1,4(v0)
  40076c:	8c440000 	lw	a0,0(v0)
  400770:	3c060040 	lui	a2,0x40
  400774:	8fa3005c 	lw	v1,92(sp)
  400778:	00000000 	nop
  40077c:	00601021 	move	v0,v1
  400780:	00021040 	sll	v0,v0,0x1
  400784:	00431021 	addu	v0,v0,v1
  400788:	8fa30058 	lw	v1,88(sp)
  40078c:	00000000 	nop
  400790:	00431021 	addu	v0,v0,v1
  400794:	000218c0 	sll	v1,v0,0x3
  400798:	24c224d8 	addiu	v0,a2,9432
  40079c:	00621021 	addu	v0,v1,v0
  4007a0:	8c430004 	lw	v1,4(v0)
  4007a4:	8c420000 	lw	v0,0(v0)
  4007a8:	44850000 	mtc1	a1,$f0
  4007ac:	44840800 	mtc1	a0,$f1
  4007b0:	44831000 	mtc1	v1,$f2
  4007b4:	44821800 	mtc1	v0,$f3
  4007b8:	00000000 	nop
  4007bc:	46220002 	mul.d	$f0,$f0,$f2
  4007c0:	44050000 	mfc1	a1,$f0
  4007c4:	44040800 	mfc1	a0,$f1
  4007c8:	3c060040 	lui	a2,0x40
  4007cc:	8fa30044 	lw	v1,68(sp)
  4007d0:	00000000 	nop
  4007d4:	00601021 	move	v0,v1
  4007d8:	00021040 	sll	v0,v0,0x1
  4007dc:	00431021 	addu	v0,v0,v1
  4007e0:	8fa30040 	lw	v1,64(sp)
  4007e4:	00000000 	nop
  4007e8:	00431021 	addu	v0,v0,v1
  4007ec:	000218c0 	sll	v1,v0,0x3
  4007f0:	24c224d8 	addiu	v0,a2,9432
  4007f4:	00621021 	addu	v0,v1,v0
  4007f8:	8c470004 	lw	a3,4(v0)
  4007fc:	8c460000 	lw	a2,0(v0)
  400800:	3c080040 	lui	t0,0x40
  400804:	8fa30054 	lw	v1,84(sp)
  400808:	00000000 	nop
  40080c:	00601021 	move	v0,v1
  400810:	00021040 	sll	v0,v0,0x1
  400814:	00431021 	addu	v0,v0,v1
  400818:	8fa30050 	lw	v1,80(sp)
  40081c:	00000000 	nop
  400820:	00431021 	addu	v0,v0,v1
  400824:	000218c0 	sll	v1,v0,0x3
  400828:	250224d8 	addiu	v0,t0,9432
  40082c:	00621021 	addu	v0,v1,v0
  400830:	8c430004 	lw	v1,4(v0)
  400834:	8c420000 	lw	v0,0(v0)
  400838:	44870000 	mtc1	a3,$f0
  40083c:	44860800 	mtc1	a2,$f1
  400840:	44831000 	mtc1	v1,$f2
  400844:	44821800 	mtc1	v0,$f3
  400848:	00000000 	nop
  40084c:	46220002 	mul.d	$f0,$f0,$f2
  400850:	44030000 	mfc1	v1,$f0
  400854:	44020800 	mfc1	v0,$f1
  400858:	44850000 	mtc1	a1,$f0
  40085c:	44840800 	mtc1	a0,$f1
  400860:	44831000 	mtc1	v1,$f2
  400864:	44821800 	mtc1	v0,$f3
  400868:	00000000 	nop
  40086c:	46220001 	sub.d	$f0,$f0,$f2
  400870:	44030000 	mfc1	v1,$f0
  400874:	44020800 	mfc1	v0,$f1
  400878:	3c040040 	lui	a0,0x40
  40087c:	ac8326ec 	sw	v1,9964(a0)
  400880:	ac8226e8 	sw	v0,9960(a0)
  400884:	3c040040 	lui	a0,0x40
  400888:	8fa30044 	lw	v1,68(sp)
  40088c:	00000000 	nop
  400890:	00601021 	move	v0,v1
  400894:	00021040 	sll	v0,v0,0x1
  400898:	00431021 	addu	v0,v0,v1
  40089c:	8fa30040 	lw	v1,64(sp)
  4008a0:	00000000 	nop
  4008a4:	00431021 	addu	v0,v0,v1
  4008a8:	000218c0 	sll	v1,v0,0x3
  4008ac:	248224d8 	addiu	v0,a0,9432
  4008b0:	00621021 	addu	v0,v1,v0
  4008b4:	8c450004 	lw	a1,4(v0)
  4008b8:	8c440000 	lw	a0,0(v0)
  4008bc:	3c060040 	lui	a2,0x40
  4008c0:	8fa3004c 	lw	v1,76(sp)
  4008c4:	00000000 	nop
  4008c8:	00601021 	move	v0,v1
  4008cc:	00021040 	sll	v0,v0,0x1
  4008d0:	00431021 	addu	v0,v0,v1
  4008d4:	8fa30048 	lw	v1,72(sp)
  4008d8:	00000000 	nop
  4008dc:	00431021 	addu	v0,v0,v1
  4008e0:	000218c0 	sll	v1,v0,0x3
  4008e4:	24c224d8 	addiu	v0,a2,9432
  4008e8:	00621021 	addu	v0,v1,v0
  4008ec:	8c430004 	lw	v1,4(v0)
  4008f0:	8c420000 	lw	v0,0(v0)
  4008f4:	44850000 	mtc1	a1,$f0
  4008f8:	44840800 	mtc1	a0,$f1
  4008fc:	44831000 	mtc1	v1,$f2
  400900:	44821800 	mtc1	v0,$f3
  400904:	00000000 	nop
  400908:	46220002 	mul.d	$f0,$f0,$f2
  40090c:	44050000 	mfc1	a1,$f0
  400910:	44040800 	mfc1	a0,$f1
  400914:	3c060040 	lui	a2,0x40
  400918:	8fa30034 	lw	v1,52(sp)
  40091c:	00000000 	nop
  400920:	00601021 	move	v0,v1
  400924:	00021040 	sll	v0,v0,0x1
  400928:	00431021 	addu	v0,v0,v1
  40092c:	8fa30030 	lw	v1,48(sp)
  400930:	00000000 	nop
  400934:	00431021 	addu	v0,v0,v1
  400938:	000218c0 	sll	v1,v0,0x3
  40093c:	24c224d8 	addiu	v0,a2,9432
  400940:	00621021 	addu	v0,v1,v0
  400944:	8c470004 	lw	a3,4(v0)
  400948:	8c460000 	lw	a2,0(v0)
  40094c:	3c080040 	lui	t0,0x40
  400950:	8fa3005c 	lw	v1,92(sp)
  400954:	00000000 	nop
  400958:	00601021 	move	v0,v1
  40095c:	00021040 	sll	v0,v0,0x1
  400960:	00431021 	addu	v0,v0,v1
  400964:	8fa30058 	lw	v1,88(sp)
  400968:	00000000 	nop
  40096c:	00431021 	addu	v0,v0,v1
  400970:	000218c0 	sll	v1,v0,0x3
  400974:	250224d8 	addiu	v0,t0,9432
  400978:	00621021 	addu	v0,v1,v0
  40097c:	8c430004 	lw	v1,4(v0)
  400980:	8c420000 	lw	v0,0(v0)
  400984:	44870000 	mtc1	a3,$f0
  400988:	44860800 	mtc1	a2,$f1
  40098c:	44831000 	mtc1	v1,$f2
  400990:	44821800 	mtc1	v0,$f3
  400994:	00000000 	nop
  400998:	46220002 	mul.d	$f0,$f0,$f2
  40099c:	44030000 	mfc1	v1,$f0
  4009a0:	44020800 	mfc1	v0,$f1
  4009a4:	44850000 	mtc1	a1,$f0
  4009a8:	44840800 	mtc1	a0,$f1
  4009ac:	44831000 	mtc1	v1,$f2
  4009b0:	44821800 	mtc1	v0,$f3
  4009b4:	00000000 	nop
  4009b8:	46220001 	sub.d	$f0,$f0,$f2
  4009bc:	44030000 	mfc1	v1,$f0
  4009c0:	44020800 	mfc1	v0,$f1
  4009c4:	3c040040 	lui	a0,0x40
  4009c8:	248426e8 	addiu	a0,a0,9960
  4009cc:	ac83000c 	sw	v1,12(a0)
  4009d0:	ac820008 	sw	v0,8(a0)
  4009d4:	3c040040 	lui	a0,0x40
  4009d8:	8fa30034 	lw	v1,52(sp)
  4009dc:	00000000 	nop
  4009e0:	00601021 	move	v0,v1
  4009e4:	00021040 	sll	v0,v0,0x1
  4009e8:	00431021 	addu	v0,v0,v1
  4009ec:	8fa30030 	lw	v1,48(sp)
  4009f0:	00000000 	nop
  4009f4:	00431021 	addu	v0,v0,v1
  4009f8:	000218c0 	sll	v1,v0,0x3
  4009fc:	248224d8 	addiu	v0,a0,9432
  400a00:	00621021 	addu	v0,v1,v0
  400a04:	8c450004 	lw	a1,4(v0)
  400a08:	8c440000 	lw	a0,0(v0)
  400a0c:	3c060040 	lui	a2,0x40
  400a10:	8fa30054 	lw	v1,84(sp)
  400a14:	00000000 	nop
  400a18:	00601021 	move	v0,v1
  400a1c:	00021040 	sll	v0,v0,0x1
  400a20:	00431021 	addu	v0,v0,v1
  400a24:	8fa30050 	lw	v1,80(sp)
  400a28:	00000000 	nop
  400a2c:	00431021 	addu	v0,v0,v1
  400a30:	000218c0 	sll	v1,v0,0x3
  400a34:	24c224d8 	addiu	v0,a2,9432
  400a38:	00621021 	addu	v0,v1,v0
  400a3c:	8c430004 	lw	v1,4(v0)
  400a40:	8c420000 	lw	v0,0(v0)
  400a44:	44850000 	mtc1	a1,$f0
  400a48:	44840800 	mtc1	a0,$f1
  400a4c:	44831000 	mtc1	v1,$f2
  400a50:	44821800 	mtc1	v0,$f3
  400a54:	00000000 	nop
  400a58:	46220002 	mul.d	$f0,$f0,$f2
  400a5c:	44050000 	mfc1	a1,$f0
  400a60:	44040800 	mfc1	a0,$f1
  400a64:	3c060040 	lui	a2,0x40
  400a68:	8fa3003c 	lw	v1,60(sp)
  400a6c:	00000000 	nop
  400a70:	00601021 	move	v0,v1
  400a74:	00021040 	sll	v0,v0,0x1
  400a78:	00431021 	addu	v0,v0,v1
  400a7c:	8fa30038 	lw	v1,56(sp)
  400a80:	00000000 	nop
  400a84:	00431021 	addu	v0,v0,v1
  400a88:	000218c0 	sll	v1,v0,0x3
  400a8c:	24c224d8 	addiu	v0,a2,9432
  400a90:	00621021 	addu	v0,v1,v0
  400a94:	8c470004 	lw	a3,4(v0)
  400a98:	8c460000 	lw	a2,0(v0)
  400a9c:	3c080040 	lui	t0,0x40
  400aa0:	8fa3004c 	lw	v1,76(sp)
  400aa4:	00000000 	nop
  400aa8:	00601021 	move	v0,v1
  400aac:	00021040 	sll	v0,v0,0x1
  400ab0:	00431021 	addu	v0,v0,v1
  400ab4:	8fa30048 	lw	v1,72(sp)
  400ab8:	00000000 	nop
  400abc:	00431021 	addu	v0,v0,v1
  400ac0:	000218c0 	sll	v1,v0,0x3
  400ac4:	250224d8 	addiu	v0,t0,9432
  400ac8:	00621021 	addu	v0,v1,v0
  400acc:	8c430004 	lw	v1,4(v0)
  400ad0:	8c420000 	lw	v0,0(v0)
  400ad4:	44870000 	mtc1	a3,$f0
  400ad8:	44860800 	mtc1	a2,$f1
  400adc:	44831000 	mtc1	v1,$f2
  400ae0:	44821800 	mtc1	v0,$f3
  400ae4:	00000000 	nop
  400ae8:	46220002 	mul.d	$f0,$f0,$f2
  400aec:	44030000 	mfc1	v1,$f0
  400af0:	44020800 	mfc1	v0,$f1
  400af4:	44850000 	mtc1	a1,$f0
  400af8:	44840800 	mtc1	a0,$f1
  400afc:	44831000 	mtc1	v1,$f2
  400b00:	44821800 	mtc1	v0,$f3
  400b04:	00000000 	nop
  400b08:	46220001 	sub.d	$f0,$f0,$f2
  400b0c:	44030000 	mfc1	v1,$f0
  400b10:	44020800 	mfc1	v0,$f1
  400b14:	3c040040 	lui	a0,0x40
  400b18:	248426e8 	addiu	a0,a0,9960
  400b1c:	ac830014 	sw	v1,20(a0)
  400b20:	ac820010 	sw	v0,16(a0)
  400b24:	3c040040 	lui	a0,0x40
  400b28:	8fa3002c 	lw	v1,44(sp)
  400b2c:	00000000 	nop
  400b30:	00601021 	move	v0,v1
  400b34:	00021040 	sll	v0,v0,0x1
  400b38:	00431021 	addu	v0,v0,v1
  400b3c:	8fa30028 	lw	v1,40(sp)
  400b40:	00000000 	nop
  400b44:	00431021 	addu	v0,v0,v1
  400b48:	000218c0 	sll	v1,v0,0x3
  400b4c:	248224d8 	addiu	v0,a0,9432
  400b50:	00621021 	addu	v0,v1,v0
  400b54:	8c450004 	lw	a1,4(v0)
  400b58:	8c440000 	lw	a0,0(v0)
  400b5c:	3c060040 	lui	a2,0x40
  400b60:	8fa30054 	lw	v1,84(sp)
  400b64:	00000000 	nop
  400b68:	00601021 	move	v0,v1
  400b6c:	00021040 	sll	v0,v0,0x1
  400b70:	00431021 	addu	v0,v0,v1
  400b74:	8fa30050 	lw	v1,80(sp)
  400b78:	00000000 	nop
  400b7c:	00431021 	addu	v0,v0,v1
  400b80:	000218c0 	sll	v1,v0,0x3
  400b84:	24c224d8 	addiu	v0,a2,9432
  400b88:	00621021 	addu	v0,v1,v0
  400b8c:	8c430004 	lw	v1,4(v0)
  400b90:	8c420000 	lw	v0,0(v0)
  400b94:	44850000 	mtc1	a1,$f0
  400b98:	44840800 	mtc1	a0,$f1
  400b9c:	44831000 	mtc1	v1,$f2
  400ba0:	44821800 	mtc1	v0,$f3
  400ba4:	00000000 	nop
  400ba8:	46220002 	mul.d	$f0,$f0,$f2
  400bac:	44050000 	mfc1	a1,$f0
  400bb0:	44040800 	mfc1	a0,$f1
  400bb4:	3c060040 	lui	a2,0x40
  400bb8:	8fa30024 	lw	v1,36(sp)
  400bbc:	00000000 	nop
  400bc0:	00601021 	move	v0,v1
  400bc4:	00021040 	sll	v0,v0,0x1
  400bc8:	00431021 	addu	v0,v0,v1
  400bcc:	8fa30020 	lw	v1,32(sp)
  400bd0:	00000000 	nop
  400bd4:	00431021 	addu	v0,v0,v1
  400bd8:	000218c0 	sll	v1,v0,0x3
  400bdc:	24c224d8 	addiu	v0,a2,9432
  400be0:	00621021 	addu	v0,v1,v0
  400be4:	8c470004 	lw	a3,4(v0)
  400be8:	8c460000 	lw	a2,0(v0)
  400bec:	3c080040 	lui	t0,0x40
  400bf0:	8fa3005c 	lw	v1,92(sp)
  400bf4:	00000000 	nop
  400bf8:	00601021 	move	v0,v1
  400bfc:	00021040 	sll	v0,v0,0x1
  400c00:	00431021 	addu	v0,v0,v1
  400c04:	8fa30058 	lw	v1,88(sp)
  400c08:	00000000 	nop
  400c0c:	00431021 	addu	v0,v0,v1
  400c10:	000218c0 	sll	v1,v0,0x3
  400c14:	250224d8 	addiu	v0,t0,9432
  400c18:	00621021 	addu	v0,v1,v0
  400c1c:	8c430004 	lw	v1,4(v0)
  400c20:	8c420000 	lw	v0,0(v0)
  400c24:	44870000 	mtc1	a3,$f0
  400c28:	44860800 	mtc1	a2,$f1
  400c2c:	44831000 	mtc1	v1,$f2
  400c30:	44821800 	mtc1	v0,$f3
  400c34:	00000000 	nop
  400c38:	46220002 	mul.d	$f0,$f0,$f2
  400c3c:	44030000 	mfc1	v1,$f0
  400c40:	44020800 	mfc1	v0,$f1
  400c44:	44850000 	mtc1	a1,$f0
  400c48:	44840800 	mtc1	a0,$f1
  400c4c:	44831000 	mtc1	v1,$f2
  400c50:	44821800 	mtc1	v0,$f3
  400c54:	00000000 	nop
  400c58:	46220001 	sub.d	$f0,$f0,$f2
  400c5c:	44030000 	mfc1	v1,$f0
  400c60:	44020800 	mfc1	v0,$f1
  400c64:	3c040040 	lui	a0,0x40
  400c68:	248426e8 	addiu	a0,a0,9960
  400c6c:	ac83001c 	sw	v1,28(a0)
  400c70:	ac820018 	sw	v0,24(a0)
  400c74:	3c040040 	lui	a0,0x40
  400c78:	8fa3001c 	lw	v1,28(sp)
  400c7c:	00000000 	nop
  400c80:	00601021 	move	v0,v1
  400c84:	00021040 	sll	v0,v0,0x1
  400c88:	00431021 	addu	v0,v0,v1
  400c8c:	8fa30018 	lw	v1,24(sp)
  400c90:	00000000 	nop
  400c94:	00431021 	addu	v0,v0,v1
  400c98:	000218c0 	sll	v1,v0,0x3
  400c9c:	248224d8 	addiu	v0,a0,9432
  400ca0:	00621021 	addu	v0,v1,v0
  400ca4:	8c450004 	lw	a1,4(v0)
  400ca8:	8c440000 	lw	a0,0(v0)
  400cac:	3c060040 	lui	a2,0x40
  400cb0:	8fa3005c 	lw	v1,92(sp)
  400cb4:	00000000 	nop
  400cb8:	00601021 	move	v0,v1
  400cbc:	00021040 	sll	v0,v0,0x1
  400cc0:	00431021 	addu	v0,v0,v1
  400cc4:	8fa30058 	lw	v1,88(sp)
  400cc8:	00000000 	nop
  400ccc:	00431021 	addu	v0,v0,v1
  400cd0:	000218c0 	sll	v1,v0,0x3
  400cd4:	24c224d8 	addiu	v0,a2,9432
  400cd8:	00621021 	addu	v0,v1,v0
  400cdc:	8c430004 	lw	v1,4(v0)
  400ce0:	8c420000 	lw	v0,0(v0)
  400ce4:	44850000 	mtc1	a1,$f0
  400ce8:	44840800 	mtc1	a0,$f1
  400cec:	44831000 	mtc1	v1,$f2
  400cf0:	44821800 	mtc1	v0,$f3
  400cf4:	00000000 	nop
  400cf8:	46220002 	mul.d	$f0,$f0,$f2
  400cfc:	44050000 	mfc1	a1,$f0
  400d00:	44040800 	mfc1	a0,$f1
  400d04:	3c060040 	lui	a2,0x40
  400d08:	8fa3002c 	lw	v1,44(sp)
  400d0c:	00000000 	nop
  400d10:	00601021 	move	v0,v1
  400d14:	00021040 	sll	v0,v0,0x1
  400d18:	00431021 	addu	v0,v0,v1
  400d1c:	8fa30028 	lw	v1,40(sp)
  400d20:	00000000 	nop
  400d24:	00431021 	addu	v0,v0,v1
  400d28:	000218c0 	sll	v1,v0,0x3
  400d2c:	24c224d8 	addiu	v0,a2,9432
  400d30:	00621021 	addu	v0,v1,v0
  400d34:	8c470004 	lw	a3,4(v0)
  400d38:	8c460000 	lw	a2,0(v0)
  400d3c:	3c080040 	lui	t0,0x40
  400d40:	8fa3004c 	lw	v1,76(sp)
  400d44:	00000000 	nop
  400d48:	00601021 	move	v0,v1
  400d4c:	00021040 	sll	v0,v0,0x1
  400d50:	00431021 	addu	v0,v0,v1
  400d54:	8fa30048 	lw	v1,72(sp)
  400d58:	00000000 	nop
  400d5c:	00431021 	addu	v0,v0,v1
  400d60:	000218c0 	sll	v1,v0,0x3
  400d64:	250224d8 	addiu	v0,t0,9432
  400d68:	00621021 	addu	v0,v1,v0
  400d6c:	8c430004 	lw	v1,4(v0)
  400d70:	8c420000 	lw	v0,0(v0)
  400d74:	44870000 	mtc1	a3,$f0
  400d78:	44860800 	mtc1	a2,$f1
  400d7c:	44831000 	mtc1	v1,$f2
  400d80:	44821800 	mtc1	v0,$f3
  400d84:	00000000 	nop
  400d88:	46220002 	mul.d	$f0,$f0,$f2
  400d8c:	44030000 	mfc1	v1,$f0
  400d90:	44020800 	mfc1	v0,$f1
  400d94:	44850000 	mtc1	a1,$f0
  400d98:	44840800 	mtc1	a0,$f1
  400d9c:	44831000 	mtc1	v1,$f2
  400da0:	44821800 	mtc1	v0,$f3
  400da4:	00000000 	nop
  400da8:	46220001 	sub.d	$f0,$f0,$f2
  400dac:	44030000 	mfc1	v1,$f0
  400db0:	44020800 	mfc1	v0,$f1
  400db4:	3c040040 	lui	a0,0x40
  400db8:	248426e8 	addiu	a0,a0,9960
  400dbc:	ac830024 	sw	v1,36(a0)
  400dc0:	ac820020 	sw	v0,32(a0)
  400dc4:	3c040040 	lui	a0,0x40
  400dc8:	8fa30024 	lw	v1,36(sp)
  400dcc:	00000000 	nop
  400dd0:	00601021 	move	v0,v1
  400dd4:	00021040 	sll	v0,v0,0x1
  400dd8:	00431021 	addu	v0,v0,v1
  400ddc:	8fa30020 	lw	v1,32(sp)
  400de0:	00000000 	nop
  400de4:	00431021 	addu	v0,v0,v1
  400de8:	000218c0 	sll	v1,v0,0x3
  400dec:	248224d8 	addiu	v0,a0,9432
  400df0:	00621021 	addu	v0,v1,v0
  400df4:	8c450004 	lw	a1,4(v0)
  400df8:	8c440000 	lw	a0,0(v0)
  400dfc:	3c060040 	lui	a2,0x40
  400e00:	8fa3004c 	lw	v1,76(sp)
  400e04:	00000000 	nop
  400e08:	00601021 	move	v0,v1
  400e0c:	00021040 	sll	v0,v0,0x1
  400e10:	00431021 	addu	v0,v0,v1
  400e14:	8fa30048 	lw	v1,72(sp)
  400e18:	00000000 	nop
  400e1c:	00431021 	addu	v0,v0,v1
  400e20:	000218c0 	sll	v1,v0,0x3
  400e24:	24c224d8 	addiu	v0,a2,9432
  400e28:	00621021 	addu	v0,v1,v0
  400e2c:	8c430004 	lw	v1,4(v0)
  400e30:	8c420000 	lw	v0,0(v0)
  400e34:	44850000 	mtc1	a1,$f0
  400e38:	44840800 	mtc1	a0,$f1
  400e3c:	44831000 	mtc1	v1,$f2
  400e40:	44821800 	mtc1	v0,$f3
  400e44:	00000000 	nop
  400e48:	46220002 	mul.d	$f0,$f0,$f2
  400e4c:	44050000 	mfc1	a1,$f0
  400e50:	44040800 	mfc1	a0,$f1
  400e54:	3c060040 	lui	a2,0x40
  400e58:	8fa3001c 	lw	v1,28(sp)
  400e5c:	00000000 	nop
  400e60:	00601021 	move	v0,v1
  400e64:	00021040 	sll	v0,v0,0x1
  400e68:	00431021 	addu	v0,v0,v1
  400e6c:	8fa30018 	lw	v1,24(sp)
  400e70:	00000000 	nop
  400e74:	00431021 	addu	v0,v0,v1
  400e78:	000218c0 	sll	v1,v0,0x3
  400e7c:	24c224d8 	addiu	v0,a2,9432
  400e80:	00621021 	addu	v0,v1,v0
  400e84:	8c470004 	lw	a3,4(v0)
  400e88:	8c460000 	lw	a2,0(v0)
  400e8c:	3c080040 	lui	t0,0x40
  400e90:	8fa30054 	lw	v1,84(sp)
  400e94:	00000000 	nop
  400e98:	00601021 	move	v0,v1
  400e9c:	00021040 	sll	v0,v0,0x1
  400ea0:	00431021 	addu	v0,v0,v1
  400ea4:	8fa30050 	lw	v1,80(sp)
  400ea8:	00000000 	nop
  400eac:	00431021 	addu	v0,v0,v1
  400eb0:	000218c0 	sll	v1,v0,0x3
  400eb4:	250224d8 	addiu	v0,t0,9432
  400eb8:	00621021 	addu	v0,v1,v0
  400ebc:	8c430004 	lw	v1,4(v0)
  400ec0:	8c420000 	lw	v0,0(v0)
  400ec4:	44870000 	mtc1	a3,$f0
  400ec8:	44860800 	mtc1	a2,$f1
  400ecc:	44831000 	mtc1	v1,$f2
  400ed0:	44821800 	mtc1	v0,$f3
  400ed4:	00000000 	nop
  400ed8:	46220002 	mul.d	$f0,$f0,$f2
  400edc:	44030000 	mfc1	v1,$f0
  400ee0:	44020800 	mfc1	v0,$f1
  400ee4:	44850000 	mtc1	a1,$f0
  400ee8:	44840800 	mtc1	a0,$f1
  400eec:	44831000 	mtc1	v1,$f2
  400ef0:	44821800 	mtc1	v0,$f3
  400ef4:	00000000 	nop
  400ef8:	46220001 	sub.d	$f0,$f0,$f2
  400efc:	44030000 	mfc1	v1,$f0
  400f00:	44020800 	mfc1	v0,$f1
  400f04:	3c040040 	lui	a0,0x40
  400f08:	248426e8 	addiu	a0,a0,9960
  400f0c:	ac83002c 	sw	v1,44(a0)
  400f10:	ac820028 	sw	v0,40(a0)
  400f14:	3c040040 	lui	a0,0x40
  400f18:	8fa30024 	lw	v1,36(sp)
  400f1c:	00000000 	nop
  400f20:	00601021 	move	v0,v1
  400f24:	00021040 	sll	v0,v0,0x1
  400f28:	00431021 	addu	v0,v0,v1
  400f2c:	8fa30020 	lw	v1,32(sp)
  400f30:	00000000 	nop
  400f34:	00431021 	addu	v0,v0,v1
  400f38:	000218c0 	sll	v1,v0,0x3
  400f3c:	248224d8 	addiu	v0,a0,9432
  400f40:	00621021 	addu	v0,v1,v0
  400f44:	8c450004 	lw	a1,4(v0)
  400f48:	8c440000 	lw	a0,0(v0)
  400f4c:	3c060040 	lui	a2,0x40
  400f50:	8fa30044 	lw	v1,68(sp)
  400f54:	00000000 	nop
  400f58:	00601021 	move	v0,v1
  400f5c:	00021040 	sll	v0,v0,0x1
  400f60:	00431021 	addu	v0,v0,v1
  400f64:	8fa30040 	lw	v1,64(sp)
  400f68:	00000000 	nop
  400f6c:	00431021 	addu	v0,v0,v1
  400f70:	000218c0 	sll	v1,v0,0x3
  400f74:	24c224d8 	addiu	v0,a2,9432
  400f78:	00621021 	addu	v0,v1,v0
  400f7c:	8c430004 	lw	v1,4(v0)
  400f80:	8c420000 	lw	v0,0(v0)
  400f84:	44850000 	mtc1	a1,$f0
  400f88:	44840800 	mtc1	a0,$f1
  400f8c:	44831000 	mtc1	v1,$f2
  400f90:	44821800 	mtc1	v0,$f3
  400f94:	00000000 	nop
  400f98:	46220002 	mul.d	$f0,$f0,$f2
  400f9c:	44050000 	mfc1	a1,$f0
  400fa0:	44040800 	mfc1	a0,$f1
  400fa4:	3c060040 	lui	a2,0x40
  400fa8:	8fa3002c 	lw	v1,44(sp)
  400fac:	00000000 	nop
  400fb0:	00601021 	move	v0,v1
  400fb4:	00021040 	sll	v0,v0,0x1
  400fb8:	00431021 	addu	v0,v0,v1
  400fbc:	8fa30028 	lw	v1,40(sp)
  400fc0:	00000000 	nop
  400fc4:	00431021 	addu	v0,v0,v1
  400fc8:	000218c0 	sll	v1,v0,0x3
  400fcc:	24c224d8 	addiu	v0,a2,9432
  400fd0:	00621021 	addu	v0,v1,v0
  400fd4:	8c470004 	lw	a3,4(v0)
  400fd8:	8c460000 	lw	a2,0(v0)
  400fdc:	3c080040 	lui	t0,0x40
  400fe0:	8fa3003c 	lw	v1,60(sp)
  400fe4:	00000000 	nop
  400fe8:	00601021 	move	v0,v1
  400fec:	00021040 	sll	v0,v0,0x1
  400ff0:	00431021 	addu	v0,v0,v1
  400ff4:	8fa30038 	lw	v1,56(sp)
  400ff8:	00000000 	nop
  400ffc:	00431021 	addu	v0,v0,v1
  401000:	000218c0 	sll	v1,v0,0x3
  401004:	250224d8 	addiu	v0,t0,9432
  401008:	00621021 	addu	v0,v1,v0
  40100c:	8c430004 	lw	v1,4(v0)
  401010:	8c420000 	lw	v0,0(v0)
  401014:	44870000 	mtc1	a3,$f0
  401018:	44860800 	mtc1	a2,$f1
  40101c:	44831000 	mtc1	v1,$f2
  401020:	44821800 	mtc1	v0,$f3
  401024:	00000000 	nop
  401028:	46220002 	mul.d	$f0,$f0,$f2
  40102c:	44030000 	mfc1	v1,$f0
  401030:	44020800 	mfc1	v0,$f1
  401034:	44850000 	mtc1	a1,$f0
  401038:	44840800 	mtc1	a0,$f1
  40103c:	44831000 	mtc1	v1,$f2
  401040:	44821800 	mtc1	v0,$f3
  401044:	00000000 	nop
  401048:	46220001 	sub.d	$f0,$f0,$f2
  40104c:	44030000 	mfc1	v1,$f0
  401050:	44020800 	mfc1	v0,$f1
  401054:	3c040040 	lui	a0,0x40
  401058:	248426e8 	addiu	a0,a0,9960
  40105c:	ac830034 	sw	v1,52(a0)
  401060:	ac820030 	sw	v0,48(a0)
  401064:	3c040040 	lui	a0,0x40
  401068:	8fa3002c 	lw	v1,44(sp)
  40106c:	00000000 	nop
  401070:	00601021 	move	v0,v1
  401074:	00021040 	sll	v0,v0,0x1
  401078:	00431021 	addu	v0,v0,v1
  40107c:	8fa30028 	lw	v1,40(sp)
  401080:	00000000 	nop
  401084:	00431021 	addu	v0,v0,v1
  401088:	000218c0 	sll	v1,v0,0x3
  40108c:	248224d8 	addiu	v0,a0,9432
  401090:	00621021 	addu	v0,v1,v0
  401094:	8c450004 	lw	a1,4(v0)
  401098:	8c440000 	lw	a0,0(v0)
  40109c:	3c060040 	lui	a2,0x40
  4010a0:	8fa30034 	lw	v1,52(sp)
  4010a4:	00000000 	nop
  4010a8:	00601021 	move	v0,v1
  4010ac:	00021040 	sll	v0,v0,0x1
  4010b0:	00431021 	addu	v0,v0,v1
  4010b4:	8fa30030 	lw	v1,48(sp)
  4010b8:	00000000 	nop
  4010bc:	00431021 	addu	v0,v0,v1
  4010c0:	000218c0 	sll	v1,v0,0x3
  4010c4:	24c224d8 	addiu	v0,a2,9432
  4010c8:	00621021 	addu	v0,v1,v0
  4010cc:	8c430004 	lw	v1,4(v0)
  4010d0:	8c420000 	lw	v0,0(v0)
  4010d4:	44850000 	mtc1	a1,$f0
  4010d8:	44840800 	mtc1	a0,$f1
  4010dc:	44831000 	mtc1	v1,$f2
  4010e0:	44821800 	mtc1	v0,$f3
  4010e4:	00000000 	nop
  4010e8:	46220002 	mul.d	$f0,$f0,$f2
  4010ec:	44050000 	mfc1	a1,$f0
  4010f0:	44040800 	mfc1	a0,$f1
  4010f4:	3c060040 	lui	a2,0x40
  4010f8:	8fa3001c 	lw	v1,28(sp)
  4010fc:	00000000 	nop
  401100:	00601021 	move	v0,v1
  401104:	00021040 	sll	v0,v0,0x1
  401108:	00431021 	addu	v0,v0,v1
  40110c:	8fa30018 	lw	v1,24(sp)
  401110:	00000000 	nop
  401114:	00431021 	addu	v0,v0,v1
  401118:	000218c0 	sll	v1,v0,0x3
  40111c:	24c224d8 	addiu	v0,a2,9432
  401120:	00621021 	addu	v0,v1,v0
  401124:	8c470004 	lw	a3,4(v0)
  401128:	8c460000 	lw	a2,0(v0)
  40112c:	3c080040 	lui	t0,0x40
  401130:	8fa30044 	lw	v1,68(sp)
  401134:	00000000 	nop
  401138:	00601021 	move	v0,v1
  40113c:	00021040 	sll	v0,v0,0x1
  401140:	00431021 	addu	v0,v0,v1
  401144:	8fa30040 	lw	v1,64(sp)
  401148:	00000000 	nop
  40114c:	00431021 	addu	v0,v0,v1
  401150:	000218c0 	sll	v1,v0,0x3
  401154:	250224d8 	addiu	v0,t0,9432
  401158:	00621021 	addu	v0,v1,v0
  40115c:	8c430004 	lw	v1,4(v0)
  401160:	8c420000 	lw	v0,0(v0)
  401164:	44870000 	mtc1	a3,$f0
  401168:	44860800 	mtc1	a2,$f1
  40116c:	44831000 	mtc1	v1,$f2
  401170:	44821800 	mtc1	v0,$f3
  401174:	00000000 	nop
  401178:	46220002 	mul.d	$f0,$f0,$f2
  40117c:	44030000 	mfc1	v1,$f0
  401180:	44020800 	mfc1	v0,$f1
  401184:	44850000 	mtc1	a1,$f0
  401188:	44840800 	mtc1	a0,$f1
  40118c:	44831000 	mtc1	v1,$f2
  401190:	44821800 	mtc1	v0,$f3
  401194:	00000000 	nop
  401198:	46220001 	sub.d	$f0,$f0,$f2
  40119c:	44030000 	mfc1	v1,$f0
  4011a0:	44020800 	mfc1	v0,$f1
  4011a4:	3c040040 	lui	a0,0x40
  4011a8:	248426e8 	addiu	a0,a0,9960
  4011ac:	ac83003c 	sw	v1,60(a0)
  4011b0:	ac820038 	sw	v0,56(a0)
  4011b4:	3c040040 	lui	a0,0x40
  4011b8:	8fa3001c 	lw	v1,28(sp)
  4011bc:	00000000 	nop
  4011c0:	00601021 	move	v0,v1
  4011c4:	00021040 	sll	v0,v0,0x1
  4011c8:	00431021 	addu	v0,v0,v1
  4011cc:	8fa30018 	lw	v1,24(sp)
  4011d0:	00000000 	nop
  4011d4:	00431021 	addu	v0,v0,v1
  4011d8:	000218c0 	sll	v1,v0,0x3
  4011dc:	248224d8 	addiu	v0,a0,9432
  4011e0:	00621021 	addu	v0,v1,v0
  4011e4:	8c450004 	lw	a1,4(v0)
  4011e8:	8c440000 	lw	a0,0(v0)
  4011ec:	3c060040 	lui	a2,0x40
  4011f0:	8fa3003c 	lw	v1,60(sp)
  4011f4:	00000000 	nop
  4011f8:	00601021 	move	v0,v1
  4011fc:	00021040 	sll	v0,v0,0x1
  401200:	00431021 	addu	v0,v0,v1
  401204:	8fa30038 	lw	v1,56(sp)
  401208:	00000000 	nop
  40120c:	00431021 	addu	v0,v0,v1
  401210:	000218c0 	sll	v1,v0,0x3
  401214:	24c224d8 	addiu	v0,a2,9432
  401218:	00621021 	addu	v0,v1,v0
  40121c:	8c430004 	lw	v1,4(v0)
  401220:	8c420000 	lw	v0,0(v0)
  401224:	44850000 	mtc1	a1,$f0
  401228:	44840800 	mtc1	a0,$f1
  40122c:	44831000 	mtc1	v1,$f2
  401230:	44821800 	mtc1	v0,$f3
  401234:	00000000 	nop
  401238:	46220002 	mul.d	$f0,$f0,$f2
  40123c:	44050000 	mfc1	a1,$f0
  401240:	44040800 	mfc1	a0,$f1
  401244:	3c060040 	lui	a2,0x40
  401248:	8fa30024 	lw	v1,36(sp)
  40124c:	00000000 	nop
  401250:	00601021 	move	v0,v1
  401254:	00021040 	sll	v0,v0,0x1
  401258:	00431021 	addu	v0,v0,v1
  40125c:	8fa30020 	lw	v1,32(sp)
  401260:	00000000 	nop
  401264:	00431021 	addu	v0,v0,v1
  401268:	000218c0 	sll	v1,v0,0x3
  40126c:	24c224d8 	addiu	v0,a2,9432
  401270:	00621021 	addu	v0,v1,v0
  401274:	8c470004 	lw	a3,4(v0)
  401278:	8c460000 	lw	a2,0(v0)
  40127c:	3c080040 	lui	t0,0x40
  401280:	8fa30034 	lw	v1,52(sp)
  401284:	00000000 	nop
  401288:	00601021 	move	v0,v1
  40128c:	00021040 	sll	v0,v0,0x1
  401290:	00431021 	addu	v0,v0,v1
  401294:	8fa30030 	lw	v1,48(sp)
  401298:	00000000 	nop
  40129c:	00431021 	addu	v0,v0,v1
  4012a0:	000218c0 	sll	v1,v0,0x3
  4012a4:	250224d8 	addiu	v0,t0,9432
  4012a8:	00621021 	addu	v0,v1,v0
  4012ac:	8c430004 	lw	v1,4(v0)
  4012b0:	8c420000 	lw	v0,0(v0)
  4012b4:	44870000 	mtc1	a3,$f0
  4012b8:	44860800 	mtc1	a2,$f1
  4012bc:	44831000 	mtc1	v1,$f2
  4012c0:	44821800 	mtc1	v0,$f3
  4012c4:	00000000 	nop
  4012c8:	46220002 	mul.d	$f0,$f0,$f2
  4012cc:	44030000 	mfc1	v1,$f0
  4012d0:	44020800 	mfc1	v0,$f1
  4012d4:	44850000 	mtc1	a1,$f0
  4012d8:	44840800 	mtc1	a0,$f1
  4012dc:	44831000 	mtc1	v1,$f2
  4012e0:	44821800 	mtc1	v0,$f3
  4012e4:	00000000 	nop
  4012e8:	46220001 	sub.d	$f0,$f0,$f2
  4012ec:	44030000 	mfc1	v1,$f0
  4012f0:	44020800 	mfc1	v0,$f1
  4012f4:	3c040040 	lui	a0,0x40
  4012f8:	248426e8 	addiu	a0,a0,9960
  4012fc:	ac830044 	sw	v1,68(a0)
  401300:	ac820040 	sw	v0,64(a0)
  401304:	081004ef 	j	4013bc <minver+0xf18>
  401308:	afa00000 	sw	zero,0(sp)
  40130c:	081004e5 	j	401394 <minver+0xef0>
  401310:	afa00004 	sw	zero,4(sp)
  401314:	3c040040 	lui	a0,0x40
  401318:	8fa30000 	lw	v1,0(sp)
  40131c:	00000000 	nop
  401320:	00601021 	move	v0,v1
  401324:	00021040 	sll	v0,v0,0x1
  401328:	00431021 	addu	v0,v0,v1
  40132c:	8fa30004 	lw	v1,4(sp)
  401330:	00000000 	nop
  401334:	00431021 	addu	v0,v0,v1
  401338:	000218c0 	sll	v1,v0,0x3
  40133c:	248226e8 	addiu	v0,a0,9960
  401340:	00621021 	addu	v0,v1,v0
  401344:	8c450004 	lw	a1,4(v0)
  401348:	8c440000 	lw	a0,0(v0)
  40134c:	3c060040 	lui	a2,0x40
  401350:	8fa30004 	lw	v1,4(sp)
  401354:	00000000 	nop
  401358:	00601021 	move	v0,v1
  40135c:	00021040 	sll	v0,v0,0x1
  401360:	00431021 	addu	v0,v0,v1
  401364:	8fa30000 	lw	v1,0(sp)
  401368:	00000000 	nop
  40136c:	00431021 	addu	v0,v0,v1
  401370:	000218c0 	sll	v1,v0,0x3
  401374:	24c22658 	addiu	v0,a2,9816
  401378:	00621021 	addu	v0,v1,v0
  40137c:	ac450004 	sw	a1,4(v0)
  401380:	ac440000 	sw	a0,0(v0)
  401384:	8fa20004 	lw	v0,4(sp)
  401388:	00000000 	nop
  40138c:	24420001 	addiu	v0,v0,1
  401390:	afa20004 	sw	v0,4(sp)
  401394:	8fa30004 	lw	v1,4(sp)
  401398:	8fa20060 	lw	v0,96(sp)
  40139c:	00000000 	nop
  4013a0:	0062102a 	slt	v0,v1,v0
  4013a4:	1440ffdb 	bnez	v0,401314 <minver+0xe70>
  4013a8:	00000000 	nop
  4013ac:	8fa20000 	lw	v0,0(sp)
  4013b0:	00000000 	nop
  4013b4:	24420001 	addiu	v0,v0,1
  4013b8:	afa20000 	sw	v0,0(sp)
  4013bc:	8fa30000 	lw	v1,0(sp)
  4013c0:	8fa20060 	lw	v0,96(sp)
  4013c4:	00000000 	nop
  4013c8:	0062102a 	slt	v0,v1,v0
  4013cc:	1440ffcf 	bnez	v0,40130c <minver+0xe68>
  4013d0:	00000000 	nop
  4013d4:	0810052d 	j	4014b4 <minver+0x1010>
  4013d8:	afa00000 	sw	zero,0(sp)
  4013dc:	08100523 	j	40148c <minver+0xfe8>
  4013e0:	afa00004 	sw	zero,4(sp)
  4013e4:	3c040040 	lui	a0,0x40
  4013e8:	8fa30000 	lw	v1,0(sp)
  4013ec:	00000000 	nop
  4013f0:	00601021 	move	v0,v1
  4013f4:	00021040 	sll	v0,v0,0x1
  4013f8:	00431021 	addu	v0,v0,v1
  4013fc:	8fa30004 	lw	v1,4(sp)
  401400:	00000000 	nop
  401404:	00431021 	addu	v0,v0,v1
  401408:	000218c0 	sll	v1,v0,0x3
  40140c:	24822658 	addiu	v0,a0,9816
  401410:	00621021 	addu	v0,v1,v0
  401414:	8c450004 	lw	a1,4(v0)
  401418:	8c440000 	lw	a0,0(v0)
  40141c:	8f838064 	lw	v1,-32668(gp)
  401420:	8f828060 	lw	v0,-32672(gp)
  401424:	44850000 	mtc1	a1,$f0
  401428:	44840800 	mtc1	a0,$f1
  40142c:	44831000 	mtc1	v1,$f2
  401430:	44821800 	mtc1	v0,$f3
  401434:	00000000 	nop
  401438:	46220002 	mul.d	$f0,$f0,$f2
  40143c:	44050000 	mfc1	a1,$f0
  401440:	44040800 	mfc1	a0,$f1
  401444:	3c060040 	lui	a2,0x40
  401448:	8fa30000 	lw	v1,0(sp)
  40144c:	00000000 	nop
  401450:	00601021 	move	v0,v1
  401454:	00021040 	sll	v0,v0,0x1
  401458:	00431021 	addu	v0,v0,v1
  40145c:	8fa30004 	lw	v1,4(sp)
  401460:	00000000 	nop
  401464:	00431021 	addu	v0,v0,v1
  401468:	000218c0 	sll	v1,v0,0x3
  40146c:	24c224d8 	addiu	v0,a2,9432
  401470:	00621021 	addu	v0,v1,v0
  401474:	ac450004 	sw	a1,4(v0)
  401478:	ac440000 	sw	a0,0(v0)
  40147c:	8fa20004 	lw	v0,4(sp)
  401480:	00000000 	nop
  401484:	24420001 	addiu	v0,v0,1
  401488:	afa20004 	sw	v0,4(sp)
  40148c:	8fa30004 	lw	v1,4(sp)
  401490:	8fa20060 	lw	v0,96(sp)
  401494:	00000000 	nop
  401498:	0062102a 	slt	v0,v1,v0
  40149c:	1440ffd1 	bnez	v0,4013e4 <minver+0xf40>
  4014a0:	00000000 	nop
  4014a4:	8fa20000 	lw	v0,0(sp)
  4014a8:	00000000 	nop
  4014ac:	24420001 	addiu	v0,v0,1
  4014b0:	afa20000 	sw	v0,0(sp)
  4014b4:	8fa30000 	lw	v1,0(sp)
  4014b8:	8fa20060 	lw	v0,96(sp)
  4014bc:	00000000 	nop
  4014c0:	0062102a 	slt	v0,v1,v0
  4014c4:	1440ffc5 	bnez	v0,4013dc <minver+0xf38>
  4014c8:	00000000 	nop
  4014cc:	00001021 	move	v0,zero
  4014d0:	03e00008 	jr	ra
  4014d4:	27bd0060 	addiu	sp,sp,96
