
/tmp/adpcm:     file format elf32-bigmips

SYMBOL TABLE:
00400000 l    d  .reginfo	00000000 .reginfo
00400018 l    d  .text	00000000 .text
00402000 l    d  .data	00000000 .data
00402490 l    d  .sbss	00000000 .sbss
004025b4 l    d  .bss	00000000 .bss
00000000 l    d  .pdr	00000000 .pdr
00000000 l    d  .wcet_annot	00000000 .wcet_annot
00000000 l    d  .comment	00000000 .comment
00000000 l    d  .debug_aranges	00000000 .debug_aranges
00000000 l    d  .debug_info	00000000 .debug_info
00000000 l    d  .debug_abbrev	00000000 .debug_abbrev
00000000 l    d  .debug_line	00000000 .debug_line
00000000 l    d  .debug_frame	00000000 .debug_frame
00000000 l    d  .debug_str	00000000 .debug_str
00000000 l    d  .debug_loc	00000000 .debug_loc
00000000 l    d  .gnu.attributes	00000000 .gnu.attributes
00000010 l    d  .mdebug.abi32	00000000 .mdebug.abi32
00000000 l    df *ABS*	00000000 adpcm.c
004025b4 l     O .bss	00000018 test_data.1699
004025cc l     O .bss	0000000c compressed.1700
004025d8 l     O .bss	00000018 result.1701
00400988 g     F .text	00000670 decode
00402490 g     O .sbss	00000004 rl
00402494 g     O .sbss	00000004 dec_plt2
00402498 g     O .sbss	00000004 rh2
00402000 g       .data	00000000 _fdata
0040249c g     O .sbss	00000004 spl
004024a0 g     O .sbss	00000004 szh
004024a4 g     O .sbss	00000004 dec_rlt
004024a8 g     O .sbss	00000004 ih
004024ac g     O .sbss	00000004 dec_plt1
004024b0 g     O .sbss	00000004 nbl
004024b4 g     O .sbss	00000004 dec_nbh
00402480 g     O .data	00000010 wh_code_table
004025f0 g     O .bss	00000018 delay_dltx
00402608 g     O .bss	00000018 dec_del_dltx
004024b8 g     O .sbss	00000004 dec_ph1
00402470 g     O .data	00000010 qq2_code2_table
0040a480 g       *ABS*	00000000 _gp
00400ff8 g     F .text	00000350 reset
004024bc g     O .sbss	00000004 ph
004024c0 g     O .sbss	00000004 dh
004024c4 g     O .sbss	00000004 dec_sph
004024c8 g     O .sbss	00000004 sh
00402620 g     O .bss	0000002c accumd
004024cc g     O .sbss	00000004 detl
004024d0 g     O .sbss	00000004 eh
004024d4 g     O .sbss	00000004 yh
004024d8 g     O .sbss	00000004 ah1
004015d0 g     F .text	00000098 logscl
00401348 g     F .text	000000ec filtez
004024dc g     O .sbss	00000004 rlt
004024e0 g     O .sbss	00000004 sl
004020a0 g     O .data	00000080 qq5_code5_table
004024e4 g     O .sbss	00000004 xout1
004000b0 g     F .text	000001c8 my_sin
00402260 g     O .data	00000020 wl_table
00400018 g     F .text	0000004c my_abs
00402300 g     O .data	00000078 decis_levl
004024e8 g     O .sbss	00000004 rs
004024ec g     O .sbss	00000004 szl
00402280 g     O .data	00000080 ilb_table
004024f0 g     O .sbss	00000004 dec_ph2
0040264c g     O .bss	00000018 dec_del_dhx
004024f4 g     O .sbss	00000004 dec_ah1
00401900 g     F .text	00000114 uppol2
004024f8 g     O .sbss	00000004 dec_szl
004024fc g     O .sbss	00000004 dec_dh
00402500 g     O .sbss	00000004 rh
00402504 g     O .sbss	00000004 deth
004002b0 g     F .text	000006d8 encode
00402508 g     O .sbss	00000004 dec_rlt2
0040250c g     O .sbss	00000004 dec_rlt1
00402510 g     O .sbss	00000004 xh
00402514 g     O .sbss	00000004 dec_sl
00402518 g     O .sbss	00000004 xout2
0040251c g     O .sbss	00000004 dec_deth
00402520 g     O .sbss	00000004 rlt2
00402524 g     O .sbss	00000004 ph2
00402528 g     O .sbss	00000004 dec_dlt
00400018 g       .text	00000000 _ftext
0040252c g     O .sbss	00000004 ah2
00400064 g     F .text	0000004c my_fabs
00402530 g     O .sbss	00000004 il
00402534 g     O .sbss	00000004 ilr
004016ec g     F .text	00000214 upzero
00402490 g       *ABS*	00000000 __bss_start
00402538 g     O .sbss	00000004 el
00400278 g     F .text	00000038 my_cos
0040253c g     O .sbss	00000004 dec_spl
00401b94 g     F .text	00000260 main
00402664 g     O .bss	00000018 delay_dhx
00402540 g     O .sbss	00000004 dec_szh
00402544 g     O .sbss	00000004 dec_nbl
00402548 g     O .sbss	00000004 dec_ph
0040254c g     O .sbss	00000004 sph
00401a14 g     F .text	000000ec uppol1
00402550 g     O .sbss	00000004 dlt
00402554 g     O .sbss	00000004 dl
00402558 g     O .sbss	00000004 ph1
0040267c g     O .bss	00000060 tqmf
0040255c g     O .sbss	00000004 rh1
00402560 g     O .sbss	00000004 dec_sh
00402378 g     O .data	0000007c quant26bt_pos
00402120 g     O .data	00000100 qq6_code6_table
00402000 g     O .data	00000060 h
004026dc g     O .bss	00000018 dec_del_bph
00402564 g     O .sbss	00000004 xd
00401b00 g     F .text	00000094 logsch
00401668 g     F .text	00000084 scalel
00402568 g     O .sbss	00000004 plt2
0040256c g     O .sbss	00000004 dec_detl
00402570 g     O .sbss	00000004 dec_al2
00402490 g       *ABS*	00000000 _edata
004026f4 g     O .bss	0000002c accumc
00402768 g       *ABS*	00000000 _end
00402574 g     O .sbss	00000004 plt1
00402578 g     O .sbss	00000004 dec_plt
0040257c g     O .sbss	00000004 dec_rh2
00402580 g     O .sbss	00000004 al2
00402584 g     O .sbss	00000004 dec_rh1
00402588 g     O .sbss	00000004 yl
0040258c g     O .sbss	00000004 nbh
00402720 g     O .bss	00000018 delay_bpl
00402590 g     O .sbss	00000004 rlt1
004014bc g     F .text	00000114 quantl
00402738 g     O .bss	00000018 dec_del_bpl
00402594 g     O .sbss	00000004 dec_al1
00402598 g     O .sbss	00000004 xl
0040259c g     O .sbss	00000004 plt
004025a0 g     O .sbss	00000004 dec_ah2
004025a4 g     O .sbss	00000004 xs
00402490 g       *ABS*	00000000 _fbss
00402060 g     O .data	00000040 qq4_code4_table
004025a8 g     O .sbss	00000004 al1
004025ac g     O .sbss	00000004 dec_rh
00401434 g     F .text	00000088 filtep
004023f4 g     O .data	0000007c quant26bt_neg
00402220 g     O .data	00000040 wl_code_table
00402750 g     O .bss	00000018 delay_bph
004025b0 g     O .sbss	00000004 dec_yh



Disassembly of section .text:

00400018 <my_abs>:
  400018:	27bdfff8 	addiu	sp,sp,-8
  40001c:	afa40008 	sw	a0,8(sp)
  400020:	8fa20008 	lw	v0,8(sp)
  400024:	00000000 	nop
  400028:	04400006 	bltz	v0,400044 <my_abs+0x2c>
  40002c:	00000000 	nop
  400030:	8fa20008 	lw	v0,8(sp)
  400034:	00000000 	nop
  400038:	afa20000 	sw	v0,0(sp)
  40003c:	08100015 	j	400054 <my_abs+0x3c>
  400040:	00000000 	nop
  400044:	8fa20008 	lw	v0,8(sp)
  400048:	00000000 	nop
  40004c:	00021023 	negu	v0,v0
  400050:	afa20000 	sw	v0,0(sp)
  400054:	8fa20000 	lw	v0,0(sp)
  400058:	27bd0008 	addiu	sp,sp,8
  40005c:	03e00008 	jr	ra
  400060:	00000000 	nop

00400064 <my_fabs>:
  400064:	27bdfff8 	addiu	sp,sp,-8
  400068:	afa40008 	sw	a0,8(sp)
  40006c:	8fa20008 	lw	v0,8(sp)
  400070:	00000000 	nop
  400074:	04400006 	bltz	v0,400090 <my_fabs+0x2c>
  400078:	00000000 	nop
  40007c:	8fa20008 	lw	v0,8(sp)
  400080:	00000000 	nop
  400084:	afa20000 	sw	v0,0(sp)
  400088:	08100028 	j	4000a0 <my_fabs+0x3c>
  40008c:	00000000 	nop
  400090:	8fa20008 	lw	v0,8(sp)
  400094:	00000000 	nop
  400098:	00021023 	negu	v0,v0
  40009c:	afa20000 	sw	v0,0(sp)
  4000a0:	8fa20000 	lw	v0,0(sp)
  4000a4:	27bd0008 	addiu	sp,sp,8
  4000a8:	03e00008 	jr	ra
  4000ac:	00000000 	nop

004000b0 <my_sin>:
  4000b0:	27bdffd8 	addiu	sp,sp,-40
  4000b4:	afbf0024 	sw	ra,36(sp)
  4000b8:	afa40028 	sw	a0,40(sp)
  4000bc:	afa00014 	sw	zero,20(sp)
  4000c0:	24020001 	li	v0,1
  4000c4:	08100037 	j	4000dc <my_sin+0x2c>
  4000c8:	afa20018 	sw	v0,24(sp)
  4000cc:	8fa20028 	lw	v0,40(sp)
  4000d0:	00000000 	nop
  4000d4:	2442e776 	addiu	v0,v0,-6282
  4000d8:	afa20028 	sw	v0,40(sp)
  4000dc:	8fa20028 	lw	v0,40(sp)
  4000e0:	00000000 	nop
  4000e4:	2842188b 	slti	v0,v0,6283
  4000e8:	1040fff8 	beqz	v0,4000cc <my_sin+0x1c>
  4000ec:	00000000 	nop
  4000f0:	08100042 	j	400108 <my_sin+0x58>
  4000f4:	00000000 	nop
  4000f8:	8fa20028 	lw	v0,40(sp)
  4000fc:	00000000 	nop
  400100:	2442188a 	addiu	v0,v0,6282
  400104:	afa20028 	sw	v0,40(sp)
  400108:	8fa20028 	lw	v0,40(sp)
  40010c:	00000000 	nop
  400110:	2842e776 	slti	v0,v0,-6282
  400114:	1440fff8 	bnez	v0,4000f8 <my_sin+0x48>
  400118:	00000000 	nop
  40011c:	8fa20028 	lw	v0,40(sp)
  400120:	00000000 	nop
  400124:	afa20010 	sw	v0,16(sp)
  400128:	8fa20010 	lw	v0,16(sp)
  40012c:	00000000 	nop
  400130:	afa20014 	sw	v0,20(sp)
  400134:	8fa30028 	lw	v1,40(sp)
  400138:	8fa20028 	lw	v0,40(sp)
  40013c:	00000000 	nop
  400140:	00620018 	mult	v1,v0
  400144:	00001012 	mflo	v0
  400148:	00021823 	negu	v1,v0
  40014c:	8fa20010 	lw	v0,16(sp)
  400150:	00000000 	nop
  400154:	00620018 	mult	v1,v0
  400158:	00001812 	mflo	v1
  40015c:	8fa20018 	lw	v0,24(sp)
  400160:	00000000 	nop
  400164:	00022040 	sll	a0,v0,0x1
  400168:	8fa20018 	lw	v0,24(sp)
  40016c:	00000000 	nop
  400170:	00021040 	sll	v0,v0,0x1
  400174:	24420001 	addiu	v0,v0,1
  400178:	00820018 	mult	a0,v0
  40017c:	00001012 	mflo	v0
  400180:	00000000 	nop
  400184:	14400002 	bnez	v0,400190 <my_sin+0xe0>
  400188:	0062001a 	div	zero,v1,v0
  40018c:	0007000d 	break	0x7
  400190:	00001810 	mfhi	v1
  400194:	00001012 	mflo	v0
  400198:	afa20010 	sw	v0,16(sp)
  40019c:	8fa30014 	lw	v1,20(sp)
  4001a0:	8fa20010 	lw	v0,16(sp)
  4001a4:	00000000 	nop
  4001a8:	00621021 	addu	v0,v1,v0
  4001ac:	afa20014 	sw	v0,20(sp)
  4001b0:	8fa20018 	lw	v0,24(sp)
  4001b4:	00000000 	nop
  4001b8:	24420001 	addiu	v0,v0,1
  4001bc:	08100094 	j	400250 <my_sin+0x1a0>
  4001c0:	afa20018 	sw	v0,24(sp)
  4001c4:	8fa30028 	lw	v1,40(sp)
  4001c8:	8fa20028 	lw	v0,40(sp)
  4001cc:	00000000 	nop
  4001d0:	00620018 	mult	v1,v0
  4001d4:	00001012 	mflo	v0
  4001d8:	00021823 	negu	v1,v0
  4001dc:	8fa20010 	lw	v0,16(sp)
  4001e0:	00000000 	nop
  4001e4:	00620018 	mult	v1,v0
  4001e8:	00001812 	mflo	v1
  4001ec:	8fa20018 	lw	v0,24(sp)
  4001f0:	00000000 	nop
  4001f4:	00022040 	sll	a0,v0,0x1
  4001f8:	8fa20018 	lw	v0,24(sp)
  4001fc:	00000000 	nop
  400200:	00021040 	sll	v0,v0,0x1
  400204:	24420001 	addiu	v0,v0,1
  400208:	00820018 	mult	a0,v0
  40020c:	00001012 	mflo	v0
  400210:	00000000 	nop
  400214:	14400002 	bnez	v0,400220 <my_sin+0x170>
  400218:	0062001a 	div	zero,v1,v0
  40021c:	0007000d 	break	0x7
  400220:	00001810 	mfhi	v1
  400224:	00001012 	mflo	v0
  400228:	afa20010 	sw	v0,16(sp)
  40022c:	8fa30014 	lw	v1,20(sp)
  400230:	8fa20010 	lw	v0,16(sp)
  400234:	00000000 	nop
  400238:	00621021 	addu	v0,v1,v0
  40023c:	afa20014 	sw	v0,20(sp)
  400240:	8fa20018 	lw	v0,24(sp)
  400244:	00000000 	nop
  400248:	24420001 	addiu	v0,v0,1
  40024c:	afa20018 	sw	v0,24(sp)
  400250:	8fa40010 	lw	a0,16(sp)
  400254:	0c100019 	jal	400064 <my_fabs>
  400258:	00000000 	nop
  40025c:	1c40ffd9 	bgtz	v0,4001c4 <my_sin+0x114>
  400260:	00000000 	nop
  400264:	8fa20014 	lw	v0,20(sp)
  400268:	8fbf0024 	lw	ra,36(sp)
  40026c:	27bd0028 	addiu	sp,sp,40
  400270:	03e00008 	jr	ra
  400274:	00000000 	nop

00400278 <my_cos>:
  400278:	27bdffe8 	addiu	sp,sp,-24
  40027c:	afbf0014 	sw	ra,20(sp)
  400280:	afa40018 	sw	a0,24(sp)
  400284:	24030622 	li	v1,1570
  400288:	8fa20018 	lw	v0,24(sp)
  40028c:	00000000 	nop
  400290:	00621023 	subu	v0,v1,v0
  400294:	00402021 	move	a0,v0
  400298:	0c10002c 	jal	4000b0 <my_sin>
  40029c:	00000000 	nop
  4002a0:	8fbf0014 	lw	ra,20(sp)
  4002a4:	27bd0018 	addiu	sp,sp,24
  4002a8:	03e00008 	jr	ra
  4002ac:	00000000 	nop

004002b0 <encode>:
  4002b0:	27bdffc0 	addiu	sp,sp,-64
  4002b4:	afbf003c 	sw	ra,60(sp)
  4002b8:	afa40040 	sw	a0,64(sp)
  4002bc:	afa50044 	sw	a1,68(sp)
  4002c0:	3c020040 	lui	v0,0x40
  4002c4:	24422000 	addiu	v0,v0,8192
  4002c8:	afa2001c 	sw	v0,28(sp)
  4002cc:	3c020040 	lui	v0,0x40
  4002d0:	2442267c 	addiu	v0,v0,9852
  4002d4:	afa20020 	sw	v0,32(sp)
  4002d8:	8fa20020 	lw	v0,32(sp)
  4002dc:	00000000 	nop
  4002e0:	8c430000 	lw	v1,0(v0)
  4002e4:	8fa2001c 	lw	v0,28(sp)
  4002e8:	00000000 	nop
  4002ec:	8c420000 	lw	v0,0(v0)
  4002f0:	00000000 	nop
  4002f4:	00620018 	mult	v1,v0
  4002f8:	00001012 	mflo	v0
  4002fc:	afa20028 	sw	v0,40(sp)
  400300:	8fa20020 	lw	v0,32(sp)
  400304:	00000000 	nop
  400308:	24420004 	addiu	v0,v0,4
  40030c:	afa20020 	sw	v0,32(sp)
  400310:	8fa2001c 	lw	v0,28(sp)
  400314:	00000000 	nop
  400318:	24420004 	addiu	v0,v0,4
  40031c:	afa2001c 	sw	v0,28(sp)
  400320:	8fa20020 	lw	v0,32(sp)
  400324:	00000000 	nop
  400328:	8c430000 	lw	v1,0(v0)
  40032c:	8fa2001c 	lw	v0,28(sp)
  400330:	00000000 	nop
  400334:	8c420000 	lw	v0,0(v0)
  400338:	00000000 	nop
  40033c:	00620018 	mult	v1,v0
  400340:	00001012 	mflo	v0
  400344:	afa2002c 	sw	v0,44(sp)
  400348:	8fa20020 	lw	v0,32(sp)
  40034c:	00000000 	nop
  400350:	24420004 	addiu	v0,v0,4
  400354:	afa20020 	sw	v0,32(sp)
  400358:	8fa2001c 	lw	v0,28(sp)
  40035c:	00000000 	nop
  400360:	24420004 	addiu	v0,v0,4
  400364:	afa2001c 	sw	v0,28(sp)
  400368:	0810010a 	j	400428 <encode+0x178>
  40036c:	afa00018 	sw	zero,24(sp)
  400370:	8fa20020 	lw	v0,32(sp)
  400374:	00000000 	nop
  400378:	8c430000 	lw	v1,0(v0)
  40037c:	8fa2001c 	lw	v0,28(sp)
  400380:	00000000 	nop
  400384:	8c420000 	lw	v0,0(v0)
  400388:	00000000 	nop
  40038c:	00620018 	mult	v1,v0
  400390:	00001012 	mflo	v0
  400394:	8fa30028 	lw	v1,40(sp)
  400398:	00000000 	nop
  40039c:	00621021 	addu	v0,v1,v0
  4003a0:	afa20028 	sw	v0,40(sp)
  4003a4:	8fa20020 	lw	v0,32(sp)
  4003a8:	00000000 	nop
  4003ac:	24420004 	addiu	v0,v0,4
  4003b0:	afa20020 	sw	v0,32(sp)
  4003b4:	8fa2001c 	lw	v0,28(sp)
  4003b8:	00000000 	nop
  4003bc:	24420004 	addiu	v0,v0,4
  4003c0:	afa2001c 	sw	v0,28(sp)
  4003c4:	8fa20020 	lw	v0,32(sp)
  4003c8:	00000000 	nop
  4003cc:	8c430000 	lw	v1,0(v0)
  4003d0:	8fa2001c 	lw	v0,28(sp)
  4003d4:	00000000 	nop
  4003d8:	8c420000 	lw	v0,0(v0)
  4003dc:	00000000 	nop
  4003e0:	00620018 	mult	v1,v0
  4003e4:	00001012 	mflo	v0
  4003e8:	8fa3002c 	lw	v1,44(sp)
  4003ec:	00000000 	nop
  4003f0:	00621021 	addu	v0,v1,v0
  4003f4:	afa2002c 	sw	v0,44(sp)
  4003f8:	8fa20020 	lw	v0,32(sp)
  4003fc:	00000000 	nop
  400400:	24420004 	addiu	v0,v0,4
  400404:	afa20020 	sw	v0,32(sp)
  400408:	8fa2001c 	lw	v0,28(sp)
  40040c:	00000000 	nop
  400410:	24420004 	addiu	v0,v0,4
  400414:	afa2001c 	sw	v0,28(sp)
  400418:	8fa20018 	lw	v0,24(sp)
  40041c:	00000000 	nop
  400420:	24420001 	addiu	v0,v0,1
  400424:	afa20018 	sw	v0,24(sp)
  400428:	8fa20018 	lw	v0,24(sp)
  40042c:	00000000 	nop
  400430:	2842000a 	slti	v0,v0,10
  400434:	1440ffce 	bnez	v0,400370 <encode+0xc0>
  400438:	00000000 	nop
  40043c:	8fa20020 	lw	v0,32(sp)
  400440:	00000000 	nop
  400444:	8c430000 	lw	v1,0(v0)
  400448:	8fa2001c 	lw	v0,28(sp)
  40044c:	00000000 	nop
  400450:	8c420000 	lw	v0,0(v0)
  400454:	00000000 	nop
  400458:	00620018 	mult	v1,v0
  40045c:	00001012 	mflo	v0
  400460:	8fa30028 	lw	v1,40(sp)
  400464:	00000000 	nop
  400468:	00621021 	addu	v0,v1,v0
  40046c:	afa20028 	sw	v0,40(sp)
  400470:	8fa20020 	lw	v0,32(sp)
  400474:	00000000 	nop
  400478:	24420004 	addiu	v0,v0,4
  40047c:	afa20020 	sw	v0,32(sp)
  400480:	8fa2001c 	lw	v0,28(sp)
  400484:	00000000 	nop
  400488:	24420004 	addiu	v0,v0,4
  40048c:	afa2001c 	sw	v0,28(sp)
  400490:	8fa20020 	lw	v0,32(sp)
  400494:	00000000 	nop
  400498:	8c430000 	lw	v1,0(v0)
  40049c:	8fa2001c 	lw	v0,28(sp)
  4004a0:	00000000 	nop
  4004a4:	8c420000 	lw	v0,0(v0)
  4004a8:	00000000 	nop
  4004ac:	00620018 	mult	v1,v0
  4004b0:	00001012 	mflo	v0
  4004b4:	8fa3002c 	lw	v1,44(sp)
  4004b8:	00000000 	nop
  4004bc:	00621021 	addu	v0,v1,v0
  4004c0:	afa2002c 	sw	v0,44(sp)
  4004c4:	8fa2001c 	lw	v0,28(sp)
  4004c8:	00000000 	nop
  4004cc:	24420004 	addiu	v0,v0,4
  4004d0:	afa2001c 	sw	v0,28(sp)
  4004d4:	8fa20020 	lw	v0,32(sp)
  4004d8:	00000000 	nop
  4004dc:	2442fff8 	addiu	v0,v0,-8
  4004e0:	afa20024 	sw	v0,36(sp)
  4004e4:	0810014d 	j	400534 <encode+0x284>
  4004e8:	afa00018 	sw	zero,24(sp)
  4004ec:	8fa20024 	lw	v0,36(sp)
  4004f0:	00000000 	nop
  4004f4:	8c430000 	lw	v1,0(v0)
  4004f8:	8fa20020 	lw	v0,32(sp)
  4004fc:	00000000 	nop
  400500:	ac430000 	sw	v1,0(v0)
  400504:	8fa20020 	lw	v0,32(sp)
  400508:	00000000 	nop
  40050c:	2442fffc 	addiu	v0,v0,-4
  400510:	afa20020 	sw	v0,32(sp)
  400514:	8fa20024 	lw	v0,36(sp)
  400518:	00000000 	nop
  40051c:	2442fffc 	addiu	v0,v0,-4
  400520:	afa20024 	sw	v0,36(sp)
  400524:	8fa20018 	lw	v0,24(sp)
  400528:	00000000 	nop
  40052c:	24420001 	addiu	v0,v0,1
  400530:	afa20018 	sw	v0,24(sp)
  400534:	8fa20018 	lw	v0,24(sp)
  400538:	00000000 	nop
  40053c:	28420016 	slti	v0,v0,22
  400540:	1440ffea 	bnez	v0,4004ec <encode+0x23c>
  400544:	00000000 	nop
  400548:	8fa20020 	lw	v0,32(sp)
  40054c:	8fa30040 	lw	v1,64(sp)
  400550:	00000000 	nop
  400554:	ac430000 	sw	v1,0(v0)
  400558:	8fa20020 	lw	v0,32(sp)
  40055c:	00000000 	nop
  400560:	2442fffc 	addiu	v0,v0,-4
  400564:	afa20020 	sw	v0,32(sp)
  400568:	8fa20020 	lw	v0,32(sp)
  40056c:	8fa30044 	lw	v1,68(sp)
  400570:	00000000 	nop
  400574:	ac430000 	sw	v1,0(v0)
  400578:	8fa30028 	lw	v1,40(sp)
  40057c:	8fa2002c 	lw	v0,44(sp)
  400580:	00000000 	nop
  400584:	00621021 	addu	v0,v1,v0
  400588:	000213c3 	sra	v0,v0,0xf
  40058c:	af828118 	sw	v0,-32488(gp)
  400590:	8fa30028 	lw	v1,40(sp)
  400594:	8fa2002c 	lw	v0,44(sp)
  400598:	00000000 	nop
  40059c:	00621023 	subu	v0,v1,v0
  4005a0:	000213c3 	sra	v0,v0,0xf
  4005a4:	af828090 	sw	v0,-32624(gp)
  4005a8:	3c020040 	lui	v0,0x40
  4005ac:	24442720 	addiu	a0,v0,10016
  4005b0:	3c020040 	lui	v0,0x40
  4005b4:	0c1004d2 	jal	401348 <filtez>
  4005b8:	244525f0 	addiu	a1,v0,9712
  4005bc:	af82806c 	sw	v0,-32660(gp)
  4005c0:	8f848110 	lw	a0,-32496(gp)
  4005c4:	8f858128 	lw	a1,-32472(gp)
  4005c8:	8f8380a0 	lw	v1,-32608(gp)
  4005cc:	8f828100 	lw	v0,-32512(gp)
  4005d0:	00603021 	move	a2,v1
  4005d4:	0c10050d 	jal	401434 <filtep>
  4005d8:	00403821 	move	a3,v0
  4005dc:	af82801c 	sw	v0,-32740(gp)
  4005e0:	8f83806c 	lw	v1,-32660(gp)
  4005e4:	8f82801c 	lw	v0,-32740(gp)
  4005e8:	00000000 	nop
  4005ec:	00621021 	addu	v0,v1,v0
  4005f0:	af828060 	sw	v0,-32672(gp)
  4005f4:	8f838118 	lw	v1,-32488(gp)
  4005f8:	8f828060 	lw	v0,-32672(gp)
  4005fc:	00000000 	nop
  400600:	00621023 	subu	v0,v1,v0
  400604:	af8280b8 	sw	v0,-32584(gp)
  400608:	8f8380b8 	lw	v1,-32584(gp)
  40060c:	8f82804c 	lw	v0,-32692(gp)
  400610:	00602021 	move	a0,v1
  400614:	0c10052f 	jal	4014bc <quantl>
  400618:	00402821 	move	a1,v0
  40061c:	af8280b0 	sw	v0,-32592(gp)
  400620:	8f8280b0 	lw	v0,-32592(gp)
  400624:	00000000 	nop
  400628:	00021883 	sra	v1,v0,0x2
  40062c:	3c020040 	lui	v0,0x40
  400630:	00031880 	sll	v1,v1,0x2
  400634:	24422060 	addiu	v0,v0,8288
  400638:	00621021 	addu	v0,v1,v0
  40063c:	8c430000 	lw	v1,0(v0)
  400640:	8f82804c 	lw	v0,-32692(gp)
  400644:	00000000 	nop
  400648:	00620018 	mult	v1,v0
  40064c:	00001012 	mflo	v0
  400650:	000213c3 	sra	v0,v0,0xf
  400654:	af8280d0 	sw	v0,-32560(gp)
  400658:	8f8380b0 	lw	v1,-32592(gp)
  40065c:	8f828030 	lw	v0,-32720(gp)
  400660:	00602021 	move	a0,v1
  400664:	0c100574 	jal	4015d0 <logscl>
  400668:	00402821 	move	a1,v0
  40066c:	af828030 	sw	v0,-32720(gp)
  400670:	8f828030 	lw	v0,-32720(gp)
  400674:	00000000 	nop
  400678:	00402021 	move	a0,v0
  40067c:	0c10059a 	jal	401668 <scalel>
  400680:	24050008 	li	a1,8
  400684:	af82804c 	sw	v0,-32692(gp)
  400688:	8f8380d0 	lw	v1,-32560(gp)
  40068c:	8f82806c 	lw	v0,-32660(gp)
  400690:	00000000 	nop
  400694:	00621021 	addu	v0,v1,v0
  400698:	af82811c 	sw	v0,-32484(gp)
  40069c:	8f8280d0 	lw	v0,-32560(gp)
  4006a0:	00000000 	nop
  4006a4:	00402021 	move	a0,v0
  4006a8:	3c020040 	lui	v0,0x40
  4006ac:	244525f0 	addiu	a1,v0,9712
  4006b0:	3c020040 	lui	v0,0x40
  4006b4:	0c1005bb 	jal	4016ec <upzero>
  4006b8:	24462720 	addiu	a2,v0,10016
  4006bc:	8f848128 	lw	a0,-32472(gp)
  4006c0:	8f858100 	lw	a1,-32512(gp)
  4006c4:	8f83811c 	lw	v1,-32484(gp)
  4006c8:	8f8280f4 	lw	v0,-32524(gp)
  4006cc:	8f8680e8 	lw	a2,-32536(gp)
  4006d0:	00000000 	nop
  4006d4:	afa60010 	sw	a2,16(sp)
  4006d8:	00603021 	move	a2,v1
  4006dc:	0c100640 	jal	401900 <uppol2>
  4006e0:	00403821 	move	a3,v0
  4006e4:	af828100 	sw	v0,-32512(gp)
  4006e8:	8f848128 	lw	a0,-32472(gp)
  4006ec:	8f858100 	lw	a1,-32512(gp)
  4006f0:	8f83811c 	lw	v1,-32484(gp)
  4006f4:	8f8280f4 	lw	v0,-32524(gp)
  4006f8:	00603021 	move	a2,v1
  4006fc:	0c100685 	jal	401a14 <uppol1>
  400700:	00403821 	move	a3,v0
  400704:	af828128 	sw	v0,-32472(gp)
  400708:	8f838060 	lw	v1,-32672(gp)
  40070c:	8f8280d0 	lw	v0,-32560(gp)
  400710:	00000000 	nop
  400714:	00621021 	addu	v0,v1,v0
  400718:	af82805c 	sw	v0,-32676(gp)
  40071c:	8f828110 	lw	v0,-32496(gp)
  400720:	00000000 	nop
  400724:	af8280a0 	sw	v0,-32608(gp)
  400728:	8f82805c 	lw	v0,-32676(gp)
  40072c:	00000000 	nop
  400730:	af828110 	sw	v0,-32496(gp)
  400734:	8f8280f4 	lw	v0,-32524(gp)
  400738:	00000000 	nop
  40073c:	af8280e8 	sw	v0,-32536(gp)
  400740:	8f82811c 	lw	v0,-32484(gp)
  400744:	00000000 	nop
  400748:	af8280f4 	sw	v0,-32524(gp)
  40074c:	3c020040 	lui	v0,0x40
  400750:	24442750 	addiu	a0,v0,10064
  400754:	3c020040 	lui	v0,0x40
  400758:	0c1004d2 	jal	401348 <filtez>
  40075c:	24452664 	addiu	a1,v0,9828
  400760:	af828020 	sw	v0,-32736(gp)
  400764:	8f8480dc 	lw	a0,-32548(gp)
  400768:	8f858058 	lw	a1,-32680(gp)
  40076c:	8f838018 	lw	v1,-32744(gp)
  400770:	8f8280ac 	lw	v0,-32596(gp)
  400774:	00603021 	move	a2,v1
  400778:	0c10050d 	jal	401434 <filtep>
  40077c:	00403821 	move	a3,v0
  400780:	af8280cc 	sw	v0,-32564(gp)
  400784:	8f8380cc 	lw	v1,-32564(gp)
  400788:	8f828020 	lw	v0,-32736(gp)
  40078c:	00000000 	nop
  400790:	00621021 	addu	v0,v1,v0
  400794:	af828048 	sw	v0,-32696(gp)
  400798:	8f838090 	lw	v1,-32624(gp)
  40079c:	8f828048 	lw	v0,-32696(gp)
  4007a0:	00000000 	nop
  4007a4:	00621023 	subu	v0,v1,v0
  4007a8:	af828050 	sw	v0,-32688(gp)
  4007ac:	8f828050 	lw	v0,-32688(gp)
  4007b0:	00000000 	nop
  4007b4:	04400004 	bltz	v0,4007c8 <encode+0x518>
  4007b8:	00000000 	nop
  4007bc:	24020003 	li	v0,3
  4007c0:	081001f4 	j	4007d0 <encode+0x520>
  4007c4:	af828028 	sw	v0,-32728(gp)
  4007c8:	24020001 	li	v0,1
  4007cc:	af828028 	sw	v0,-32728(gp)
  4007d0:	8f848084 	lw	a0,-32636(gp)
  4007d4:	00000000 	nop
  4007d8:	00801821 	move	v1,a0
  4007dc:	00031080 	sll	v0,v1,0x2
  4007e0:	00401821 	move	v1,v0
  4007e4:	00031080 	sll	v0,v1,0x2
  4007e8:	00621821 	addu	v1,v1,v0
  4007ec:	000310c0 	sll	v0,v1,0x3
  4007f0:	00431023 	subu	v0,v0,v1
  4007f4:	00441021 	addu	v0,v0,a0
  4007f8:	00021080 	sll	v0,v0,0x2
  4007fc:	00021303 	sra	v0,v0,0xc
  400800:	afa20030 	sw	v0,48(sp)
  400804:	8f828050 	lw	v0,-32688(gp)
  400808:	00000000 	nop
  40080c:	0c100006 	jal	400018 <my_abs>
  400810:	00402021 	move	a0,v0
  400814:	00401821 	move	v1,v0
  400818:	8fa20030 	lw	v0,48(sp)
  40081c:	00000000 	nop
  400820:	0043102a 	slt	v0,v0,v1
  400824:	10400005 	beqz	v0,40083c <encode+0x58c>
  400828:	00000000 	nop
  40082c:	8f828028 	lw	v0,-32728(gp)
  400830:	00000000 	nop
  400834:	2442ffff 	addiu	v0,v0,-1
  400838:	af828028 	sw	v0,-32728(gp)
  40083c:	8f838028 	lw	v1,-32728(gp)
  400840:	3c020040 	lui	v0,0x40
  400844:	00031880 	sll	v1,v1,0x2
  400848:	24422470 	addiu	v0,v0,9328
  40084c:	00621021 	addu	v0,v1,v0
  400850:	8c430000 	lw	v1,0(v0)
  400854:	8f828084 	lw	v0,-32636(gp)
  400858:	00000000 	nop
  40085c:	00620018 	mult	v1,v0
  400860:	00001012 	mflo	v0
  400864:	000213c3 	sra	v0,v0,0xf
  400868:	af828040 	sw	v0,-32704(gp)
  40086c:	8f838028 	lw	v1,-32728(gp)
  400870:	8f82810c 	lw	v0,-32500(gp)
  400874:	00602021 	move	a0,v1
  400878:	0c1006c0 	jal	401b00 <logsch>
  40087c:	00402821 	move	a1,v0
  400880:	af82810c 	sw	v0,-32500(gp)
  400884:	8f82810c 	lw	v0,-32500(gp)
  400888:	00000000 	nop
  40088c:	00402021 	move	a0,v0
  400890:	0c10059a 	jal	401668 <scalel>
  400894:	2405000a 	li	a1,10
  400898:	af828084 	sw	v0,-32636(gp)
  40089c:	8f838040 	lw	v1,-32704(gp)
  4008a0:	8f828020 	lw	v0,-32736(gp)
  4008a4:	00000000 	nop
  4008a8:	00621021 	addu	v0,v1,v0
  4008ac:	af82803c 	sw	v0,-32708(gp)
  4008b0:	8f828040 	lw	v0,-32704(gp)
  4008b4:	00000000 	nop
  4008b8:	00402021 	move	a0,v0
  4008bc:	3c020040 	lui	v0,0x40
  4008c0:	24452664 	addiu	a1,v0,9828
  4008c4:	3c020040 	lui	v0,0x40
  4008c8:	0c1005bb 	jal	4016ec <upzero>
  4008cc:	24462750 	addiu	a2,v0,10064
  4008d0:	8f848058 	lw	a0,-32680(gp)
  4008d4:	8f8580ac 	lw	a1,-32596(gp)
  4008d8:	8f83803c 	lw	v1,-32708(gp)
  4008dc:	8f8280d8 	lw	v0,-32552(gp)
  4008e0:	8f8680a4 	lw	a2,-32604(gp)
  4008e4:	00000000 	nop
  4008e8:	afa60010 	sw	a2,16(sp)
  4008ec:	00603021 	move	a2,v1
  4008f0:	0c100640 	jal	401900 <uppol2>
  4008f4:	00403821 	move	a3,v0
  4008f8:	af8280ac 	sw	v0,-32596(gp)
  4008fc:	8f848058 	lw	a0,-32680(gp)
  400900:	8f8580ac 	lw	a1,-32596(gp)
  400904:	8f83803c 	lw	v1,-32708(gp)
  400908:	8f8280d8 	lw	v0,-32552(gp)
  40090c:	00603021 	move	a2,v1
  400910:	0c100685 	jal	401a14 <uppol1>
  400914:	00403821 	move	a3,v0
  400918:	af828058 	sw	v0,-32680(gp)
  40091c:	8f838048 	lw	v1,-32696(gp)
  400920:	8f828040 	lw	v0,-32704(gp)
  400924:	00000000 	nop
  400928:	00621021 	addu	v0,v1,v0
  40092c:	af828054 	sw	v0,-32684(gp)
  400930:	8f8280dc 	lw	v0,-32548(gp)
  400934:	00000000 	nop
  400938:	af828018 	sw	v0,-32744(gp)
  40093c:	8f828054 	lw	v0,-32684(gp)
  400940:	00000000 	nop
  400944:	af8280dc 	sw	v0,-32548(gp)
  400948:	8f8280d8 	lw	v0,-32552(gp)
  40094c:	00000000 	nop
  400950:	af8280a4 	sw	v0,-32604(gp)
  400954:	8f82803c 	lw	v0,-32708(gp)
  400958:	00000000 	nop
  40095c:	af8280d8 	sw	v0,-32552(gp)
  400960:	8f828028 	lw	v0,-32728(gp)
  400964:	00000000 	nop
  400968:	00021980 	sll	v1,v0,0x6
  40096c:	8f8280b0 	lw	v0,-32592(gp)
  400970:	00000000 	nop
  400974:	00621025 	or	v0,v1,v0
  400978:	8fbf003c 	lw	ra,60(sp)
  40097c:	27bd0040 	addiu	sp,sp,64
  400980:	03e00008 	jr	ra
  400984:	00000000 	nop

00400988 <decode>:
  400988:	27bdffc0 	addiu	sp,sp,-64
  40098c:	afbf003c 	sw	ra,60(sp)
  400990:	afa40040 	sw	a0,64(sp)
  400994:	8fa20040 	lw	v0,64(sp)
  400998:	00000000 	nop
  40099c:	3042003f 	andi	v0,v0,0x3f
  4009a0:	af8280b4 	sw	v0,-32588(gp)
  4009a4:	8fa20040 	lw	v0,64(sp)
  4009a8:	00000000 	nop
  4009ac:	00021183 	sra	v0,v0,0x6
  4009b0:	af828028 	sw	v0,-32728(gp)
  4009b4:	3c020040 	lui	v0,0x40
  4009b8:	24442738 	addiu	a0,v0,10040
  4009bc:	3c020040 	lui	v0,0x40
  4009c0:	0c1004d2 	jal	401348 <filtez>
  4009c4:	24452608 	addiu	a1,v0,9736
  4009c8:	af828078 	sw	v0,-32648(gp)
  4009cc:	8f84808c 	lw	a0,-32628(gp)
  4009d0:	8f858114 	lw	a1,-32492(gp)
  4009d4:	8f838088 	lw	v1,-32632(gp)
  4009d8:	8f8280f0 	lw	v0,-32528(gp)
  4009dc:	00603021 	move	a2,v1
  4009e0:	0c10050d 	jal	401434 <filtep>
  4009e4:	00403821 	move	a3,v0
  4009e8:	af8280bc 	sw	v0,-32580(gp)
  4009ec:	8f8380bc 	lw	v1,-32580(gp)
  4009f0:	8f828078 	lw	v0,-32648(gp)
  4009f4:	00000000 	nop
  4009f8:	00621021 	addu	v0,v1,v0
  4009fc:	af828094 	sw	v0,-32620(gp)
  400a00:	8f8280b4 	lw	v0,-32588(gp)
  400a04:	00000000 	nop
  400a08:	00021883 	sra	v1,v0,0x2
  400a0c:	3c020040 	lui	v0,0x40
  400a10:	00031880 	sll	v1,v1,0x2
  400a14:	24422060 	addiu	v0,v0,8288
  400a18:	00621021 	addu	v0,v1,v0
  400a1c:	8c430000 	lw	v1,0(v0)
  400a20:	8f8280ec 	lw	v0,-32532(gp)
  400a24:	00000000 	nop
  400a28:	00620018 	mult	v1,v0
  400a2c:	00001012 	mflo	v0
  400a30:	000213c3 	sra	v0,v0,0xf
  400a34:	af8280a8 	sw	v0,-32600(gp)
  400a38:	8f8380b0 	lw	v1,-32592(gp)
  400a3c:	3c020040 	lui	v0,0x40
  400a40:	00031880 	sll	v1,v1,0x2
  400a44:	24422120 	addiu	v0,v0,8480
  400a48:	00621021 	addu	v0,v1,v0
  400a4c:	8c430000 	lw	v1,0(v0)
  400a50:	8f8280ec 	lw	v0,-32532(gp)
  400a54:	00000000 	nop
  400a58:	00620018 	mult	v1,v0
  400a5c:	00001012 	mflo	v0
  400a60:	000213c3 	sra	v0,v0,0xf
  400a64:	af8280d4 	sw	v0,-32556(gp)
  400a68:	8f8380d4 	lw	v1,-32556(gp)
  400a6c:	8f828094 	lw	v0,-32620(gp)
  400a70:	00000000 	nop
  400a74:	00621021 	addu	v0,v1,v0
  400a78:	af828010 	sw	v0,-32752(gp)
  400a7c:	8f8380b4 	lw	v1,-32588(gp)
  400a80:	8f8280c4 	lw	v0,-32572(gp)
  400a84:	00602021 	move	a0,v1
  400a88:	0c100574 	jal	4015d0 <logscl>
  400a8c:	00402821 	move	a1,v0
  400a90:	af8280c4 	sw	v0,-32572(gp)
  400a94:	8f8280c4 	lw	v0,-32572(gp)
  400a98:	00000000 	nop
  400a9c:	00402021 	move	a0,v0
  400aa0:	0c10059a 	jal	401668 <scalel>
  400aa4:	24050008 	li	a1,8
  400aa8:	af8280ec 	sw	v0,-32532(gp)
  400aac:	8f8380a8 	lw	v1,-32600(gp)
  400ab0:	8f828078 	lw	v0,-32648(gp)
  400ab4:	00000000 	nop
  400ab8:	00621021 	addu	v0,v1,v0
  400abc:	af8280f8 	sw	v0,-32520(gp)
  400ac0:	8f8280a8 	lw	v0,-32600(gp)
  400ac4:	00000000 	nop
  400ac8:	00402021 	move	a0,v0
  400acc:	3c020040 	lui	v0,0x40
  400ad0:	24452608 	addiu	a1,v0,9736
  400ad4:	3c020040 	lui	v0,0x40
  400ad8:	0c1005bb 	jal	4016ec <upzero>
  400adc:	24462738 	addiu	a2,v0,10040
  400ae0:	8f848114 	lw	a0,-32492(gp)
  400ae4:	8f8580f0 	lw	a1,-32528(gp)
  400ae8:	8f8380f8 	lw	v1,-32520(gp)
  400aec:	8f82802c 	lw	v0,-32724(gp)
  400af0:	8f868014 	lw	a2,-32748(gp)
  400af4:	00000000 	nop
  400af8:	afa60010 	sw	a2,16(sp)
  400afc:	00603021 	move	a2,v1
  400b00:	0c100640 	jal	401900 <uppol2>
  400b04:	00403821 	move	a3,v0
  400b08:	af8280f0 	sw	v0,-32528(gp)
  400b0c:	8f848114 	lw	a0,-32492(gp)
  400b10:	8f8580f0 	lw	a1,-32528(gp)
  400b14:	8f8380f8 	lw	v1,-32520(gp)
  400b18:	8f82802c 	lw	v0,-32724(gp)
  400b1c:	00603021 	move	a2,v1
  400b20:	0c100685 	jal	401a14 <uppol1>
  400b24:	00403821 	move	a3,v0
  400b28:	af828114 	sw	v0,-32492(gp)
  400b2c:	8f838094 	lw	v1,-32620(gp)
  400b30:	8f8280a8 	lw	v0,-32600(gp)
  400b34:	00000000 	nop
  400b38:	00621021 	addu	v0,v1,v0
  400b3c:	af828024 	sw	v0,-32732(gp)
  400b40:	8f82808c 	lw	v0,-32628(gp)
  400b44:	00000000 	nop
  400b48:	af828088 	sw	v0,-32632(gp)
  400b4c:	8f828024 	lw	v0,-32732(gp)
  400b50:	00000000 	nop
  400b54:	af82808c 	sw	v0,-32628(gp)
  400b58:	8f82802c 	lw	v0,-32724(gp)
  400b5c:	00000000 	nop
  400b60:	af828014 	sw	v0,-32748(gp)
  400b64:	8f8280f8 	lw	v0,-32520(gp)
  400b68:	00000000 	nop
  400b6c:	af82802c 	sw	v0,-32724(gp)
  400b70:	3c020040 	lui	v0,0x40
  400b74:	244426dc 	addiu	a0,v0,9948
  400b78:	3c020040 	lui	v0,0x40
  400b7c:	0c1004d2 	jal	401348 <filtez>
  400b80:	2445264c 	addiu	a1,v0,9804
  400b84:	af8280c0 	sw	v0,-32576(gp)
  400b88:	8f848104 	lw	a0,-32508(gp)
  400b8c:	8f858074 	lw	a1,-32652(gp)
  400b90:	8f8380fc 	lw	v1,-32516(gp)
  400b94:	8f828120 	lw	v0,-32480(gp)
  400b98:	00603021 	move	a2,v1
  400b9c:	0c10050d 	jal	401434 <filtep>
  400ba0:	00403821 	move	a3,v0
  400ba4:	af828044 	sw	v0,-32700(gp)
  400ba8:	8f838044 	lw	v1,-32700(gp)
  400bac:	8f8280c0 	lw	v0,-32576(gp)
  400bb0:	00000000 	nop
  400bb4:	00621021 	addu	v0,v1,v0
  400bb8:	af8280e0 	sw	v0,-32544(gp)
  400bbc:	8f838028 	lw	v1,-32728(gp)
  400bc0:	3c020040 	lui	v0,0x40
  400bc4:	00031880 	sll	v1,v1,0x2
  400bc8:	24422470 	addiu	v0,v0,9328
  400bcc:	00621021 	addu	v0,v1,v0
  400bd0:	8c430000 	lw	v1,0(v0)
  400bd4:	8f82809c 	lw	v0,-32612(gp)
  400bd8:	00000000 	nop
  400bdc:	00620018 	mult	v1,v0
  400be0:	00001012 	mflo	v0
  400be4:	000213c3 	sra	v0,v0,0xf
  400be8:	af82807c 	sw	v0,-32644(gp)
  400bec:	8f838028 	lw	v1,-32728(gp)
  400bf0:	8f828034 	lw	v0,-32716(gp)
  400bf4:	00602021 	move	a0,v1
  400bf8:	0c1006c0 	jal	401b00 <logsch>
  400bfc:	00402821 	move	a1,v0
  400c00:	af828034 	sw	v0,-32716(gp)
  400c04:	8f828034 	lw	v0,-32716(gp)
  400c08:	00000000 	nop
  400c0c:	00402021 	move	a0,v0
  400c10:	0c10059a 	jal	401668 <scalel>
  400c14:	2405000a 	li	a1,10
  400c18:	af82809c 	sw	v0,-32612(gp)
  400c1c:	8f83807c 	lw	v1,-32644(gp)
  400c20:	8f8280c0 	lw	v0,-32576(gp)
  400c24:	00000000 	nop
  400c28:	00621021 	addu	v0,v1,v0
  400c2c:	af8280c8 	sw	v0,-32568(gp)
  400c30:	8f82807c 	lw	v0,-32644(gp)
  400c34:	00000000 	nop
  400c38:	00402021 	move	a0,v0
  400c3c:	3c020040 	lui	v0,0x40
  400c40:	2445264c 	addiu	a1,v0,9804
  400c44:	3c020040 	lui	v0,0x40
  400c48:	0c1005bb 	jal	4016ec <upzero>
  400c4c:	244626dc 	addiu	a2,v0,9948
  400c50:	8f848074 	lw	a0,-32652(gp)
  400c54:	8f858120 	lw	a1,-32480(gp)
  400c58:	8f8380c8 	lw	v1,-32568(gp)
  400c5c:	8f828038 	lw	v0,-32712(gp)
  400c60:	8f868070 	lw	a2,-32656(gp)
  400c64:	00000000 	nop
  400c68:	afa60010 	sw	a2,16(sp)
  400c6c:	00603021 	move	a2,v1
  400c70:	0c100640 	jal	401900 <uppol2>
  400c74:	00403821 	move	a3,v0
  400c78:	af828120 	sw	v0,-32480(gp)
  400c7c:	8f848074 	lw	a0,-32652(gp)
  400c80:	8f858120 	lw	a1,-32480(gp)
  400c84:	8f8380c8 	lw	v1,-32568(gp)
  400c88:	8f828038 	lw	v0,-32712(gp)
  400c8c:	00603021 	move	a2,v1
  400c90:	0c100685 	jal	401a14 <uppol1>
  400c94:	00403821 	move	a3,v0
  400c98:	af828074 	sw	v0,-32652(gp)
  400c9c:	8f8380e0 	lw	v1,-32544(gp)
  400ca0:	8f82807c 	lw	v0,-32644(gp)
  400ca4:	00000000 	nop
  400ca8:	00621021 	addu	v0,v1,v0
  400cac:	af828080 	sw	v0,-32640(gp)
  400cb0:	8f828104 	lw	v0,-32508(gp)
  400cb4:	00000000 	nop
  400cb8:	af8280fc 	sw	v0,-32516(gp)
  400cbc:	8f828080 	lw	v0,-32640(gp)
  400cc0:	00000000 	nop
  400cc4:	af828104 	sw	v0,-32508(gp)
  400cc8:	8f828038 	lw	v0,-32712(gp)
  400ccc:	00000000 	nop
  400cd0:	af828070 	sw	v0,-32656(gp)
  400cd4:	8f8280c8 	lw	v0,-32568(gp)
  400cd8:	00000000 	nop
  400cdc:	af828038 	sw	v0,-32712(gp)
  400ce0:	8f838010 	lw	v1,-32752(gp)
  400ce4:	8f828080 	lw	v0,-32640(gp)
  400ce8:	00000000 	nop
  400cec:	00621023 	subu	v0,v1,v0
  400cf0:	af8280e4 	sw	v0,-32540(gp)
  400cf4:	8f838010 	lw	v1,-32752(gp)
  400cf8:	8f828080 	lw	v0,-32640(gp)
  400cfc:	00000000 	nop
  400d00:	00621021 	addu	v0,v1,v0
  400d04:	af828124 	sw	v0,-32476(gp)
  400d08:	3c020040 	lui	v0,0x40
  400d0c:	24422000 	addiu	v0,v0,8192
  400d10:	afa20024 	sw	v0,36(sp)
  400d14:	3c020040 	lui	v0,0x40
  400d18:	244226f4 	addiu	v0,v0,9972
  400d1c:	afa20028 	sw	v0,40(sp)
  400d20:	3c020040 	lui	v0,0x40
  400d24:	24422620 	addiu	v0,v0,9760
  400d28:	afa20030 	sw	v0,48(sp)
  400d2c:	8fa20024 	lw	v0,36(sp)
  400d30:	00000000 	nop
  400d34:	8c430000 	lw	v1,0(v0)
  400d38:	8f8280e4 	lw	v0,-32540(gp)
  400d3c:	00000000 	nop
  400d40:	00620018 	mult	v1,v0
  400d44:	00001012 	mflo	v0
  400d48:	afa2001c 	sw	v0,28(sp)
  400d4c:	8fa20024 	lw	v0,36(sp)
  400d50:	00000000 	nop
  400d54:	24420004 	addiu	v0,v0,4
  400d58:	afa20024 	sw	v0,36(sp)
  400d5c:	8fa20024 	lw	v0,36(sp)
  400d60:	00000000 	nop
  400d64:	8c430000 	lw	v1,0(v0)
  400d68:	8f828124 	lw	v0,-32476(gp)
  400d6c:	00000000 	nop
  400d70:	00620018 	mult	v1,v0
  400d74:	00001012 	mflo	v0
  400d78:	afa20020 	sw	v0,32(sp)
  400d7c:	8fa20024 	lw	v0,36(sp)
  400d80:	00000000 	nop
  400d84:	24420004 	addiu	v0,v0,4
  400d88:	afa20024 	sw	v0,36(sp)
  400d8c:	08100393 	j	400e4c <decode+0x4c4>
  400d90:	afa00018 	sw	zero,24(sp)
  400d94:	8fa20028 	lw	v0,40(sp)
  400d98:	00000000 	nop
  400d9c:	8c430000 	lw	v1,0(v0)
  400da0:	8fa20024 	lw	v0,36(sp)
  400da4:	00000000 	nop
  400da8:	8c420000 	lw	v0,0(v0)
  400dac:	00000000 	nop
  400db0:	00620018 	mult	v1,v0
  400db4:	00001012 	mflo	v0
  400db8:	8fa3001c 	lw	v1,28(sp)
  400dbc:	00000000 	nop
  400dc0:	00621021 	addu	v0,v1,v0
  400dc4:	afa2001c 	sw	v0,28(sp)
  400dc8:	8fa20028 	lw	v0,40(sp)
  400dcc:	00000000 	nop
  400dd0:	24420004 	addiu	v0,v0,4
  400dd4:	afa20028 	sw	v0,40(sp)
  400dd8:	8fa20024 	lw	v0,36(sp)
  400ddc:	00000000 	nop
  400de0:	24420004 	addiu	v0,v0,4
  400de4:	afa20024 	sw	v0,36(sp)
  400de8:	8fa20030 	lw	v0,48(sp)
  400dec:	00000000 	nop
  400df0:	8c430000 	lw	v1,0(v0)
  400df4:	8fa20024 	lw	v0,36(sp)
  400df8:	00000000 	nop
  400dfc:	8c420000 	lw	v0,0(v0)
  400e00:	00000000 	nop
  400e04:	00620018 	mult	v1,v0
  400e08:	00001012 	mflo	v0
  400e0c:	8fa30020 	lw	v1,32(sp)
  400e10:	00000000 	nop
  400e14:	00621021 	addu	v0,v1,v0
  400e18:	afa20020 	sw	v0,32(sp)
  400e1c:	8fa20030 	lw	v0,48(sp)
  400e20:	00000000 	nop
  400e24:	24420004 	addiu	v0,v0,4
  400e28:	afa20030 	sw	v0,48(sp)
  400e2c:	8fa20024 	lw	v0,36(sp)
  400e30:	00000000 	nop
  400e34:	24420004 	addiu	v0,v0,4
  400e38:	afa20024 	sw	v0,36(sp)
  400e3c:	8fa20018 	lw	v0,24(sp)
  400e40:	00000000 	nop
  400e44:	24420001 	addiu	v0,v0,1
  400e48:	afa20018 	sw	v0,24(sp)
  400e4c:	8fa20018 	lw	v0,24(sp)
  400e50:	00000000 	nop
  400e54:	2842000a 	slti	v0,v0,10
  400e58:	1440ffce 	bnez	v0,400d94 <decode+0x40c>
  400e5c:	00000000 	nop
  400e60:	8fa20028 	lw	v0,40(sp)
  400e64:	00000000 	nop
  400e68:	8c430000 	lw	v1,0(v0)
  400e6c:	8fa20024 	lw	v0,36(sp)
  400e70:	00000000 	nop
  400e74:	8c420000 	lw	v0,0(v0)
  400e78:	00000000 	nop
  400e7c:	00620018 	mult	v1,v0
  400e80:	00001012 	mflo	v0
  400e84:	8fa3001c 	lw	v1,28(sp)
  400e88:	00000000 	nop
  400e8c:	00621021 	addu	v0,v1,v0
  400e90:	afa2001c 	sw	v0,28(sp)
  400e94:	8fa20024 	lw	v0,36(sp)
  400e98:	00000000 	nop
  400e9c:	24420004 	addiu	v0,v0,4
  400ea0:	afa20024 	sw	v0,36(sp)
  400ea4:	8fa20030 	lw	v0,48(sp)
  400ea8:	00000000 	nop
  400eac:	8c430000 	lw	v1,0(v0)
  400eb0:	8fa20024 	lw	v0,36(sp)
  400eb4:	00000000 	nop
  400eb8:	8c420000 	lw	v0,0(v0)
  400ebc:	00000000 	nop
  400ec0:	00620018 	mult	v1,v0
  400ec4:	00001012 	mflo	v0
  400ec8:	8fa30020 	lw	v1,32(sp)
  400ecc:	00000000 	nop
  400ed0:	00621021 	addu	v0,v1,v0
  400ed4:	afa20020 	sw	v0,32(sp)
  400ed8:	8fa20024 	lw	v0,36(sp)
  400edc:	00000000 	nop
  400ee0:	24420004 	addiu	v0,v0,4
  400ee4:	afa20024 	sw	v0,36(sp)
  400ee8:	8fa2001c 	lw	v0,28(sp)
  400eec:	00000000 	nop
  400ef0:	00021383 	sra	v0,v0,0xe
  400ef4:	af828064 	sw	v0,-32668(gp)
  400ef8:	8fa20020 	lw	v0,32(sp)
  400efc:	00000000 	nop
  400f00:	00021383 	sra	v0,v0,0xe
  400f04:	af828098 	sw	v0,-32616(gp)
  400f08:	8fa20028 	lw	v0,40(sp)
  400f0c:	00000000 	nop
  400f10:	2442fffc 	addiu	v0,v0,-4
  400f14:	afa2002c 	sw	v0,44(sp)
  400f18:	8fa20030 	lw	v0,48(sp)
  400f1c:	00000000 	nop
  400f20:	2442fffc 	addiu	v0,v0,-4
  400f24:	afa20034 	sw	v0,52(sp)
  400f28:	081003ec 	j	400fb0 <decode+0x628>
  400f2c:	afa00018 	sw	zero,24(sp)
  400f30:	8fa2002c 	lw	v0,44(sp)
  400f34:	00000000 	nop
  400f38:	8c430000 	lw	v1,0(v0)
  400f3c:	8fa20028 	lw	v0,40(sp)
  400f40:	00000000 	nop
  400f44:	ac430000 	sw	v1,0(v0)
  400f48:	8fa20028 	lw	v0,40(sp)
  400f4c:	00000000 	nop
  400f50:	2442fffc 	addiu	v0,v0,-4
  400f54:	afa20028 	sw	v0,40(sp)
  400f58:	8fa2002c 	lw	v0,44(sp)
  400f5c:	00000000 	nop
  400f60:	2442fffc 	addiu	v0,v0,-4
  400f64:	afa2002c 	sw	v0,44(sp)
  400f68:	8fa20034 	lw	v0,52(sp)
  400f6c:	00000000 	nop
  400f70:	8c430000 	lw	v1,0(v0)
  400f74:	8fa20030 	lw	v0,48(sp)
  400f78:	00000000 	nop
  400f7c:	ac430000 	sw	v1,0(v0)
  400f80:	8fa20030 	lw	v0,48(sp)
  400f84:	00000000 	nop
  400f88:	2442fffc 	addiu	v0,v0,-4
  400f8c:	afa20030 	sw	v0,48(sp)
  400f90:	8fa20034 	lw	v0,52(sp)
  400f94:	00000000 	nop
  400f98:	2442fffc 	addiu	v0,v0,-4
  400f9c:	afa20034 	sw	v0,52(sp)
  400fa0:	8fa20018 	lw	v0,24(sp)
  400fa4:	00000000 	nop
  400fa8:	24420001 	addiu	v0,v0,1
  400fac:	afa20018 	sw	v0,24(sp)
  400fb0:	8fa20018 	lw	v0,24(sp)
  400fb4:	00000000 	nop
  400fb8:	2842000a 	slti	v0,v0,10
  400fbc:	1440ffdc 	bnez	v0,400f30 <decode+0x5a8>
  400fc0:	00000000 	nop
  400fc4:	8f8380e4 	lw	v1,-32540(gp)
  400fc8:	8fa20028 	lw	v0,40(sp)
  400fcc:	00000000 	nop
  400fd0:	ac430000 	sw	v1,0(v0)
  400fd4:	8f838124 	lw	v1,-32476(gp)
  400fd8:	8fa20030 	lw	v0,48(sp)
  400fdc:	00000000 	nop
  400fe0:	ac430000 	sw	v1,0(v0)
  400fe4:	00000000 	nop
  400fe8:	8fbf003c 	lw	ra,60(sp)
  400fec:	27bd0040 	addiu	sp,sp,64
  400ff0:	03e00008 	jr	ra
  400ff4:	00000000 	nop

00400ff8 <reset>:
  400ff8:	27bdfff8 	addiu	sp,sp,-8
  400ffc:	24020020 	li	v0,32
  401000:	af8280ec 	sw	v0,-32532(gp)
  401004:	8f8280ec 	lw	v0,-32532(gp)
  401008:	00000000 	nop
  40100c:	af82804c 	sw	v0,-32692(gp)
  401010:	24020008 	li	v0,8
  401014:	af82809c 	sw	v0,-32612(gp)
  401018:	8f82809c 	lw	v0,-32612(gp)
  40101c:	00000000 	nop
  401020:	af828084 	sw	v0,-32636(gp)
  401024:	af8080a0 	sw	zero,-32608(gp)
  401028:	8f8280a0 	lw	v0,-32608(gp)
  40102c:	00000000 	nop
  401030:	af828110 	sw	v0,-32496(gp)
  401034:	8f828110 	lw	v0,-32496(gp)
  401038:	00000000 	nop
  40103c:	af8280e8 	sw	v0,-32536(gp)
  401040:	8f8280e8 	lw	v0,-32536(gp)
  401044:	00000000 	nop
  401048:	af8280f4 	sw	v0,-32524(gp)
  40104c:	8f8280f4 	lw	v0,-32524(gp)
  401050:	00000000 	nop
  401054:	af828100 	sw	v0,-32512(gp)
  401058:	8f828100 	lw	v0,-32512(gp)
  40105c:	00000000 	nop
  401060:	af828128 	sw	v0,-32472(gp)
  401064:	8f828128 	lw	v0,-32472(gp)
  401068:	00000000 	nop
  40106c:	af828030 	sw	v0,-32720(gp)
  401070:	af808018 	sw	zero,-32744(gp)
  401074:	8f828018 	lw	v0,-32744(gp)
  401078:	00000000 	nop
  40107c:	af8280dc 	sw	v0,-32548(gp)
  401080:	8f8280dc 	lw	v0,-32548(gp)
  401084:	00000000 	nop
  401088:	af8280a4 	sw	v0,-32604(gp)
  40108c:	8f8280a4 	lw	v0,-32604(gp)
  401090:	00000000 	nop
  401094:	af8280d8 	sw	v0,-32552(gp)
  401098:	8f8280d8 	lw	v0,-32552(gp)
  40109c:	00000000 	nop
  4010a0:	af8280ac 	sw	v0,-32596(gp)
  4010a4:	8f8280ac 	lw	v0,-32596(gp)
  4010a8:	00000000 	nop
  4010ac:	af828058 	sw	v0,-32680(gp)
  4010b0:	8f828058 	lw	v0,-32680(gp)
  4010b4:	00000000 	nop
  4010b8:	af82810c 	sw	v0,-32500(gp)
  4010bc:	af808088 	sw	zero,-32632(gp)
  4010c0:	8f828088 	lw	v0,-32632(gp)
  4010c4:	00000000 	nop
  4010c8:	af82808c 	sw	v0,-32628(gp)
  4010cc:	8f82808c 	lw	v0,-32628(gp)
  4010d0:	00000000 	nop
  4010d4:	af828014 	sw	v0,-32748(gp)
  4010d8:	8f828014 	lw	v0,-32748(gp)
  4010dc:	00000000 	nop
  4010e0:	af82802c 	sw	v0,-32724(gp)
  4010e4:	8f82802c 	lw	v0,-32724(gp)
  4010e8:	00000000 	nop
  4010ec:	af8280f0 	sw	v0,-32528(gp)
  4010f0:	8f8280f0 	lw	v0,-32528(gp)
  4010f4:	00000000 	nop
  4010f8:	af828114 	sw	v0,-32492(gp)
  4010fc:	8f828114 	lw	v0,-32492(gp)
  401100:	00000000 	nop
  401104:	af8280c4 	sw	v0,-32572(gp)
  401108:	af8080fc 	sw	zero,-32516(gp)
  40110c:	8f8280fc 	lw	v0,-32516(gp)
  401110:	00000000 	nop
  401114:	af828104 	sw	v0,-32508(gp)
  401118:	8f828104 	lw	v0,-32508(gp)
  40111c:	00000000 	nop
  401120:	af828070 	sw	v0,-32656(gp)
  401124:	8f828070 	lw	v0,-32656(gp)
  401128:	00000000 	nop
  40112c:	af828038 	sw	v0,-32712(gp)
  401130:	8f828038 	lw	v0,-32712(gp)
  401134:	00000000 	nop
  401138:	af828120 	sw	v0,-32480(gp)
  40113c:	8f828120 	lw	v0,-32480(gp)
  401140:	00000000 	nop
  401144:	af828074 	sw	v0,-32652(gp)
  401148:	8f828074 	lw	v0,-32652(gp)
  40114c:	00000000 	nop
  401150:	af828034 	sw	v0,-32716(gp)
  401154:	08100477 	j	4011dc <reset+0x1e4>
  401158:	afa00000 	sw	zero,0(sp)
  40115c:	3c020040 	lui	v0,0x40
  401160:	8fa30000 	lw	v1,0(sp)
  401164:	00000000 	nop
  401168:	00031880 	sll	v1,v1,0x2
  40116c:	244225f0 	addiu	v0,v0,9712
  401170:	00621021 	addu	v0,v1,v0
  401174:	ac400000 	sw	zero,0(v0)
  401178:	3c020040 	lui	v0,0x40
  40117c:	8fa30000 	lw	v1,0(sp)
  401180:	00000000 	nop
  401184:	00031880 	sll	v1,v1,0x2
  401188:	24422664 	addiu	v0,v0,9828
  40118c:	00621021 	addu	v0,v1,v0
  401190:	ac400000 	sw	zero,0(v0)
  401194:	3c020040 	lui	v0,0x40
  401198:	8fa30000 	lw	v1,0(sp)
  40119c:	00000000 	nop
  4011a0:	00031880 	sll	v1,v1,0x2
  4011a4:	24422608 	addiu	v0,v0,9736
  4011a8:	00621021 	addu	v0,v1,v0
  4011ac:	ac400000 	sw	zero,0(v0)
  4011b0:	3c020040 	lui	v0,0x40
  4011b4:	8fa30000 	lw	v1,0(sp)
  4011b8:	00000000 	nop
  4011bc:	00031880 	sll	v1,v1,0x2
  4011c0:	2442264c 	addiu	v0,v0,9804
  4011c4:	00621021 	addu	v0,v1,v0
  4011c8:	ac400000 	sw	zero,0(v0)
  4011cc:	8fa20000 	lw	v0,0(sp)
  4011d0:	00000000 	nop
  4011d4:	24420001 	addiu	v0,v0,1
  4011d8:	afa20000 	sw	v0,0(sp)
  4011dc:	8fa20000 	lw	v0,0(sp)
  4011e0:	00000000 	nop
  4011e4:	28420006 	slti	v0,v0,6
  4011e8:	1440ffdc 	bnez	v0,40115c <reset+0x164>
  4011ec:	00000000 	nop
  4011f0:	0810049e 	j	401278 <reset+0x280>
  4011f4:	afa00000 	sw	zero,0(sp)
  4011f8:	3c020040 	lui	v0,0x40
  4011fc:	8fa30000 	lw	v1,0(sp)
  401200:	00000000 	nop
  401204:	00031880 	sll	v1,v1,0x2
  401208:	24422720 	addiu	v0,v0,10016
  40120c:	00621021 	addu	v0,v1,v0
  401210:	ac400000 	sw	zero,0(v0)
  401214:	3c020040 	lui	v0,0x40
  401218:	8fa30000 	lw	v1,0(sp)
  40121c:	00000000 	nop
  401220:	00031880 	sll	v1,v1,0x2
  401224:	24422750 	addiu	v0,v0,10064
  401228:	00621021 	addu	v0,v1,v0
  40122c:	ac400000 	sw	zero,0(v0)
  401230:	3c020040 	lui	v0,0x40
  401234:	8fa30000 	lw	v1,0(sp)
  401238:	00000000 	nop
  40123c:	00031880 	sll	v1,v1,0x2
  401240:	24422738 	addiu	v0,v0,10040
  401244:	00621021 	addu	v0,v1,v0
  401248:	ac400000 	sw	zero,0(v0)
  40124c:	3c020040 	lui	v0,0x40
  401250:	8fa30000 	lw	v1,0(sp)
  401254:	00000000 	nop
  401258:	00031880 	sll	v1,v1,0x2
  40125c:	244226dc 	addiu	v0,v0,9948
  401260:	00621021 	addu	v0,v1,v0
  401264:	ac400000 	sw	zero,0(v0)
  401268:	8fa20000 	lw	v0,0(sp)
  40126c:	00000000 	nop
  401270:	24420001 	addiu	v0,v0,1
  401274:	afa20000 	sw	v0,0(sp)
  401278:	8fa20000 	lw	v0,0(sp)
  40127c:	00000000 	nop
  401280:	28420006 	slti	v0,v0,6
  401284:	1440ffdc 	bnez	v0,4011f8 <reset+0x200>
  401288:	00000000 	nop
  40128c:	081004b0 	j	4012c0 <reset+0x2c8>
  401290:	afa00000 	sw	zero,0(sp)
  401294:	3c020040 	lui	v0,0x40
  401298:	8fa30000 	lw	v1,0(sp)
  40129c:	00000000 	nop
  4012a0:	00031880 	sll	v1,v1,0x2
  4012a4:	2442267c 	addiu	v0,v0,9852
  4012a8:	00621021 	addu	v0,v1,v0
  4012ac:	ac400000 	sw	zero,0(v0)
  4012b0:	8fa20000 	lw	v0,0(sp)
  4012b4:	00000000 	nop
  4012b8:	24420001 	addiu	v0,v0,1
  4012bc:	afa20000 	sw	v0,0(sp)
  4012c0:	8fa20000 	lw	v0,0(sp)
  4012c4:	00000000 	nop
  4012c8:	28420017 	slti	v0,v0,23
  4012cc:	1440fff1 	bnez	v0,401294 <reset+0x29c>
  4012d0:	00000000 	nop
  4012d4:	081004c9 	j	401324 <reset+0x32c>
  4012d8:	afa00000 	sw	zero,0(sp)
  4012dc:	3c020040 	lui	v0,0x40
  4012e0:	8fa30000 	lw	v1,0(sp)
  4012e4:	00000000 	nop
  4012e8:	00031880 	sll	v1,v1,0x2
  4012ec:	244226f4 	addiu	v0,v0,9972
  4012f0:	00621021 	addu	v0,v1,v0
  4012f4:	ac400000 	sw	zero,0(v0)
  4012f8:	3c020040 	lui	v0,0x40
  4012fc:	8fa30000 	lw	v1,0(sp)
  401300:	00000000 	nop
  401304:	00031880 	sll	v1,v1,0x2
  401308:	24422620 	addiu	v0,v0,9760
  40130c:	00621021 	addu	v0,v1,v0
  401310:	ac400000 	sw	zero,0(v0)
  401314:	8fa20000 	lw	v0,0(sp)
  401318:	00000000 	nop
  40131c:	24420001 	addiu	v0,v0,1
  401320:	afa20000 	sw	v0,0(sp)
  401324:	8fa20000 	lw	v0,0(sp)
  401328:	00000000 	nop
  40132c:	2842000b 	slti	v0,v0,11
  401330:	1440ffea 	bnez	v0,4012dc <reset+0x2e4>
  401334:	00000000 	nop
  401338:	00000000 	nop
  40133c:	27bd0008 	addiu	sp,sp,8
  401340:	03e00008 	jr	ra
  401344:	00000000 	nop

00401348 <filtez>:
  401348:	27bdfff8 	addiu	sp,sp,-8
  40134c:	afa40008 	sw	a0,8(sp)
  401350:	afa5000c 	sw	a1,12(sp)
  401354:	8fa20008 	lw	v0,8(sp)
  401358:	00000000 	nop
  40135c:	8c430000 	lw	v1,0(v0)
  401360:	8fa2000c 	lw	v0,12(sp)
  401364:	00000000 	nop
  401368:	8c420000 	lw	v0,0(v0)
  40136c:	00000000 	nop
  401370:	00620018 	mult	v1,v0
  401374:	00001012 	mflo	v0
  401378:	afa20004 	sw	v0,4(sp)
  40137c:	8fa20008 	lw	v0,8(sp)
  401380:	00000000 	nop
  401384:	24420004 	addiu	v0,v0,4
  401388:	afa20008 	sw	v0,8(sp)
  40138c:	8fa2000c 	lw	v0,12(sp)
  401390:	00000000 	nop
  401394:	24420004 	addiu	v0,v0,4
  401398:	afa2000c 	sw	v0,12(sp)
  40139c:	24020001 	li	v0,1
  4013a0:	08100503 	j	40140c <filtez+0xc4>
  4013a4:	afa20000 	sw	v0,0(sp)
  4013a8:	8fa20008 	lw	v0,8(sp)
  4013ac:	00000000 	nop
  4013b0:	8c430000 	lw	v1,0(v0)
  4013b4:	8fa2000c 	lw	v0,12(sp)
  4013b8:	00000000 	nop
  4013bc:	8c420000 	lw	v0,0(v0)
  4013c0:	00000000 	nop
  4013c4:	00620018 	mult	v1,v0
  4013c8:	00001012 	mflo	v0
  4013cc:	8fa30004 	lw	v1,4(sp)
  4013d0:	00000000 	nop
  4013d4:	00621021 	addu	v0,v1,v0
  4013d8:	afa20004 	sw	v0,4(sp)
  4013dc:	8fa20008 	lw	v0,8(sp)
  4013e0:	00000000 	nop
  4013e4:	24420004 	addiu	v0,v0,4
  4013e8:	afa20008 	sw	v0,8(sp)
  4013ec:	8fa2000c 	lw	v0,12(sp)
  4013f0:	00000000 	nop
  4013f4:	24420004 	addiu	v0,v0,4
  4013f8:	afa2000c 	sw	v0,12(sp)
  4013fc:	8fa20000 	lw	v0,0(sp)
  401400:	00000000 	nop
  401404:	24420001 	addiu	v0,v0,1
  401408:	afa20000 	sw	v0,0(sp)
  40140c:	8fa20000 	lw	v0,0(sp)
  401410:	00000000 	nop
  401414:	28420006 	slti	v0,v0,6
  401418:	1440ffe3 	bnez	v0,4013a8 <filtez+0x60>
  40141c:	00000000 	nop
  401420:	8fa20004 	lw	v0,4(sp)
  401424:	00000000 	nop
  401428:	00021383 	sra	v0,v0,0xe
  40142c:	03e00008 	jr	ra
  401430:	27bd0008 	addiu	sp,sp,8

00401434 <filtep>:
  401434:	27bdfff8 	addiu	sp,sp,-8
  401438:	afa40008 	sw	a0,8(sp)
  40143c:	afa5000c 	sw	a1,12(sp)
  401440:	afa60010 	sw	a2,16(sp)
  401444:	afa70014 	sw	a3,20(sp)
  401448:	8fa20008 	lw	v0,8(sp)
  40144c:	00000000 	nop
  401450:	00021040 	sll	v0,v0,0x1
  401454:	afa20000 	sw	v0,0(sp)
  401458:	8fa30000 	lw	v1,0(sp)
  40145c:	8fa2000c 	lw	v0,12(sp)
  401460:	00000000 	nop
  401464:	00620018 	mult	v1,v0
  401468:	00001012 	mflo	v0
  40146c:	afa20000 	sw	v0,0(sp)
  401470:	8fa20010 	lw	v0,16(sp)
  401474:	00000000 	nop
  401478:	00021040 	sll	v0,v0,0x1
  40147c:	afa20004 	sw	v0,4(sp)
  401480:	8fa30014 	lw	v1,20(sp)
  401484:	8fa20004 	lw	v0,4(sp)
  401488:	00000000 	nop
  40148c:	00620018 	mult	v1,v0
  401490:	00001012 	mflo	v0
  401494:	8fa30000 	lw	v1,0(sp)
  401498:	00000000 	nop
  40149c:	00621021 	addu	v0,v1,v0
  4014a0:	afa20000 	sw	v0,0(sp)
  4014a4:	8fa20000 	lw	v0,0(sp)
  4014a8:	00000000 	nop
  4014ac:	000213c3 	sra	v0,v0,0xf
  4014b0:	27bd0008 	addiu	sp,sp,8
  4014b4:	03e00008 	jr	ra
  4014b8:	00000000 	nop

004014bc <quantl>:
  4014bc:	27bdffd8 	addiu	sp,sp,-40
  4014c0:	afbf0024 	sw	ra,36(sp)
  4014c4:	afa40028 	sw	a0,40(sp)
  4014c8:	afa5002c 	sw	a1,44(sp)
  4014cc:	8fa40028 	lw	a0,40(sp)
  4014d0:	0c100006 	jal	400018 <my_abs>
  4014d4:	00000000 	nop
  4014d8:	afa20018 	sw	v0,24(sp)
  4014dc:	08100550 	j	401540 <quantl+0x84>
  4014e0:	afa00014 	sw	zero,20(sp)
  4014e4:	3c020040 	lui	v0,0x40
  4014e8:	8fa30014 	lw	v1,20(sp)
  4014ec:	00000000 	nop
  4014f0:	00031880 	sll	v1,v1,0x2
  4014f4:	24422300 	addiu	v0,v0,8960
  4014f8:	00621021 	addu	v0,v1,v0
  4014fc:	8c430000 	lw	v1,0(v0)
  401500:	8fa2002c 	lw	v0,44(sp)
  401504:	00000000 	nop
  401508:	00620018 	mult	v1,v0
  40150c:	00001012 	mflo	v0
  401510:	000213c3 	sra	v0,v0,0xf
  401514:	afa2001c 	sw	v0,28(sp)
  401518:	8fa30018 	lw	v1,24(sp)
  40151c:	8fa2001c 	lw	v0,28(sp)
  401520:	00000000 	nop
  401524:	0043102a 	slt	v0,v0,v1
  401528:	1040000c 	beqz	v0,40155c <quantl+0xa0>
  40152c:	00000000 	nop
  401530:	8fa20014 	lw	v0,20(sp)
  401534:	00000000 	nop
  401538:	24420001 	addiu	v0,v0,1
  40153c:	afa20014 	sw	v0,20(sp)
  401540:	8fa20014 	lw	v0,20(sp)
  401544:	00000000 	nop
  401548:	2842001e 	slti	v0,v0,30
  40154c:	1440ffe5 	bnez	v0,4014e4 <quantl+0x28>
  401550:	00000000 	nop
  401554:	08100558 	j	401560 <quantl+0xa4>
  401558:	00000000 	nop
  40155c:	00000000 	nop
  401560:	8fa20028 	lw	v0,40(sp)
  401564:	00000000 	nop
  401568:	0440000b 	bltz	v0,401598 <quantl+0xdc>
  40156c:	00000000 	nop
  401570:	3c020040 	lui	v0,0x40
  401574:	8fa30014 	lw	v1,20(sp)
  401578:	00000000 	nop
  40157c:	00031880 	sll	v1,v1,0x2
  401580:	24422378 	addiu	v0,v0,9080
  401584:	00621021 	addu	v0,v1,v0
  401588:	8c420000 	lw	v0,0(v0)
  40158c:	00000000 	nop
  401590:	0810056f 	j	4015bc <quantl+0x100>
  401594:	afa20010 	sw	v0,16(sp)
  401598:	3c020040 	lui	v0,0x40
  40159c:	8fa30014 	lw	v1,20(sp)
  4015a0:	00000000 	nop
  4015a4:	00031880 	sll	v1,v1,0x2
  4015a8:	244223f4 	addiu	v0,v0,9204
  4015ac:	00621021 	addu	v0,v1,v0
  4015b0:	8c420000 	lw	v0,0(v0)
  4015b4:	00000000 	nop
  4015b8:	afa20010 	sw	v0,16(sp)
  4015bc:	8fa20010 	lw	v0,16(sp)
  4015c0:	8fbf0024 	lw	ra,36(sp)
  4015c4:	27bd0028 	addiu	sp,sp,40
  4015c8:	03e00008 	jr	ra
  4015cc:	00000000 	nop

004015d0 <logscl>:
  4015d0:	27bdfff8 	addiu	sp,sp,-8
  4015d4:	afa40008 	sw	a0,8(sp)
  4015d8:	afa5000c 	sw	a1,12(sp)
  4015dc:	8fa3000c 	lw	v1,12(sp)
  4015e0:	00000000 	nop
  4015e4:	00601021 	move	v0,v1
  4015e8:	000211c0 	sll	v0,v0,0x7
  4015ec:	00431023 	subu	v0,v0,v1
  4015f0:	000211c3 	sra	v0,v0,0x7
  4015f4:	afa20000 	sw	v0,0(sp)
  4015f8:	8fa20008 	lw	v0,8(sp)
  4015fc:	00000000 	nop
  401600:	00021883 	sra	v1,v0,0x2
  401604:	3c020040 	lui	v0,0x40
  401608:	00031880 	sll	v1,v1,0x2
  40160c:	24422220 	addiu	v0,v0,8736
  401610:	00621021 	addu	v0,v1,v0
  401614:	8c430000 	lw	v1,0(v0)
  401618:	8fa20000 	lw	v0,0(sp)
  40161c:	00000000 	nop
  401620:	00621021 	addu	v0,v1,v0
  401624:	afa2000c 	sw	v0,12(sp)
  401628:	8fa2000c 	lw	v0,12(sp)
  40162c:	00000000 	nop
  401630:	04410002 	bgez	v0,40163c <logscl+0x6c>
  401634:	00000000 	nop
  401638:	afa0000c 	sw	zero,12(sp)
  40163c:	8fa2000c 	lw	v0,12(sp)
  401640:	00000000 	nop
  401644:	28424801 	slti	v0,v0,18433
  401648:	14400003 	bnez	v0,401658 <logscl+0x88>
  40164c:	00000000 	nop
  401650:	24024800 	li	v0,18432
  401654:	afa2000c 	sw	v0,12(sp)
  401658:	8fa2000c 	lw	v0,12(sp)
  40165c:	27bd0008 	addiu	sp,sp,8
  401660:	03e00008 	jr	ra
  401664:	00000000 	nop

00401668 <scalel>:
  401668:	27bdfff0 	addiu	sp,sp,-16
  40166c:	afa40010 	sw	a0,16(sp)
  401670:	afa50014 	sw	a1,20(sp)
  401674:	8fa20010 	lw	v0,16(sp)
  401678:	00000000 	nop
  40167c:	00021183 	sra	v0,v0,0x6
  401680:	3042001f 	andi	v0,v0,0x1f
  401684:	afa20000 	sw	v0,0(sp)
  401688:	8fa20010 	lw	v0,16(sp)
  40168c:	00000000 	nop
  401690:	000212c3 	sra	v0,v0,0xb
  401694:	afa20004 	sw	v0,4(sp)
  401698:	3c020040 	lui	v0,0x40
  40169c:	8fa30000 	lw	v1,0(sp)
  4016a0:	00000000 	nop
  4016a4:	00031880 	sll	v1,v1,0x2
  4016a8:	24422280 	addiu	v0,v0,8832
  4016ac:	00621021 	addu	v0,v1,v0
  4016b0:	8c430000 	lw	v1,0(v0)
  4016b4:	8fa20014 	lw	v0,20(sp)
  4016b8:	00000000 	nop
  4016bc:	24440001 	addiu	a0,v0,1
  4016c0:	8fa20004 	lw	v0,4(sp)
  4016c4:	00000000 	nop
  4016c8:	00821023 	subu	v0,a0,v0
  4016cc:	00431007 	srav	v0,v1,v0
  4016d0:	afa20008 	sw	v0,8(sp)
  4016d4:	8fa20008 	lw	v0,8(sp)
  4016d8:	00000000 	nop
  4016dc:	000210c0 	sll	v0,v0,0x3
  4016e0:	27bd0010 	addiu	sp,sp,16
  4016e4:	03e00008 	jr	ra
  4016e8:	00000000 	nop

004016ec <upzero>:
  4016ec:	27bdfff0 	addiu	sp,sp,-16
  4016f0:	afa40010 	sw	a0,16(sp)
  4016f4:	afa50014 	sw	a1,20(sp)
  4016f8:	afa60018 	sw	a2,24(sp)
  4016fc:	8fa20010 	lw	v0,16(sp)
  401700:	00000000 	nop
  401704:	14400021 	bnez	v0,40178c <upzero+0xa0>
  401708:	00000000 	nop
  40170c:	081005dc 	j	401770 <upzero+0x84>
  401710:	afa00000 	sw	zero,0(sp)
  401714:	8fa20000 	lw	v0,0(sp)
  401718:	00000000 	nop
  40171c:	00021080 	sll	v0,v0,0x2
  401720:	8fa30018 	lw	v1,24(sp)
  401724:	00000000 	nop
  401728:	00622021 	addu	a0,v1,v0
  40172c:	8fa20000 	lw	v0,0(sp)
  401730:	00000000 	nop
  401734:	00021080 	sll	v0,v0,0x2
  401738:	8fa30018 	lw	v1,24(sp)
  40173c:	00000000 	nop
  401740:	00621021 	addu	v0,v1,v0
  401744:	8c430000 	lw	v1,0(v0)
  401748:	00000000 	nop
  40174c:	00601021 	move	v0,v1
  401750:	00021200 	sll	v0,v0,0x8
  401754:	00431023 	subu	v0,v0,v1
  401758:	00021203 	sra	v0,v0,0x8
  40175c:	ac820000 	sw	v0,0(a0)
  401760:	8fa20000 	lw	v0,0(sp)
  401764:	00000000 	nop
  401768:	24420001 	addiu	v0,v0,1
  40176c:	afa20000 	sw	v0,0(sp)
  401770:	8fa20000 	lw	v0,0(sp)
  401774:	00000000 	nop
  401778:	28420006 	slti	v0,v0,6
  40177c:	1440ffe5 	bnez	v0,401714 <upzero+0x28>
  401780:	00000000 	nop
  401784:	08100618 	j	401860 <upzero+0x174>
  401788:	00000000 	nop
  40178c:	08100613 	j	40184c <upzero+0x160>
  401790:	afa00000 	sw	zero,0(sp)
  401794:	8fa20000 	lw	v0,0(sp)
  401798:	00000000 	nop
  40179c:	00021080 	sll	v0,v0,0x2
  4017a0:	8fa30014 	lw	v1,20(sp)
  4017a4:	00000000 	nop
  4017a8:	00621021 	addu	v0,v1,v0
  4017ac:	8c430000 	lw	v1,0(v0)
  4017b0:	8fa20010 	lw	v0,16(sp)
  4017b4:	00000000 	nop
  4017b8:	00620018 	mult	v1,v0
  4017bc:	00001012 	mflo	v0
  4017c0:	04400004 	bltz	v0,4017d4 <upzero+0xe8>
  4017c4:	00000000 	nop
  4017c8:	24020080 	li	v0,128
  4017cc:	081005f7 	j	4017dc <upzero+0xf0>
  4017d0:	afa20004 	sw	v0,4(sp)
  4017d4:	2402ff80 	li	v0,-128
  4017d8:	afa20004 	sw	v0,4(sp)
  4017dc:	8fa20000 	lw	v0,0(sp)
  4017e0:	00000000 	nop
  4017e4:	00021080 	sll	v0,v0,0x2
  4017e8:	8fa30018 	lw	v1,24(sp)
  4017ec:	00000000 	nop
  4017f0:	00621021 	addu	v0,v1,v0
  4017f4:	8c430000 	lw	v1,0(v0)
  4017f8:	00000000 	nop
  4017fc:	00601021 	move	v0,v1
  401800:	00021200 	sll	v0,v0,0x8
  401804:	00431023 	subu	v0,v0,v1
  401808:	00021203 	sra	v0,v0,0x8
  40180c:	afa20008 	sw	v0,8(sp)
  401810:	8fa20000 	lw	v0,0(sp)
  401814:	00000000 	nop
  401818:	00021080 	sll	v0,v0,0x2
  40181c:	8fa30018 	lw	v1,24(sp)
  401820:	00000000 	nop
  401824:	00621021 	addu	v0,v1,v0
  401828:	8fa40004 	lw	a0,4(sp)
  40182c:	8fa30008 	lw	v1,8(sp)
  401830:	00000000 	nop
  401834:	00831821 	addu	v1,a0,v1
  401838:	ac430000 	sw	v1,0(v0)
  40183c:	8fa20000 	lw	v0,0(sp)
  401840:	00000000 	nop
  401844:	24420001 	addiu	v0,v0,1
  401848:	afa20000 	sw	v0,0(sp)
  40184c:	8fa20000 	lw	v0,0(sp)
  401850:	00000000 	nop
  401854:	28420006 	slti	v0,v0,6
  401858:	1440ffce 	bnez	v0,401794 <upzero+0xa8>
  40185c:	00000000 	nop
  401860:	8fa20014 	lw	v0,20(sp)
  401864:	00000000 	nop
  401868:	24420014 	addiu	v0,v0,20
  40186c:	8fa30014 	lw	v1,20(sp)
  401870:	00000000 	nop
  401874:	8c630010 	lw	v1,16(v1)
  401878:	00000000 	nop
  40187c:	ac430000 	sw	v1,0(v0)
  401880:	8fa20014 	lw	v0,20(sp)
  401884:	00000000 	nop
  401888:	24420010 	addiu	v0,v0,16
  40188c:	8fa30014 	lw	v1,20(sp)
  401890:	00000000 	nop
  401894:	8c63000c 	lw	v1,12(v1)
  401898:	00000000 	nop
  40189c:	ac430000 	sw	v1,0(v0)
  4018a0:	8fa20014 	lw	v0,20(sp)
  4018a4:	00000000 	nop
  4018a8:	2442000c 	addiu	v0,v0,12
  4018ac:	8fa30014 	lw	v1,20(sp)
  4018b0:	00000000 	nop
  4018b4:	8c630008 	lw	v1,8(v1)
  4018b8:	00000000 	nop
  4018bc:	ac430000 	sw	v1,0(v0)
  4018c0:	8fa20014 	lw	v0,20(sp)
  4018c4:	00000000 	nop
  4018c8:	24420004 	addiu	v0,v0,4
  4018cc:	8fa30014 	lw	v1,20(sp)
  4018d0:	00000000 	nop
  4018d4:	8c630000 	lw	v1,0(v1)
  4018d8:	00000000 	nop
  4018dc:	ac430000 	sw	v1,0(v0)
  4018e0:	8fa20014 	lw	v0,20(sp)
  4018e4:	8fa30010 	lw	v1,16(sp)
  4018e8:	00000000 	nop
  4018ec:	ac430000 	sw	v1,0(v0)
  4018f0:	00000000 	nop
  4018f4:	27bd0010 	addiu	sp,sp,16
  4018f8:	03e00008 	jr	ra
  4018fc:	00000000 	nop

00401900 <uppol2>:
  401900:	27bdfff0 	addiu	sp,sp,-16
  401904:	afa40010 	sw	a0,16(sp)
  401908:	afa50014 	sw	a1,20(sp)
  40190c:	afa60018 	sw	a2,24(sp)
  401910:	afa7001c 	sw	a3,28(sp)
  401914:	8fa20010 	lw	v0,16(sp)
  401918:	00000000 	nop
  40191c:	00021080 	sll	v0,v0,0x2
  401920:	afa20000 	sw	v0,0(sp)
  401924:	8fa30018 	lw	v1,24(sp)
  401928:	8fa2001c 	lw	v0,28(sp)
  40192c:	00000000 	nop
  401930:	00620018 	mult	v1,v0
  401934:	00001012 	mflo	v0
  401938:	04400005 	bltz	v0,401950 <uppol2+0x50>
  40193c:	00000000 	nop
  401940:	8fa20000 	lw	v0,0(sp)
  401944:	00000000 	nop
  401948:	00021023 	negu	v0,v0
  40194c:	afa20000 	sw	v0,0(sp)
  401950:	8fa20000 	lw	v0,0(sp)
  401954:	00000000 	nop
  401958:	000211c3 	sra	v0,v0,0x7
  40195c:	afa20000 	sw	v0,0(sp)
  401960:	8fa30018 	lw	v1,24(sp)
  401964:	8fa20020 	lw	v0,32(sp)
  401968:	00000000 	nop
  40196c:	00620018 	mult	v1,v0
  401970:	00001012 	mflo	v0
  401974:	04400007 	bltz	v0,401994 <uppol2+0x94>
  401978:	00000000 	nop
  40197c:	8fa20000 	lw	v0,0(sp)
  401980:	00000000 	nop
  401984:	24420080 	addiu	v0,v0,128
  401988:	afa20004 	sw	v0,4(sp)
  40198c:	08100669 	j	4019a4 <uppol2+0xa4>
  401990:	00000000 	nop
  401994:	8fa20000 	lw	v0,0(sp)
  401998:	00000000 	nop
  40199c:	2442ff80 	addiu	v0,v0,-128
  4019a0:	afa20004 	sw	v0,4(sp)
  4019a4:	8fa30014 	lw	v1,20(sp)
  4019a8:	00000000 	nop
  4019ac:	00601021 	move	v0,v1
  4019b0:	000211c0 	sll	v0,v0,0x7
  4019b4:	00431023 	subu	v0,v0,v1
  4019b8:	000219c3 	sra	v1,v0,0x7
  4019bc:	8fa20004 	lw	v0,4(sp)
  4019c0:	00000000 	nop
  4019c4:	00621021 	addu	v0,v1,v0
  4019c8:	afa20008 	sw	v0,8(sp)
  4019cc:	8fa20008 	lw	v0,8(sp)
  4019d0:	00000000 	nop
  4019d4:	28423001 	slti	v0,v0,12289
  4019d8:	14400003 	bnez	v0,4019e8 <uppol2+0xe8>
  4019dc:	00000000 	nop
  4019e0:	24023000 	li	v0,12288
  4019e4:	afa20008 	sw	v0,8(sp)
  4019e8:	8fa20008 	lw	v0,8(sp)
  4019ec:	00000000 	nop
  4019f0:	2842d000 	slti	v0,v0,-12288
  4019f4:	10400003 	beqz	v0,401a04 <uppol2+0x104>
  4019f8:	00000000 	nop
  4019fc:	2402d000 	li	v0,-12288
  401a00:	afa20008 	sw	v0,8(sp)
  401a04:	8fa20008 	lw	v0,8(sp)
  401a08:	27bd0010 	addiu	sp,sp,16
  401a0c:	03e00008 	jr	ra
  401a10:	00000000 	nop

00401a14 <uppol1>:
  401a14:	27bdfff0 	addiu	sp,sp,-16
  401a18:	afa40010 	sw	a0,16(sp)
  401a1c:	afa50014 	sw	a1,20(sp)
  401a20:	afa60018 	sw	a2,24(sp)
  401a24:	afa7001c 	sw	a3,28(sp)
  401a28:	8fa30010 	lw	v1,16(sp)
  401a2c:	00000000 	nop
  401a30:	00601021 	move	v0,v1
  401a34:	00021200 	sll	v0,v0,0x8
  401a38:	00431023 	subu	v0,v0,v1
  401a3c:	00021203 	sra	v0,v0,0x8
  401a40:	afa20004 	sw	v0,4(sp)
  401a44:	8fa30018 	lw	v1,24(sp)
  401a48:	8fa2001c 	lw	v0,28(sp)
  401a4c:	00000000 	nop
  401a50:	00620018 	mult	v1,v0
  401a54:	00001012 	mflo	v0
  401a58:	04400007 	bltz	v0,401a78 <uppol1+0x64>
  401a5c:	00000000 	nop
  401a60:	8fa20004 	lw	v0,4(sp)
  401a64:	00000000 	nop
  401a68:	244200c0 	addiu	v0,v0,192
  401a6c:	afa20000 	sw	v0,0(sp)
  401a70:	081006a2 	j	401a88 <uppol1+0x74>
  401a74:	00000000 	nop
  401a78:	8fa20004 	lw	v0,4(sp)
  401a7c:	00000000 	nop
  401a80:	2442ff40 	addiu	v0,v0,-192
  401a84:	afa20000 	sw	v0,0(sp)
  401a88:	24033c00 	li	v1,15360
  401a8c:	8fa20014 	lw	v0,20(sp)
  401a90:	00000000 	nop
  401a94:	00621023 	subu	v0,v1,v0
  401a98:	afa20008 	sw	v0,8(sp)
  401a9c:	8fa30000 	lw	v1,0(sp)
  401aa0:	8fa20008 	lw	v0,8(sp)
  401aa4:	00000000 	nop
  401aa8:	0043102a 	slt	v0,v0,v1
  401aac:	10400004 	beqz	v0,401ac0 <uppol1+0xac>
  401ab0:	00000000 	nop
  401ab4:	8fa20008 	lw	v0,8(sp)
  401ab8:	00000000 	nop
  401abc:	afa20000 	sw	v0,0(sp)
  401ac0:	8fa20008 	lw	v0,8(sp)
  401ac4:	00000000 	nop
  401ac8:	00021823 	negu	v1,v0
  401acc:	8fa20000 	lw	v0,0(sp)
  401ad0:	00000000 	nop
  401ad4:	0043102a 	slt	v0,v0,v1
  401ad8:	10400005 	beqz	v0,401af0 <uppol1+0xdc>
  401adc:	00000000 	nop
  401ae0:	8fa20008 	lw	v0,8(sp)
  401ae4:	00000000 	nop
  401ae8:	00021023 	negu	v0,v0
  401aec:	afa20000 	sw	v0,0(sp)
  401af0:	8fa20000 	lw	v0,0(sp)
  401af4:	27bd0010 	addiu	sp,sp,16
  401af8:	03e00008 	jr	ra
  401afc:	00000000 	nop

00401b00 <logsch>:
  401b00:	27bdfff8 	addiu	sp,sp,-8
  401b04:	afa40008 	sw	a0,8(sp)
  401b08:	afa5000c 	sw	a1,12(sp)
  401b0c:	8fa3000c 	lw	v1,12(sp)
  401b10:	00000000 	nop
  401b14:	00601021 	move	v0,v1
  401b18:	000211c0 	sll	v0,v0,0x7
  401b1c:	00431023 	subu	v0,v0,v1
  401b20:	000211c3 	sra	v0,v0,0x7
  401b24:	afa20000 	sw	v0,0(sp)
  401b28:	3c020040 	lui	v0,0x40
  401b2c:	8fa30008 	lw	v1,8(sp)
  401b30:	00000000 	nop
  401b34:	00031880 	sll	v1,v1,0x2
  401b38:	24422480 	addiu	v0,v0,9344
  401b3c:	00621021 	addu	v0,v1,v0
  401b40:	8c430000 	lw	v1,0(v0)
  401b44:	8fa20000 	lw	v0,0(sp)
  401b48:	00000000 	nop
  401b4c:	00621021 	addu	v0,v1,v0
  401b50:	afa2000c 	sw	v0,12(sp)
  401b54:	8fa2000c 	lw	v0,12(sp)
  401b58:	00000000 	nop
  401b5c:	04410002 	bgez	v0,401b68 <logsch+0x68>
  401b60:	00000000 	nop
  401b64:	afa0000c 	sw	zero,12(sp)
  401b68:	8fa2000c 	lw	v0,12(sp)
  401b6c:	00000000 	nop
  401b70:	28425801 	slti	v0,v0,22529
  401b74:	14400003 	bnez	v0,401b84 <logsch+0x84>
  401b78:	00000000 	nop
  401b7c:	24025800 	li	v0,22528
  401b80:	afa2000c 	sw	v0,12(sp)
  401b84:	8fa2000c 	lw	v0,12(sp)
  401b88:	27bd0008 	addiu	sp,sp,8
  401b8c:	03e00008 	jr	ra
  401b90:	00000000 	nop

00401b94 <main>:
  401b94:	27bdffd8 	addiu	sp,sp,-40
  401b98:	afbf0024 	sw	ra,36(sp)
  401b9c:	0c1003fe 	jal	400ff8 <reset>
  401ba0:	afb00020 	sw	s0,32(sp)
  401ba4:	2402000a 	li	v0,10
  401ba8:	afa20014 	sw	v0,20(sp)
  401bac:	240207d0 	li	v0,2000
  401bb0:	afa20018 	sw	v0,24(sp)
  401bb4:	08100710 	j	401c40 <main+0xac>
  401bb8:	afa00010 	sw	zero,16(sp)
  401bbc:	8fa40018 	lw	a0,24(sp)
  401bc0:	00000000 	nop
  401bc4:	00801021 	move	v0,a0
  401bc8:	00021100 	sll	v0,v0,0x4
  401bcc:	000218c0 	sll	v1,v0,0x3
  401bd0:	00621823 	subu	v1,v1,v0
  401bd4:	000310c0 	sll	v0,v1,0x3
  401bd8:	00431023 	subu	v0,v0,v1
  401bdc:	00441021 	addu	v0,v0,a0
  401be0:	00021080 	sll	v0,v0,0x2
  401be4:	00441821 	addu	v1,v0,a0
  401be8:	8fa20010 	lw	v0,16(sp)
  401bec:	00000000 	nop
  401bf0:	00620018 	mult	v1,v0
  401bf4:	00001012 	mflo	v0
  401bf8:	0c10009e 	jal	400278 <my_cos>
  401bfc:	00402021 	move	a0,v0
  401c00:	00401821 	move	v1,v0
  401c04:	8fa20014 	lw	v0,20(sp)
  401c08:	00000000 	nop
  401c0c:	00620018 	mult	v1,v0
  401c10:	00001812 	mflo	v1
  401c14:	3c020040 	lui	v0,0x40
  401c18:	8fa40010 	lw	a0,16(sp)
  401c1c:	00000000 	nop
  401c20:	00042080 	sll	a0,a0,0x2
  401c24:	244225b4 	addiu	v0,v0,9652
  401c28:	00821021 	addu	v0,a0,v0
  401c2c:	ac430000 	sw	v1,0(v0)
  401c30:	8fa20010 	lw	v0,16(sp)
  401c34:	00000000 	nop
  401c38:	24420001 	addiu	v0,v0,1
  401c3c:	afa20010 	sw	v0,16(sp)
  401c40:	8fa20010 	lw	v0,16(sp)
  401c44:	00000000 	nop
  401c48:	28420003 	slti	v0,v0,3
  401c4c:	1440ffdb 	bnez	v0,401bbc <main+0x28>
  401c50:	00000000 	nop
  401c54:	08100739 	j	401ce4 <main+0x150>
  401c58:	afa00010 	sw	zero,16(sp)
  401c5c:	8fa20010 	lw	v0,16(sp)
  401c60:	00000000 	nop
  401c64:	00021fc2 	srl	v1,v0,0x1f
  401c68:	00621021 	addu	v0,v1,v0
  401c6c:	00021043 	sra	v0,v0,0x1
  401c70:	00408021 	move	s0,v0
  401c74:	3c020040 	lui	v0,0x40
  401c78:	8fa30010 	lw	v1,16(sp)
  401c7c:	00000000 	nop
  401c80:	00031880 	sll	v1,v1,0x2
  401c84:	244225b4 	addiu	v0,v0,9652
  401c88:	00621021 	addu	v0,v1,v0
  401c8c:	8c430000 	lw	v1,0(v0)
  401c90:	8fa20010 	lw	v0,16(sp)
  401c94:	00000000 	nop
  401c98:	24440001 	addiu	a0,v0,1
  401c9c:	3c020040 	lui	v0,0x40
  401ca0:	00042080 	sll	a0,a0,0x2
  401ca4:	244225b4 	addiu	v0,v0,9652
  401ca8:	00821021 	addu	v0,a0,v0
  401cac:	8c420000 	lw	v0,0(v0)
  401cb0:	00602021 	move	a0,v1
  401cb4:	0c1000ac 	jal	4002b0 <encode>
  401cb8:	00402821 	move	a1,v0
  401cbc:	00401821 	move	v1,v0
  401cc0:	3c020040 	lui	v0,0x40
  401cc4:	00102080 	sll	a0,s0,0x2
  401cc8:	244225cc 	addiu	v0,v0,9676
  401ccc:	00821021 	addu	v0,a0,v0
  401cd0:	ac430000 	sw	v1,0(v0)
  401cd4:	8fa20010 	lw	v0,16(sp)
  401cd8:	00000000 	nop
  401cdc:	24420002 	addiu	v0,v0,2
  401ce0:	afa20010 	sw	v0,16(sp)
  401ce4:	8fa20010 	lw	v0,16(sp)
  401ce8:	00000000 	nop
  401cec:	28420004 	slti	v0,v0,4
  401cf0:	1440ffda 	bnez	v0,401c5c <main+0xc8>
  401cf4:	00000000 	nop
  401cf8:	08100763 	j	401d8c <main+0x1f8>
  401cfc:	afa00010 	sw	zero,16(sp)
  401d00:	8fa20010 	lw	v0,16(sp)
  401d04:	00000000 	nop
  401d08:	00021fc2 	srl	v1,v0,0x1f
  401d0c:	00621021 	addu	v0,v1,v0
  401d10:	00021043 	sra	v0,v0,0x1
  401d14:	00401821 	move	v1,v0
  401d18:	3c020040 	lui	v0,0x40
  401d1c:	00031880 	sll	v1,v1,0x2
  401d20:	244225cc 	addiu	v0,v0,9676
  401d24:	00621021 	addu	v0,v1,v0
  401d28:	8c420000 	lw	v0,0(v0)
  401d2c:	00000000 	nop
  401d30:	0c100262 	jal	400988 <decode>
  401d34:	00402021 	move	a0,v0
  401d38:	8f838064 	lw	v1,-32668(gp)
  401d3c:	3c020040 	lui	v0,0x40
  401d40:	8fa40010 	lw	a0,16(sp)
  401d44:	00000000 	nop
  401d48:	00042080 	sll	a0,a0,0x2
  401d4c:	244225d8 	addiu	v0,v0,9688
  401d50:	00821021 	addu	v0,a0,v0
  401d54:	ac430000 	sw	v1,0(v0)
  401d58:	8fa20010 	lw	v0,16(sp)
  401d5c:	00000000 	nop
  401d60:	24440001 	addiu	a0,v0,1
  401d64:	8f838098 	lw	v1,-32616(gp)
  401d68:	3c020040 	lui	v0,0x40
  401d6c:	00042080 	sll	a0,a0,0x2
  401d70:	244225d8 	addiu	v0,v0,9688
  401d74:	00821021 	addu	v0,a0,v0
  401d78:	ac430000 	sw	v1,0(v0)
  401d7c:	8fa20010 	lw	v0,16(sp)
  401d80:	00000000 	nop
  401d84:	24420002 	addiu	v0,v0,2
  401d88:	afa20010 	sw	v0,16(sp)
  401d8c:	8fa20010 	lw	v0,16(sp)
  401d90:	00000000 	nop
  401d94:	28420004 	slti	v0,v0,4
  401d98:	1440ffd9 	bnez	v0,401d00 <main+0x16c>
  401d9c:	00000000 	nop
  401da0:	3c020040 	lui	v0,0x40
  401da4:	8fa30010 	lw	v1,16(sp)
  401da8:	00000000 	nop
  401dac:	00031880 	sll	v1,v1,0x2
  401db0:	244225d8 	addiu	v0,v0,9688
  401db4:	00621021 	addu	v0,v1,v0
  401db8:	8c430000 	lw	v1,0(v0)
  401dbc:	8fa20010 	lw	v0,16(sp)
  401dc0:	00000000 	nop
  401dc4:	24440001 	addiu	a0,v0,1
  401dc8:	3c020040 	lui	v0,0x40
  401dcc:	00042080 	sll	a0,a0,0x2
  401dd0:	244225d8 	addiu	v0,v0,9688
  401dd4:	00821021 	addu	v0,a0,v0
  401dd8:	8c420000 	lw	v0,0(v0)
  401ddc:	00000000 	nop
  401de0:	00621021 	addu	v0,v1,v0
  401de4:	8fbf0024 	lw	ra,36(sp)
  401de8:	8fb00020 	lw	s0,32(sp)
  401dec:	03e00008 	jr	ra
  401df0:	27bd0028 	addiu	sp,sp,40
