
/tmp/crc:     file format elf32-bigmips

SYMBOL TABLE:
00400000 l    d  .reginfo	00000000 .reginfo
00400018 l    d  .text	00000000 .text
00401570 l    d  .data	00000000 .data
00401680 l    d  .sbss	00000000 .sbss
00401684 l    d  .bss	00000000 .bss
00000000 l    d  .pdr	00000000 .pdr
00000000 l    d  .wcet_annot	00000000 .wcet_annot
00000000 l    d  .comment	00000000 .comment
00000000 l    d  .debug_aranges	00000000 .debug_aranges
00000000 l    d  .debug_info	00000000 .debug_info
00000000 l    d  .debug_abbrev	00000000 .debug_abbrev
00000000 l    d  .debug_line	00000000 .debug_line
00000000 l    d  .debug_frame	00000000 .debug_frame
00000000 l    d  .debug_str	00000000 .debug_str
00000000 l    d  .debug_loc	00000000 .debug_loc
00000000 l    d  .gnu.attributes	00000000 .gnu.attributes
00000010 l    d  .mdebug.abi32	00000000 .mdebug.abi32
00000000 l    df *ABS*	00000000 crc.c
00401680 l     O .sbss	00000002 init.1396
00401684 l     O .bss	00000200 icrctb.1395
00401670 l     O .data	00000010 it.1402
00401884 l     O .bss	00000100 rchr.1397
00401570 g       .data	00000000 _fdata
00409670 g       *ABS*	00000000 _gp
00400018 g     F .text	000000bc icrc1
00400018 g       .text	00000000 _ftext
00401680 g       *ABS*	00000000 __bss_start
00400490 g     F .text	000000e0 main
00401680 g       *ABS*	00000000 _edata
00401984 g       *ABS*	00000000 _end
00401570 g     O .data	00000100 lin
004000d4 g     F .text	000003bc icrc
00401680 g       *ABS*	00000000 _fbss



Disassembly of section .text:

00400018 <icrc1>:
  400018:	27bdfff8 	addiu	sp,sp,-8
  40001c:	00801821 	move	v1,a0
  400020:	00a01021 	move	v0,a1
  400024:	a7a30008 	sh	v1,8(sp)
  400028:	a3a2000c 	sb	v0,12(sp)
  40002c:	93a2000c 	lbu	v0,12(sp)
  400030:	00000000 	nop
  400034:	00021200 	sll	v0,v0,0x8
  400038:	00021c00 	sll	v1,v0,0x10
  40003c:	00031c03 	sra	v1,v1,0x10
  400040:	87a20008 	lh	v0,8(sp)
  400044:	00000000 	nop
  400048:	00621026 	xor	v0,v1,v0
  40004c:	00021400 	sll	v0,v0,0x10
  400050:	00021403 	sra	v0,v0,0x10
  400054:	a7a20004 	sh	v0,4(sp)
  400058:	0810002d 	j	4000b4 <icrc1+0x9c>
  40005c:	afa00000 	sw	zero,0(sp)
  400060:	87a20004 	lh	v0,4(sp)
  400064:	00000000 	nop
  400068:	0441000a 	bgez	v0,400094 <icrc1+0x7c>
  40006c:	00000000 	nop
  400070:	97a20004 	lhu	v0,4(sp)
  400074:	00000000 	nop
  400078:	00021040 	sll	v0,v0,0x1
  40007c:	a7a20004 	sh	v0,4(sp)
  400080:	97a20004 	lhu	v0,4(sp)
  400084:	00000000 	nop
  400088:	38421021 	xori	v0,v0,0x1021
  40008c:	08100029 	j	4000a4 <icrc1+0x8c>
  400090:	a7a20004 	sh	v0,4(sp)
  400094:	97a20004 	lhu	v0,4(sp)
  400098:	00000000 	nop
  40009c:	00021040 	sll	v0,v0,0x1
  4000a0:	a7a20004 	sh	v0,4(sp)
  4000a4:	8fa20000 	lw	v0,0(sp)
  4000a8:	00000000 	nop
  4000ac:	24420001 	addiu	v0,v0,1
  4000b0:	afa20000 	sw	v0,0(sp)
  4000b4:	8fa20000 	lw	v0,0(sp)
  4000b8:	00000000 	nop
  4000bc:	28420008 	slti	v0,v0,8
  4000c0:	1440ffe7 	bnez	v0,400060 <icrc1+0x48>
  4000c4:	00000000 	nop
  4000c8:	97a20004 	lhu	v0,4(sp)
  4000cc:	03e00008 	jr	ra
  4000d0:	27bd0008 	addiu	sp,sp,8

004000d4 <icrc>:
  4000d4:	27bdffe0 	addiu	sp,sp,-32
  4000d8:	afbf001c 	sw	ra,28(sp)
  4000dc:	afb00018 	sw	s0,24(sp)
  4000e0:	00801821 	move	v1,a0
  4000e4:	afa50024 	sw	a1,36(sp)
  4000e8:	00c01021 	move	v0,a2
  4000ec:	afa7002c 	sw	a3,44(sp)
  4000f0:	a7a30020 	sh	v1,32(sp)
  4000f4:	a7a20028 	sh	v0,40(sp)
  4000f8:	97a20020 	lhu	v0,32(sp)
  4000fc:	00000000 	nop
  400100:	a7a20016 	sh	v0,22(sp)
  400104:	97828010 	lhu	v0,-32752(gp)
  400108:	00000000 	nop
  40010c:	1440003c 	bnez	v0,400200 <icrc+0x12c>
  400110:	00000000 	nop
  400114:	24020001 	li	v0,1
  400118:	a7828010 	sh	v0,-32752(gp)
  40011c:	0810007b 	j	4001ec <icrc+0x118>
  400120:	a7a00014 	sh	zero,20(sp)
  400124:	97b00014 	lhu	s0,20(sp)
  400128:	97a20014 	lhu	v0,20(sp)
  40012c:	00000000 	nop
  400130:	00021200 	sll	v0,v0,0x8
  400134:	3042ffff 	andi	v0,v0,0xffff
  400138:	00402021 	move	a0,v0
  40013c:	0c100006 	jal	400018 <icrc1>
  400140:	00002821 	move	a1,zero
  400144:	00401821 	move	v1,v0
  400148:	3c020040 	lui	v0,0x40
  40014c:	00102040 	sll	a0,s0,0x1
  400150:	24421684 	addiu	v0,v0,5764
  400154:	00821021 	addu	v0,a0,v0
  400158:	a4430000 	sh	v1,0(v0)
  40015c:	97a40014 	lhu	a0,20(sp)
  400160:	97a20014 	lhu	v0,20(sp)
  400164:	00000000 	nop
  400168:	3043000f 	andi	v1,v0,0xf
  40016c:	3c020040 	lui	v0,0x40
  400170:	24421670 	addiu	v0,v0,5744
  400174:	00621021 	addu	v0,v1,v0
  400178:	90420000 	lbu	v0,0(v0)
  40017c:	00000000 	nop
  400180:	00021100 	sll	v0,v0,0x4
  400184:	00021e00 	sll	v1,v0,0x18
  400188:	00031e03 	sra	v1,v1,0x18
  40018c:	97a20014 	lhu	v0,20(sp)
  400190:	00000000 	nop
  400194:	00021102 	srl	v0,v0,0x4
  400198:	3042ffff 	andi	v0,v0,0xffff
  40019c:	00402821 	move	a1,v0
  4001a0:	3c020040 	lui	v0,0x40
  4001a4:	24421670 	addiu	v0,v0,5744
  4001a8:	00a21021 	addu	v0,a1,v0
  4001ac:	90420000 	lbu	v0,0(v0)
  4001b0:	00000000 	nop
  4001b4:	00021600 	sll	v0,v0,0x18
  4001b8:	00021603 	sra	v0,v0,0x18
  4001bc:	00621025 	or	v0,v1,v0
  4001c0:	00021600 	sll	v0,v0,0x18
  4001c4:	00021603 	sra	v0,v0,0x18
  4001c8:	304300ff 	andi	v1,v0,0xff
  4001cc:	3c020040 	lui	v0,0x40
  4001d0:	24421884 	addiu	v0,v0,6276
  4001d4:	00821021 	addu	v0,a0,v0
  4001d8:	a0430000 	sb	v1,0(v0)
  4001dc:	97a20014 	lhu	v0,20(sp)
  4001e0:	00000000 	nop
  4001e4:	24420001 	addiu	v0,v0,1
  4001e8:	a7a20014 	sh	v0,20(sp)
  4001ec:	97a20014 	lhu	v0,20(sp)
  4001f0:	00000000 	nop
  4001f4:	2c420100 	sltiu	v0,v0,256
  4001f8:	1440ffca 	bnez	v0,400124 <icrc+0x50>
  4001fc:	00000000 	nop
  400200:	87a20028 	lh	v0,40(sp)
  400204:	00000000 	nop
  400208:	04400011 	bltz	v0,400250 <icrc+0x17c>
  40020c:	00000000 	nop
  400210:	97a20028 	lhu	v0,40(sp)
  400214:	00000000 	nop
  400218:	304200ff 	andi	v0,v0,0xff
  40021c:	00021c00 	sll	v1,v0,0x10
  400220:	00031c03 	sra	v1,v1,0x10
  400224:	97a20028 	lhu	v0,40(sp)
  400228:	00000000 	nop
  40022c:	304200ff 	andi	v0,v0,0xff
  400230:	00021200 	sll	v0,v0,0x8
  400234:	00021400 	sll	v0,v0,0x10
  400238:	00021403 	sra	v0,v0,0x10
  40023c:	00621025 	or	v0,v1,v0
  400240:	00021400 	sll	v0,v0,0x10
  400244:	00021403 	sra	v0,v0,0x10
  400248:	081000b5 	j	4002d4 <icrc+0x200>
  40024c:	a7a20016 	sh	v0,22(sp)
  400250:	8fa2002c 	lw	v0,44(sp)
  400254:	00000000 	nop
  400258:	0441001e 	bgez	v0,4002d4 <icrc+0x200>
  40025c:	00000000 	nop
  400260:	97a20016 	lhu	v0,22(sp)
  400264:	00000000 	nop
  400268:	00021202 	srl	v0,v0,0x8
  40026c:	3042ffff 	andi	v0,v0,0xffff
  400270:	304200ff 	andi	v0,v0,0xff
  400274:	00401821 	move	v1,v0
  400278:	3c020040 	lui	v0,0x40
  40027c:	24421884 	addiu	v0,v0,6276
  400280:	00621021 	addu	v0,v1,v0
  400284:	90420000 	lbu	v0,0(v0)
  400288:	00000000 	nop
  40028c:	00021c00 	sll	v1,v0,0x10
  400290:	00031c03 	sra	v1,v1,0x10
  400294:	97a20016 	lhu	v0,22(sp)
  400298:	00000000 	nop
  40029c:	304200ff 	andi	v0,v0,0xff
  4002a0:	00402021 	move	a0,v0
  4002a4:	3c020040 	lui	v0,0x40
  4002a8:	24421884 	addiu	v0,v0,6276
  4002ac:	00821021 	addu	v0,a0,v0
  4002b0:	90420000 	lbu	v0,0(v0)
  4002b4:	00000000 	nop
  4002b8:	00021200 	sll	v0,v0,0x8
  4002bc:	00021400 	sll	v0,v0,0x10
  4002c0:	00021403 	sra	v0,v0,0x10
  4002c4:	00621025 	or	v0,v1,v0
  4002c8:	00021400 	sll	v0,v0,0x10
  4002cc:	00021403 	sra	v0,v0,0x10
  4002d0:	a7a20016 	sh	v0,22(sp)
  4002d4:	24020001 	li	v0,1
  4002d8:	081000f4 	j	4003d0 <icrc+0x2fc>
  4002dc:	a7a20014 	sh	v0,20(sp)
  4002e0:	8fa2002c 	lw	v0,44(sp)
  4002e4:	00000000 	nop
  4002e8:	04410015 	bgez	v0,400340 <icrc+0x26c>
  4002ec:	00000000 	nop
  4002f0:	97a30014 	lhu	v1,20(sp)
  4002f4:	3c020040 	lui	v0,0x40
  4002f8:	24421570 	addiu	v0,v0,5488
  4002fc:	00621021 	addu	v0,v1,v0
  400300:	90420000 	lbu	v0,0(v0)
  400304:	00000000 	nop
  400308:	00401821 	move	v1,v0
  40030c:	3c020040 	lui	v0,0x40
  400310:	24421884 	addiu	v0,v0,6276
  400314:	00621021 	addu	v0,v1,v0
  400318:	90430000 	lbu	v1,0(v0)
  40031c:	97a20016 	lhu	v0,22(sp)
  400320:	00000000 	nop
  400324:	00021202 	srl	v0,v0,0x8
  400328:	3042ffff 	andi	v0,v0,0xffff
  40032c:	304200ff 	andi	v0,v0,0xff
  400330:	00621026 	xor	v0,v1,v0
  400334:	304200ff 	andi	v0,v0,0xff
  400338:	081000dd 	j	400374 <icrc+0x2a0>
  40033c:	a7a20010 	sh	v0,16(sp)
  400340:	97a30014 	lhu	v1,20(sp)
  400344:	3c020040 	lui	v0,0x40
  400348:	24421570 	addiu	v0,v0,5488
  40034c:	00621021 	addu	v0,v1,v0
  400350:	90430000 	lbu	v1,0(v0)
  400354:	97a20016 	lhu	v0,22(sp)
  400358:	00000000 	nop
  40035c:	00021202 	srl	v0,v0,0x8
  400360:	3042ffff 	andi	v0,v0,0xffff
  400364:	304200ff 	andi	v0,v0,0xff
  400368:	00621026 	xor	v0,v1,v0
  40036c:	304200ff 	andi	v0,v0,0xff
  400370:	a7a20010 	sh	v0,16(sp)
  400374:	97a30010 	lhu	v1,16(sp)
  400378:	3c020040 	lui	v0,0x40
  40037c:	00031840 	sll	v1,v1,0x1
  400380:	24421684 	addiu	v0,v0,5764
  400384:	00621021 	addu	v0,v1,v0
  400388:	94420000 	lhu	v0,0(v0)
  40038c:	00000000 	nop
  400390:	00021c00 	sll	v1,v0,0x10
  400394:	00031c03 	sra	v1,v1,0x10
  400398:	97a20016 	lhu	v0,22(sp)
  40039c:	00000000 	nop
  4003a0:	304200ff 	andi	v0,v0,0xff
  4003a4:	00021200 	sll	v0,v0,0x8
  4003a8:	00021400 	sll	v0,v0,0x10
  4003ac:	00021403 	sra	v0,v0,0x10
  4003b0:	00621026 	xor	v0,v1,v0
  4003b4:	00021400 	sll	v0,v0,0x10
  4003b8:	00021403 	sra	v0,v0,0x10
  4003bc:	a7a20016 	sh	v0,22(sp)
  4003c0:	97a20014 	lhu	v0,20(sp)
  4003c4:	00000000 	nop
  4003c8:	24420001 	addiu	v0,v0,1
  4003cc:	a7a20014 	sh	v0,20(sp)
  4003d0:	97a30014 	lhu	v1,20(sp)
  4003d4:	8fa20024 	lw	v0,36(sp)
  4003d8:	00000000 	nop
  4003dc:	0043102b 	sltu	v0,v0,v1
  4003e0:	1040ffbf 	beqz	v0,4002e0 <icrc+0x20c>
  4003e4:	00000000 	nop
  4003e8:	8fa2002c 	lw	v0,44(sp)
  4003ec:	00000000 	nop
  4003f0:	04400005 	bltz	v0,400408 <icrc+0x334>
  4003f4:	00000000 	nop
  4003f8:	97a20016 	lhu	v0,22(sp)
  4003fc:	00000000 	nop
  400400:	0810011f 	j	40047c <icrc+0x3a8>
  400404:	a7a20012 	sh	v0,18(sp)
  400408:	97a20016 	lhu	v0,22(sp)
  40040c:	00000000 	nop
  400410:	00021202 	srl	v0,v0,0x8
  400414:	3042ffff 	andi	v0,v0,0xffff
  400418:	304200ff 	andi	v0,v0,0xff
  40041c:	00401821 	move	v1,v0
  400420:	3c020040 	lui	v0,0x40
  400424:	24421884 	addiu	v0,v0,6276
  400428:	00621021 	addu	v0,v1,v0
  40042c:	90420000 	lbu	v0,0(v0)
  400430:	00000000 	nop
  400434:	00021c00 	sll	v1,v0,0x10
  400438:	00031c03 	sra	v1,v1,0x10
  40043c:	97a20016 	lhu	v0,22(sp)
  400440:	00000000 	nop
  400444:	304200ff 	andi	v0,v0,0xff
  400448:	00402021 	move	a0,v0
  40044c:	3c020040 	lui	v0,0x40
  400450:	24421884 	addiu	v0,v0,6276
  400454:	00821021 	addu	v0,a0,v0
  400458:	90420000 	lbu	v0,0(v0)
  40045c:	00000000 	nop
  400460:	00021200 	sll	v0,v0,0x8
  400464:	00021400 	sll	v0,v0,0x10
  400468:	00021403 	sra	v0,v0,0x10
  40046c:	00621025 	or	v0,v1,v0
  400470:	00021400 	sll	v0,v0,0x10
  400474:	00021403 	sra	v0,v0,0x10
  400478:	a7a20012 	sh	v0,18(sp)
  40047c:	97a20012 	lhu	v0,18(sp)
  400480:	8fbf001c 	lw	ra,28(sp)
  400484:	8fb00018 	lw	s0,24(sp)
  400488:	03e00008 	jr	ra
  40048c:	27bd0020 	addiu	sp,sp,32

00400490 <main>:
  400490:	27bdffe0 	addiu	sp,sp,-32
  400494:	afbf001c 	sw	ra,28(sp)
  400498:	24020028 	li	v0,40
  40049c:	afa20010 	sw	v0,16(sp)
  4004a0:	8fa20010 	lw	v0,16(sp)
  4004a4:	00000000 	nop
  4004a8:	24430001 	addiu	v1,v0,1
  4004ac:	3c020040 	lui	v0,0x40
  4004b0:	24421570 	addiu	v0,v0,5488
  4004b4:	00621021 	addu	v0,v1,v0
  4004b8:	a0400000 	sb	zero,0(v0)
  4004bc:	00002021 	move	a0,zero
  4004c0:	8fa50010 	lw	a1,16(sp)
  4004c4:	00003021 	move	a2,zero
  4004c8:	24070001 	li	a3,1
  4004cc:	0c100035 	jal	4000d4 <icrc>
  4004d0:	00000000 	nop
  4004d4:	a7a20014 	sh	v0,20(sp)
  4004d8:	8fa20010 	lw	v0,16(sp)
  4004dc:	00000000 	nop
  4004e0:	24440001 	addiu	a0,v0,1
  4004e4:	97a20014 	lhu	v0,20(sp)
  4004e8:	00000000 	nop
  4004ec:	00021202 	srl	v0,v0,0x8
  4004f0:	3042ffff 	andi	v0,v0,0xffff
  4004f4:	304300ff 	andi	v1,v0,0xff
  4004f8:	3c020040 	lui	v0,0x40
  4004fc:	24421570 	addiu	v0,v0,5488
  400500:	00821021 	addu	v0,a0,v0
  400504:	a0430000 	sb	v1,0(v0)
  400508:	8fa20010 	lw	v0,16(sp)
  40050c:	00000000 	nop
  400510:	24440002 	addiu	a0,v0,2
  400514:	97a20014 	lhu	v0,20(sp)
  400518:	00000000 	nop
  40051c:	304300ff 	andi	v1,v0,0xff
  400520:	3c020040 	lui	v0,0x40
  400524:	24421570 	addiu	v0,v0,5488
  400528:	00821021 	addu	v0,a0,v0
  40052c:	a0430000 	sb	v1,0(v0)
  400530:	97a30014 	lhu	v1,20(sp)
  400534:	8fa20010 	lw	v0,16(sp)
  400538:	00000000 	nop
  40053c:	24420002 	addiu	v0,v0,2
  400540:	00602021 	move	a0,v1
  400544:	00402821 	move	a1,v0
  400548:	00003021 	move	a2,zero
  40054c:	24070001 	li	a3,1
  400550:	0c100035 	jal	4000d4 <icrc>
  400554:	00000000 	nop
  400558:	a7a20016 	sh	v0,22(sp)
  40055c:	00001021 	move	v0,zero
  400560:	8fbf001c 	lw	ra,28(sp)
  400564:	27bd0020 	addiu	sp,sp,32
  400568:	03e00008 	jr	ra
  40056c:	00000000 	nop
