
/tmp/qurt:     file format elf32-bigmips

SYMBOL TABLE:
00400000 l    d  .reginfo	00000000 .reginfo
00400018 l    d  .text	00000000 .text
00401988 l    d  .sdata	00000000 .sdata
004019d0 l    d  .sbss	00000000 .sbss
004019d8 l    d  .bss	00000000 .bss
00000000 l    d  .pdr	00000000 .pdr
00000000 l    d  .wcet_annot	00000000 .wcet_annot
00000000 l    d  .comment	00000000 .comment
00000000 l    d  .debug_aranges	00000000 .debug_aranges
00000000 l    d  .debug_info	00000000 .debug_info
00000000 l    d  .debug_abbrev	00000000 .debug_abbrev
00000000 l    d  .debug_line	00000000 .debug_line
00000000 l    d  .debug_frame	00000000 .debug_frame
00000000 l    d  .debug_str	00000000 .debug_str
00000000 l    d  .debug_loc	00000000 .debug_loc
00000000 l    d  .gnu.attributes	00000000 .gnu.attributes
00000010 l    d  .mdebug.abi32	00000000 .mdebug.abi32
00000000 l    df *ABS*	00000000 qurt.c
00401984 g       .sdata	00000000 _fdata
00409980 g       *ABS*	00000000 _gp
004019d0 g     O .sbss	00000004 flag
004000b4 g     F .text	00000288 my_sqrt
004019d8 g     O .bss	00000010 x2
00400018 g       .text	00000000 _ftext
00400018 g     F .text	0000009c my_fabs
004019d0 g       *ABS*	00000000 __bss_start
0040033c g     F .text	00000100 main
004019e8 g     O .bss	00000010 x1
004019d0 g       *ABS*	00000000 _edata
00401a10 g       *ABS*	00000000 _end
004019f8 g     O .bss	00000018 a
0040043c g     F .text	00000548 qurt
004019d0 g       *ABS*	00000000 _fbss



Disassembly of section .text:

00400018 <my_fabs>:
  400018:	27bdfff8 	addiu	sp,sp,-8
  40001c:	e7ac000c 	swc1	$f12,12(sp)
  400020:	e7ad0008 	swc1	$f13,8(sp)
  400024:	8fa5000c 	lw	a1,12(sp)
  400028:	8fa40008 	lw	a0,8(sp)
  40002c:	00001821 	move	v1,zero
  400030:	00001021 	move	v0,zero
  400034:	44850000 	mtc1	a1,$f0
  400038:	00000000 	nop
  40003c:	44840800 	mtc1	a0,$f1
  400040:	44831000 	mtc1	v1,$f2
  400044:	00000000 	nop
  400048:	44821800 	mtc1	v0,$f3
  40004c:	00000000 	nop
  400050:	4620103e 	c.le.d	$f2,$f0
  400054:	00000000 	nop
  400058:	45000007 	bc1f	400078 <my_fabs+0x60>
  40005c:	00000000 	nop
  400060:	8fa3000c 	lw	v1,12(sp)
  400064:	8fa20008 	lw	v0,8(sp)
  400068:	afa30004 	sw	v1,4(sp)
  40006c:	afa20000 	sw	v0,0(sp)
  400070:	08100025 	j	400094 <my_fabs+0x7c>
  400074:	00000000 	nop
  400078:	8fa30008 	lw	v1,8(sp)
  40007c:	3c028000 	lui	v0,0x8000
  400080:	00621026 	xor	v0,v1,v0
  400084:	afa20000 	sw	v0,0(sp)
  400088:	8fa2000c 	lw	v0,12(sp)
  40008c:	00000000 	nop
  400090:	afa20004 	sw	v0,4(sp)
  400094:	8fa30004 	lw	v1,4(sp)
  400098:	8fa20000 	lw	v0,0(sp)
  40009c:	44830000 	mtc1	v1,$f0
  4000a0:	00000000 	nop
  4000a4:	44820800 	mtc1	v0,$f1
  4000a8:	27bd0008 	addiu	sp,sp,8
  4000ac:	03e00008 	jr	ra
  4000b0:	00000000 	nop

004000b4 <my_sqrt>:
  4000b4:	27bdffc0 	addiu	sp,sp,-64
  4000b8:	afbf003c 	sw	ra,60(sp)
  4000bc:	e7ac0044 	swc1	$f12,68(sp)
  4000c0:	e7ad0040 	swc1	$f13,64(sp)
  4000c4:	8fa50044 	lw	a1,68(sp)
  4000c8:	8fa40040 	lw	a0,64(sp)
  4000cc:	8f83800c 	lw	v1,-32756(gp)
  4000d0:	8f828008 	lw	v0,-32760(gp)
  4000d4:	44850000 	mtc1	a1,$f0
  4000d8:	44840800 	mtc1	a0,$f1
  4000dc:	44831000 	mtc1	v1,$f2
  4000e0:	44821800 	mtc1	v0,$f3
  4000e4:	00000000 	nop
  4000e8:	46220003 	div.d	$f0,$f0,$f2
  4000ec:	44030000 	mfc1	v1,$f0
  4000f0:	44020800 	mfc1	v0,$f1
  4000f4:	afa30014 	sw	v1,20(sp)
  4000f8:	afa20010 	sw	v0,16(sp)
  4000fc:	8f838014 	lw	v1,-32748(gp)
  400100:	8f828010 	lw	v0,-32752(gp)
  400104:	afa30024 	sw	v1,36(sp)
  400108:	afa20020 	sw	v0,32(sp)
  40010c:	afa0001c 	sw	zero,28(sp)
  400110:	8fa50044 	lw	a1,68(sp)
  400114:	8fa40040 	lw	a0,64(sp)
  400118:	00001821 	move	v1,zero
  40011c:	00001021 	move	v0,zero
  400120:	44850000 	mtc1	a1,$f0
  400124:	44840800 	mtc1	a0,$f1
  400128:	44831000 	mtc1	v1,$f2
  40012c:	44821800 	mtc1	v0,$f3
  400130:	00000000 	nop
  400134:	46220032 	c.eq.d	$f0,$f2
  400138:	00000000 	nop
  40013c:	45000004 	bc1f	400150 <my_sqrt+0x9c>
  400140:	00000000 	nop
  400144:	afa00014 	sw	zero,20(sp)
  400148:	081000c7 	j	40031c <my_sqrt+0x268>
  40014c:	afa00010 	sw	zero,16(sp)
  400150:	24020001 	li	v0,1
  400154:	081000c2 	j	400308 <my_sqrt+0x254>
  400158:	afa20018 	sw	v0,24(sp)
  40015c:	8fa2001c 	lw	v0,28(sp)
  400160:	00000000 	nop
  400164:	14400064 	bnez	v0,4002f8 <my_sqrt+0x244>
  400168:	00000000 	nop
  40016c:	8fa50014 	lw	a1,20(sp)
  400170:	8fa40010 	lw	a0,16(sp)
  400174:	8fa30014 	lw	v1,20(sp)
  400178:	8fa20010 	lw	v0,16(sp)
  40017c:	44850000 	mtc1	a1,$f0
  400180:	44840800 	mtc1	a0,$f1
  400184:	44831000 	mtc1	v1,$f2
  400188:	44821800 	mtc1	v0,$f3
  40018c:	00000000 	nop
  400190:	46220002 	mul.d	$f0,$f0,$f2
  400194:	44030000 	mfc1	v1,$f0
  400198:	44020800 	mfc1	v0,$f1
  40019c:	8fa50044 	lw	a1,68(sp)
  4001a0:	8fa40040 	lw	a0,64(sp)
  4001a4:	44850000 	mtc1	a1,$f0
  4001a8:	44840800 	mtc1	a0,$f1
  4001ac:	44831000 	mtc1	v1,$f2
  4001b0:	44821800 	mtc1	v0,$f3
  4001b4:	00000000 	nop
  4001b8:	46220001 	sub.d	$f0,$f0,$f2
  4001bc:	44050000 	mfc1	a1,$f0
  4001c0:	44040800 	mfc1	a0,$f1
  4001c4:	8fa30014 	lw	v1,20(sp)
  4001c8:	8fa20010 	lw	v0,16(sp)
  4001cc:	44830000 	mtc1	v1,$f0
  4001d0:	44820800 	mtc1	v0,$f1
  4001d4:	44831000 	mtc1	v1,$f2
  4001d8:	44821800 	mtc1	v0,$f3
  4001dc:	00000000 	nop
  4001e0:	46220000 	add.d	$f0,$f0,$f2
  4001e4:	44030000 	mfc1	v1,$f0
  4001e8:	44020800 	mfc1	v0,$f1
  4001ec:	44850000 	mtc1	a1,$f0
  4001f0:	44840800 	mtc1	a0,$f1
  4001f4:	44831000 	mtc1	v1,$f2
  4001f8:	44821800 	mtc1	v0,$f3
  4001fc:	00000000 	nop
  400200:	46220003 	div.d	$f0,$f0,$f2
  400204:	44030000 	mfc1	v1,$f0
  400208:	44020800 	mfc1	v0,$f1
  40020c:	afa3002c 	sw	v1,44(sp)
  400210:	afa20028 	sw	v0,40(sp)
  400214:	8fa50014 	lw	a1,20(sp)
  400218:	8fa40010 	lw	a0,16(sp)
  40021c:	8fa3002c 	lw	v1,44(sp)
  400220:	8fa20028 	lw	v0,40(sp)
  400224:	44850000 	mtc1	a1,$f0
  400228:	44840800 	mtc1	a0,$f1
  40022c:	44831000 	mtc1	v1,$f2
  400230:	44821800 	mtc1	v0,$f3
  400234:	00000000 	nop
  400238:	46220000 	add.d	$f0,$f0,$f2
  40023c:	44030000 	mfc1	v1,$f0
  400240:	44020800 	mfc1	v0,$f1
  400244:	afa30014 	sw	v1,20(sp)
  400248:	afa20010 	sw	v0,16(sp)
  40024c:	8fa50014 	lw	a1,20(sp)
  400250:	8fa40010 	lw	a0,16(sp)
  400254:	8fa30014 	lw	v1,20(sp)
  400258:	8fa20010 	lw	v0,16(sp)
  40025c:	44850000 	mtc1	a1,$f0
  400260:	44840800 	mtc1	a0,$f1
  400264:	44831000 	mtc1	v1,$f2
  400268:	44821800 	mtc1	v0,$f3
  40026c:	00000000 	nop
  400270:	46220002 	mul.d	$f0,$f0,$f2
  400274:	44030000 	mfc1	v1,$f0
  400278:	44020800 	mfc1	v0,$f1
  40027c:	8fa50044 	lw	a1,68(sp)
  400280:	8fa40040 	lw	a0,64(sp)
  400284:	44850000 	mtc1	a1,$f0
  400288:	44840800 	mtc1	a0,$f1
  40028c:	44831000 	mtc1	v1,$f2
  400290:	44821800 	mtc1	v0,$f3
  400294:	00000000 	nop
  400298:	46220001 	sub.d	$f0,$f0,$f2
  40029c:	44030000 	mfc1	v1,$f0
  4002a0:	44020800 	mfc1	v0,$f1
  4002a4:	afa30034 	sw	v1,52(sp)
  4002a8:	afa20030 	sw	v0,48(sp)
  4002ac:	c7ac0034 	lwc1	$f12,52(sp)
  4002b0:	c7ad0030 	lwc1	$f13,48(sp)
  4002b4:	0c100006 	jal	400018 <my_fabs>
  4002b8:	00000000 	nop
  4002bc:	44050000 	mfc1	a1,$f0
  4002c0:	44040800 	mfc1	a0,$f1
  4002c4:	8fa30024 	lw	v1,36(sp)
  4002c8:	8fa20020 	lw	v0,32(sp)
  4002cc:	44850000 	mtc1	a1,$f0
  4002d0:	44840800 	mtc1	a0,$f1
  4002d4:	44831000 	mtc1	v1,$f2
  4002d8:	44821800 	mtc1	v0,$f3
  4002dc:	00000000 	nop
  4002e0:	4622003e 	c.le.d	$f0,$f2
  4002e4:	00000000 	nop
  4002e8:	45000003 	bc1f	4002f8 <my_sqrt+0x244>
  4002ec:	00000000 	nop
  4002f0:	24020001 	li	v0,1
  4002f4:	afa2001c 	sw	v0,28(sp)
  4002f8:	8fa20018 	lw	v0,24(sp)
  4002fc:	00000000 	nop
  400300:	24420001 	addiu	v0,v0,1
  400304:	afa20018 	sw	v0,24(sp)
  400308:	8fa20018 	lw	v0,24(sp)
  40030c:	00000000 	nop
  400310:	28420014 	slti	v0,v0,20
  400314:	1440ff91 	bnez	v0,40015c <my_sqrt+0xa8>
  400318:	00000000 	nop
  40031c:	8fa30014 	lw	v1,20(sp)
  400320:	8fa20010 	lw	v0,16(sp)
  400324:	44830000 	mtc1	v1,$f0
  400328:	44820800 	mtc1	v0,$f1
  40032c:	8fbf003c 	lw	ra,60(sp)
  400330:	27bd0040 	addiu	sp,sp,64
  400334:	03e00008 	jr	ra
  400338:	00000000 	nop

0040033c <main>:
  40033c:	27bdffe8 	addiu	sp,sp,-24
  400340:	afbf0014 	sw	ra,20(sp)
  400344:	3c040040 	lui	a0,0x40
  400348:	8f83801c 	lw	v1,-32740(gp)
  40034c:	8f828018 	lw	v0,-32744(gp)
  400350:	ac8319fc 	sw	v1,6652(a0)
  400354:	ac8219f8 	sw	v0,6648(a0)
  400358:	3c020040 	lui	v0,0x40
  40035c:	244419f8 	addiu	a0,v0,6648
  400360:	8f838024 	lw	v1,-32732(gp)
  400364:	8f828020 	lw	v0,-32736(gp)
  400368:	ac83000c 	sw	v1,12(a0)
  40036c:	ac820008 	sw	v0,8(a0)
  400370:	3c020040 	lui	v0,0x40
  400374:	244419f8 	addiu	a0,v0,6648
  400378:	8f83802c 	lw	v1,-32724(gp)
  40037c:	8f828028 	lw	v0,-32728(gp)
  400380:	ac830014 	sw	v1,20(a0)
  400384:	ac820010 	sw	v0,16(a0)
  400388:	0c10010f 	jal	40043c <qurt>
  40038c:	00000000 	nop
  400390:	3c040040 	lui	a0,0x40
  400394:	8f83801c 	lw	v1,-32740(gp)
  400398:	8f828018 	lw	v0,-32744(gp)
  40039c:	ac8319fc 	sw	v1,6652(a0)
  4003a0:	ac8219f8 	sw	v0,6648(a0)
  4003a4:	3c020040 	lui	v0,0x40
  4003a8:	244419f8 	addiu	a0,v0,6648
  4003ac:	8f838034 	lw	v1,-32716(gp)
  4003b0:	8f828030 	lw	v0,-32720(gp)
  4003b4:	ac83000c 	sw	v1,12(a0)
  4003b8:	ac820008 	sw	v0,8(a0)
  4003bc:	3c020040 	lui	v0,0x40
  4003c0:	244419f8 	addiu	a0,v0,6648
  4003c4:	8f83801c 	lw	v1,-32740(gp)
  4003c8:	8f828018 	lw	v0,-32744(gp)
  4003cc:	ac830014 	sw	v1,20(a0)
  4003d0:	ac820010 	sw	v0,16(a0)
  4003d4:	0c10010f 	jal	40043c <qurt>
  4003d8:	00000000 	nop
  4003dc:	3c040040 	lui	a0,0x40
  4003e0:	8f83801c 	lw	v1,-32740(gp)
  4003e4:	8f828018 	lw	v0,-32744(gp)
  4003e8:	ac8319fc 	sw	v1,6652(a0)
  4003ec:	ac8219f8 	sw	v0,6648(a0)
  4003f0:	3c020040 	lui	v0,0x40
  4003f4:	244419f8 	addiu	a0,v0,6648
  4003f8:	8f83803c 	lw	v1,-32708(gp)
  4003fc:	8f828038 	lw	v0,-32712(gp)
  400400:	ac83000c 	sw	v1,12(a0)
  400404:	ac820008 	sw	v0,8(a0)
  400408:	3c020040 	lui	v0,0x40
  40040c:	244419f8 	addiu	a0,v0,6648
  400410:	8f838044 	lw	v1,-32700(gp)
  400414:	8f828040 	lw	v0,-32704(gp)
  400418:	ac830014 	sw	v1,20(a0)
  40041c:	ac820010 	sw	v0,16(a0)
  400420:	0c10010f 	jal	40043c <qurt>
  400424:	00000000 	nop
  400428:	00001021 	move	v0,zero
  40042c:	8fbf0014 	lw	ra,20(sp)
  400430:	27bd0018 	addiu	sp,sp,24
  400434:	03e00008 	jr	ra
  400438:	00000000 	nop

0040043c <qurt>:
  40043c:	27bdffb0 	addiu	sp,sp,-80
  400440:	afbf004c 	sw	ra,76(sp)
  400444:	afb70048 	sw	s7,72(sp)
  400448:	afb60044 	sw	s6,68(sp)
  40044c:	afb50040 	sw	s5,64(sp)
  400450:	afb4003c 	sw	s4,60(sp)
  400454:	afb30038 	sw	s3,56(sp)
  400458:	afb20034 	sw	s2,52(sp)
  40045c:	afb10030 	sw	s1,48(sp)
  400460:	afb0002c 	sw	s0,44(sp)
  400464:	3c020040 	lui	v0,0x40
  400468:	8c4519fc 	lw	a1,6652(v0)
  40046c:	8c4419f8 	lw	a0,6648(v0)
  400470:	00001821 	move	v1,zero
  400474:	00001021 	move	v0,zero
  400478:	44850000 	mtc1	a1,$f0
  40047c:	00000000 	nop
  400480:	44840800 	mtc1	a0,$f1
  400484:	44831000 	mtc1	v1,$f2
  400488:	00000000 	nop
  40048c:	44821800 	mtc1	v0,$f3
  400490:	00000000 	nop
  400494:	46220032 	c.eq.d	$f0,$f2
  400498:	00000000 	nop
  40049c:	45000004 	bc1f	4004b0 <qurt+0x74>
  4004a0:	00000000 	nop
  4004a4:	240203e7 	li	v0,999
  4004a8:	08100255 	j	400954 <qurt+0x518>
  4004ac:	00000000 	nop
  4004b0:	3c020040 	lui	v0,0x40
  4004b4:	244219f8 	addiu	v0,v0,6648
  4004b8:	8c45000c 	lw	a1,12(v0)
  4004bc:	8c440008 	lw	a0,8(v0)
  4004c0:	3c020040 	lui	v0,0x40
  4004c4:	244219f8 	addiu	v0,v0,6648
  4004c8:	8c43000c 	lw	v1,12(v0)
  4004cc:	8c420008 	lw	v0,8(v0)
  4004d0:	44850000 	mtc1	a1,$f0
  4004d4:	00000000 	nop
  4004d8:	44840800 	mtc1	a0,$f1
  4004dc:	44831000 	mtc1	v1,$f2
  4004e0:	00000000 	nop
  4004e4:	44821800 	mtc1	v0,$f3
  4004e8:	00000000 	nop
  4004ec:	46220002 	mul.d	$f0,$f0,$f2
  4004f0:	44050000 	mfc1	a1,$f0
  4004f4:	44040800 	mfc1	a0,$f1
  4004f8:	3c020040 	lui	v0,0x40
  4004fc:	8c4719fc 	lw	a3,6652(v0)
  400500:	8c4619f8 	lw	a2,6648(v0)
  400504:	8f83804c 	lw	v1,-32692(gp)
  400508:	8f828048 	lw	v0,-32696(gp)
  40050c:	44870000 	mtc1	a3,$f0
  400510:	00000000 	nop
  400514:	44860800 	mtc1	a2,$f1
  400518:	44831000 	mtc1	v1,$f2
  40051c:	00000000 	nop
  400520:	44821800 	mtc1	v0,$f3
  400524:	00000000 	nop
  400528:	46220002 	mul.d	$f0,$f0,$f2
  40052c:	44070000 	mfc1	a3,$f0
  400530:	44060800 	mfc1	a2,$f1
  400534:	3c020040 	lui	v0,0x40
  400538:	244219f8 	addiu	v0,v0,6648
  40053c:	8c430014 	lw	v1,20(v0)
  400540:	8c420010 	lw	v0,16(v0)
  400544:	44870000 	mtc1	a3,$f0
  400548:	00000000 	nop
  40054c:	44860800 	mtc1	a2,$f1
  400550:	44831000 	mtc1	v1,$f2
  400554:	00000000 	nop
  400558:	44821800 	mtc1	v0,$f3
  40055c:	00000000 	nop
  400560:	46220002 	mul.d	$f0,$f0,$f2
  400564:	44030000 	mfc1	v1,$f0
  400568:	44020800 	mfc1	v0,$f1
  40056c:	44850000 	mtc1	a1,$f0
  400570:	00000000 	nop
  400574:	44840800 	mtc1	a0,$f1
  400578:	44831000 	mtc1	v1,$f2
  40057c:	00000000 	nop
  400580:	44821800 	mtc1	v0,$f3
  400584:	00000000 	nop
  400588:	46220001 	sub.d	$f0,$f0,$f2
  40058c:	44030000 	mfc1	v1,$f0
  400590:	44020800 	mfc1	v0,$f1
  400594:	afa30014 	sw	v1,20(sp)
  400598:	afa20010 	sw	v0,16(sp)
  40059c:	3c020040 	lui	v0,0x40
  4005a0:	8c4319fc 	lw	v1,6652(v0)
  4005a4:	8c4219f8 	lw	v0,6648(v0)
  4005a8:	44830000 	mtc1	v1,$f0
  4005ac:	00000000 	nop
  4005b0:	44820800 	mtc1	v0,$f1
  4005b4:	44831000 	mtc1	v1,$f2
  4005b8:	00000000 	nop
  4005bc:	44821800 	mtc1	v0,$f3
  4005c0:	00000000 	nop
  4005c4:	46220000 	add.d	$f0,$f0,$f2
  4005c8:	44030000 	mfc1	v1,$f0
  4005cc:	44020800 	mfc1	v0,$f1
  4005d0:	afa3001c 	sw	v1,28(sp)
  4005d4:	afa20018 	sw	v0,24(sp)
  4005d8:	c7ac0014 	lwc1	$f12,20(sp)
  4005dc:	00000000 	nop
  4005e0:	c7ad0010 	lwc1	$f13,16(sp)
  4005e4:	0c100006 	jal	400018 <my_fabs>
  4005e8:	00000000 	nop
  4005ec:	44030000 	mfc1	v1,$f0
  4005f0:	44020800 	mfc1	v0,$f1
  4005f4:	44836000 	mtc1	v1,$f12
  4005f8:	00000000 	nop
  4005fc:	44826800 	mtc1	v0,$f13
  400600:	0c10002d 	jal	4000b4 <my_sqrt>
  400604:	00000000 	nop
  400608:	e7a00024 	swc1	$f0,36(sp)
  40060c:	e7a10020 	swc1	$f1,32(sp)
  400610:	8fa50014 	lw	a1,20(sp)
  400614:	8fa40010 	lw	a0,16(sp)
  400618:	00001821 	move	v1,zero
  40061c:	00001021 	move	v0,zero
  400620:	44850000 	mtc1	a1,$f0
  400624:	00000000 	nop
  400628:	44840800 	mtc1	a0,$f1
  40062c:	44831000 	mtc1	v1,$f2
  400630:	00000000 	nop
  400634:	44821800 	mtc1	v0,$f3
  400638:	00000000 	nop
  40063c:	4620103c 	c.lt.d	$f2,$f0
  400640:	00000000 	nop
  400644:	4500004f 	bc1f	400784 <qurt+0x348>
  400648:	00000000 	nop
  40064c:	24020001 	li	v0,1
  400650:	af828050 	sw	v0,-32688(gp)
  400654:	3c020040 	lui	v0,0x40
  400658:	244219f8 	addiu	v0,v0,6648
  40065c:	8c43000c 	lw	v1,12(v0)
  400660:	8c420008 	lw	v0,8(v0)
  400664:	8fa50024 	lw	a1,36(sp)
  400668:	8fa40020 	lw	a0,32(sp)
  40066c:	44850000 	mtc1	a1,$f0
  400670:	00000000 	nop
  400674:	44840800 	mtc1	a0,$f1
  400678:	44831000 	mtc1	v1,$f2
  40067c:	00000000 	nop
  400680:	44821800 	mtc1	v0,$f3
  400684:	00000000 	nop
  400688:	46220001 	sub.d	$f0,$f0,$f2
  40068c:	44050000 	mfc1	a1,$f0
  400690:	44040800 	mfc1	a0,$f1
  400694:	8fa3001c 	lw	v1,28(sp)
  400698:	8fa20018 	lw	v0,24(sp)
  40069c:	44850000 	mtc1	a1,$f0
  4006a0:	00000000 	nop
  4006a4:	44840800 	mtc1	a0,$f1
  4006a8:	44831000 	mtc1	v1,$f2
  4006ac:	00000000 	nop
  4006b0:	44821800 	mtc1	v0,$f3
  4006b4:	00000000 	nop
  4006b8:	46220003 	div.d	$f0,$f0,$f2
  4006bc:	44030000 	mfc1	v1,$f0
  4006c0:	44020800 	mfc1	v0,$f1
  4006c4:	3c040040 	lui	a0,0x40
  4006c8:	ac8319ec 	sw	v1,6636(a0)
  4006cc:	ac8219e8 	sw	v0,6632(a0)
  4006d0:	3c020040 	lui	v0,0x40
  4006d4:	244219e8 	addiu	v0,v0,6632
  4006d8:	ac40000c 	sw	zero,12(v0)
  4006dc:	ac400008 	sw	zero,8(v0)
  4006e0:	3c020040 	lui	v0,0x40
  4006e4:	244219f8 	addiu	v0,v0,6648
  4006e8:	8c43000c 	lw	v1,12(v0)
  4006ec:	8c420008 	lw	v0,8(v0)
  4006f0:	3c048000 	lui	a0,0x8000
  4006f4:	0044b026 	xor	s6,v0,a0
  4006f8:	0060b821 	move	s7,v1
  4006fc:	8fa30024 	lw	v1,36(sp)
  400700:	8fa20020 	lw	v0,32(sp)
  400704:	44970000 	mtc1	s7,$f0
  400708:	00000000 	nop
  40070c:	44960800 	mtc1	s6,$f1
  400710:	44831000 	mtc1	v1,$f2
  400714:	00000000 	nop
  400718:	44821800 	mtc1	v0,$f3
  40071c:	00000000 	nop
  400720:	46220001 	sub.d	$f0,$f0,$f2
  400724:	44050000 	mfc1	a1,$f0
  400728:	44040800 	mfc1	a0,$f1
  40072c:	8fa3001c 	lw	v1,28(sp)
  400730:	8fa20018 	lw	v0,24(sp)
  400734:	44850000 	mtc1	a1,$f0
  400738:	00000000 	nop
  40073c:	44840800 	mtc1	a0,$f1
  400740:	44831000 	mtc1	v1,$f2
  400744:	00000000 	nop
  400748:	44821800 	mtc1	v0,$f3
  40074c:	00000000 	nop
  400750:	46220003 	div.d	$f0,$f0,$f2
  400754:	44030000 	mfc1	v1,$f0
  400758:	44020800 	mfc1	v0,$f1
  40075c:	3c040040 	lui	a0,0x40
  400760:	ac8319dc 	sw	v1,6620(a0)
  400764:	ac8219d8 	sw	v0,6616(a0)
  400768:	3c020040 	lui	v0,0x40
  40076c:	244219d8 	addiu	v0,v0,6616
  400770:	ac40000c 	sw	zero,12(v0)
  400774:	ac400008 	sw	zero,8(v0)
  400778:	00001021 	move	v0,zero
  40077c:	08100255 	j	400954 <qurt+0x518>
  400780:	00000000 	nop
  400784:	8fa50014 	lw	a1,20(sp)
  400788:	8fa40010 	lw	a0,16(sp)
  40078c:	00001821 	move	v1,zero
  400790:	00001021 	move	v0,zero
  400794:	44850000 	mtc1	a1,$f0
  400798:	00000000 	nop
  40079c:	44840800 	mtc1	a0,$f1
  4007a0:	44831000 	mtc1	v1,$f2
  4007a4:	00000000 	nop
  4007a8:	44821800 	mtc1	v0,$f3
  4007ac:	00000000 	nop
  4007b0:	46220032 	c.eq.d	$f0,$f2
  4007b4:	00000000 	nop
  4007b8:	45000029 	bc1f	400860 <qurt+0x424>
  4007bc:	00000000 	nop
  4007c0:	af808050 	sw	zero,-32688(gp)
  4007c4:	3c020040 	lui	v0,0x40
  4007c8:	244219f8 	addiu	v0,v0,6648
  4007cc:	8c43000c 	lw	v1,12(v0)
  4007d0:	8c420008 	lw	v0,8(v0)
  4007d4:	3c048000 	lui	a0,0x8000
  4007d8:	0044a026 	xor	s4,v0,a0
  4007dc:	0060a821 	move	s5,v1
  4007e0:	8fa3001c 	lw	v1,28(sp)
  4007e4:	8fa20018 	lw	v0,24(sp)
  4007e8:	44950000 	mtc1	s5,$f0
  4007ec:	00000000 	nop
  4007f0:	44940800 	mtc1	s4,$f1
  4007f4:	44831000 	mtc1	v1,$f2
  4007f8:	00000000 	nop
  4007fc:	44821800 	mtc1	v0,$f3
  400800:	00000000 	nop
  400804:	46220003 	div.d	$f0,$f0,$f2
  400808:	44030000 	mfc1	v1,$f0
  40080c:	44020800 	mfc1	v0,$f1
  400810:	3c040040 	lui	a0,0x40
  400814:	ac8319ec 	sw	v1,6636(a0)
  400818:	ac8219e8 	sw	v0,6632(a0)
  40081c:	3c020040 	lui	v0,0x40
  400820:	244219e8 	addiu	v0,v0,6632
  400824:	ac40000c 	sw	zero,12(v0)
  400828:	ac400008 	sw	zero,8(v0)
  40082c:	3c020040 	lui	v0,0x40
  400830:	8c4319ec 	lw	v1,6636(v0)
  400834:	8c4219e8 	lw	v0,6632(v0)
  400838:	3c040040 	lui	a0,0x40
  40083c:	ac8319dc 	sw	v1,6620(a0)
  400840:	ac8219d8 	sw	v0,6616(a0)
  400844:	3c020040 	lui	v0,0x40
  400848:	244219d8 	addiu	v0,v0,6616
  40084c:	ac40000c 	sw	zero,12(v0)
  400850:	ac400008 	sw	zero,8(v0)
  400854:	00001021 	move	v0,zero
  400858:	08100255 	j	400954 <qurt+0x518>
  40085c:	00000000 	nop
  400860:	2402ffff 	li	v0,-1
  400864:	af828050 	sw	v0,-32688(gp)
  400868:	8fa50024 	lw	a1,36(sp)
  40086c:	8fa40020 	lw	a0,32(sp)
  400870:	8fa3001c 	lw	v1,28(sp)
  400874:	8fa20018 	lw	v0,24(sp)
  400878:	44850000 	mtc1	a1,$f0
  40087c:	00000000 	nop
  400880:	44840800 	mtc1	a0,$f1
  400884:	44831000 	mtc1	v1,$f2
  400888:	00000000 	nop
  40088c:	44821800 	mtc1	v0,$f3
  400890:	00000000 	nop
  400894:	46220003 	div.d	$f0,$f0,$f2
  400898:	44030000 	mfc1	v1,$f0
  40089c:	44020800 	mfc1	v0,$f1
  4008a0:	afa30024 	sw	v1,36(sp)
  4008a4:	afa20020 	sw	v0,32(sp)
  4008a8:	3c020040 	lui	v0,0x40
  4008ac:	244219f8 	addiu	v0,v0,6648
  4008b0:	8c43000c 	lw	v1,12(v0)
  4008b4:	8c420008 	lw	v0,8(v0)
  4008b8:	3c048000 	lui	a0,0x8000
  4008bc:	00449026 	xor	s2,v0,a0
  4008c0:	00609821 	move	s3,v1
  4008c4:	8fa3001c 	lw	v1,28(sp)
  4008c8:	8fa20018 	lw	v0,24(sp)
  4008cc:	44930000 	mtc1	s3,$f0
  4008d0:	00000000 	nop
  4008d4:	44920800 	mtc1	s2,$f1
  4008d8:	44831000 	mtc1	v1,$f2
  4008dc:	00000000 	nop
  4008e0:	44821800 	mtc1	v0,$f3
  4008e4:	00000000 	nop
  4008e8:	46220003 	div.d	$f0,$f0,$f2
  4008ec:	44030000 	mfc1	v1,$f0
  4008f0:	44020800 	mfc1	v0,$f1
  4008f4:	3c040040 	lui	a0,0x40
  4008f8:	ac8319ec 	sw	v1,6636(a0)
  4008fc:	ac8219e8 	sw	v0,6632(a0)
  400900:	3c020040 	lui	v0,0x40
  400904:	244419e8 	addiu	a0,v0,6632
  400908:	8fa30024 	lw	v1,36(sp)
  40090c:	8fa20020 	lw	v0,32(sp)
  400910:	ac83000c 	sw	v1,12(a0)
  400914:	ac820008 	sw	v0,8(a0)
  400918:	3c020040 	lui	v0,0x40
  40091c:	8c4319ec 	lw	v1,6636(v0)
  400920:	8c4219e8 	lw	v0,6632(v0)
  400924:	3c040040 	lui	a0,0x40
  400928:	ac8319dc 	sw	v1,6620(a0)
  40092c:	ac8219d8 	sw	v0,6616(a0)
  400930:	8fa30020 	lw	v1,32(sp)
  400934:	3c028000 	lui	v0,0x8000
  400938:	00628026 	xor	s0,v1,v0
  40093c:	8fb10024 	lw	s1,36(sp)
  400940:	3c020040 	lui	v0,0x40
  400944:	244219d8 	addiu	v0,v0,6616
  400948:	ac51000c 	sw	s1,12(v0)
  40094c:	ac500008 	sw	s0,8(v0)
  400950:	00001021 	move	v0,zero
  400954:	8fbf004c 	lw	ra,76(sp)
  400958:	8fb70048 	lw	s7,72(sp)
  40095c:	8fb60044 	lw	s6,68(sp)
  400960:	8fb50040 	lw	s5,64(sp)
  400964:	8fb4003c 	lw	s4,60(sp)
  400968:	8fb30038 	lw	s3,56(sp)
  40096c:	8fb20034 	lw	s2,52(sp)
  400970:	8fb10030 	lw	s1,48(sp)
  400974:	8fb0002c 	lw	s0,44(sp)
  400978:	27bd0050 	addiu	sp,sp,80
  40097c:	03e00008 	jr	ra
  400980:	00000000 	nop
