
/tmp/ndes:     file format elf32-bigmips

SYMBOL TABLE:
00400000 l    d  .reginfo	00000000 .reginfo
00400018 l    d  .text	00000000 .text
00401000 l    d  .data	00000000 .data
004013a0 l    d  .sdata	00000000 .sdata
004013a8 l    d  .sbss	00000000 .sbss
004013b0 l    d  .bss	00000000 .bss
00000000 l    d  .pdr	00000000 .pdr
00000000 l    d  .wcet_annot	00000000 .wcet_annot
00000000 l    d  .comment	00000000 .comment
00000000 l    d  .debug_aranges	00000000 .debug_aranges
00000000 l    d  .debug_info	00000000 .debug_info
00000000 l    d  .debug_abbrev	00000000 .debug_abbrev
00000000 l    d  .debug_line	00000000 .debug_line
00000000 l    d  .debug_frame	00000000 .debug_frame
00000000 l    d  .debug_str	00000000 .debug_str
00000000 l    d  .debug_loc	00000000 .debug_loc
00000000 l    d  .gnu.attributes	00000000 .gnu.attributes
00000010 l    d  .mdebug.abi32	00000000 .mdebug.abi32
00000000 l    df *ABS*	00000000 ndes.c
004013a8 l     O .sbss	00000008 icd
00401000 l     O .data	00000039 ipc1
0040103c l     O .data	00000031 ipc2
004013a4 l     O .sdata	00000004 initflag.1405
004013b0 l     O .bss	000000cc kns.1404
00401318 l     O .data	00000041 ip.1402
0040135c l     O .data	00000041 ipm.1403
00401070 l     O .data	00000031 iet.1458
004010a4 l     O .data	00000240 is.1460
004012e4 l     O .data	00000010 ibin.1461
004012f4 l     O .data	00000021 ipp.1459
0040065c g     F .text	000002f4 ks
00401000 g       .data	00000000 _fdata
00409390 g       *ABS*	00000000 _gp
0040147c g     O .bss	00000084 bit
00400018 g       .text	00000000 _ftext
00400018 g     F .text	00000584 des
004013a8 g       *ABS*	00000000 __bss_start
00400e7c g     F .text	00000088 main
00400950 g     F .text	0000052c cyfun
004013a8 g       *ABS*	00000000 _edata
00401500 g       *ABS*	00000000 _end
0040059c g     F .text	000000c0 getbit
004013a8 g       *ABS*	00000000 _fbss
004013a0 g     O .sdata	00000004 value



Disassembly of section .text:

00400018 <des>:
  400018:	27bdffb0 	addiu	sp,sp,-80
  40001c:	afbf004c 	sw	ra,76(sp)
  400020:	afb00048 	sw	s0,72(sp)
  400024:	afa40050 	sw	a0,80(sp)
  400028:	afa50054 	sw	a1,84(sp)
  40002c:	afa60058 	sw	a2,88(sp)
  400030:	afa7005c 	sw	a3,92(sp)
  400034:	8f828014 	lw	v0,-32748(gp)
  400038:	00000000 	nop
  40003c:	10400022 	beqz	v0,4000c8 <des+0xb0>
  400040:	00000000 	nop
  400044:	af808014 	sw	zero,-32748(gp)
  400048:	24020001 	li	v0,1
  40004c:	afa20024 	sw	v0,36(sp)
  400050:	3c020040 	lui	v0,0x40
  400054:	2442147c 	addiu	v0,v0,5244
  400058:	8fa30024 	lw	v1,36(sp)
  40005c:	00000000 	nop
  400060:	ac430004 	sw	v1,4(v0)
  400064:	24020002 	li	v0,2
  400068:	0810002d 	j	4000b4 <des+0x9c>
  40006c:	afa2001c 	sw	v0,28(sp)
  400070:	8fa20024 	lw	v0,36(sp)
  400074:	00000000 	nop
  400078:	00021040 	sll	v0,v0,0x1
  40007c:	afa20024 	sw	v0,36(sp)
  400080:	3c020040 	lui	v0,0x40
  400084:	8fa3001c 	lw	v1,28(sp)
  400088:	00000000 	nop
  40008c:	00031880 	sll	v1,v1,0x2
  400090:	2442147c 	addiu	v0,v0,5244
  400094:	00621021 	addu	v0,v1,v0
  400098:	8fa30024 	lw	v1,36(sp)
  40009c:	00000000 	nop
  4000a0:	ac430000 	sw	v1,0(v0)
  4000a4:	8fa2001c 	lw	v0,28(sp)
  4000a8:	00000000 	nop
  4000ac:	24420001 	addiu	v0,v0,1
  4000b0:	afa2001c 	sw	v0,28(sp)
  4000b4:	8fa2001c 	lw	v0,28(sp)
  4000b8:	00000000 	nop
  4000bc:	28420021 	slti	v0,v0,33
  4000c0:	1440ffeb 	bnez	v0,400070 <des+0x58>
  4000c4:	00000000 	nop
  4000c8:	8fa20060 	lw	v0,96(sp)
  4000cc:	00000000 	nop
  4000d0:	8c420000 	lw	v0,0(v0)
  4000d4:	00000000 	nop
  4000d8:	10400069 	beqz	v0,400280 <des+0x268>
  4000dc:	00000000 	nop
  4000e0:	8fa20060 	lw	v0,96(sp)
  4000e4:	00000000 	nop
  4000e8:	ac400000 	sw	zero,0(v0)
  4000ec:	af808018 	sw	zero,-32744(gp)
  4000f0:	8f828018 	lw	v0,-32744(gp)
  4000f4:	00000000 	nop
  4000f8:	af82801c 	sw	v0,-32740(gp)
  4000fc:	2402001c 	li	v0,28
  400100:	afa2001c 	sw	v0,28(sp)
  400104:	24020038 	li	v0,56
  400108:	08100070 	j	4001c0 <des+0x1a8>
  40010c:	afa20020 	sw	v0,32(sp)
  400110:	8f82801c 	lw	v0,-32740(gp)
  400114:	00000000 	nop
  400118:	00021040 	sll	v0,v0,0x1
  40011c:	af82801c 	sw	v0,-32740(gp)
  400120:	8f90801c 	lw	s0,-32740(gp)
  400124:	3c020040 	lui	v0,0x40
  400128:	24431000 	addiu	v1,v0,4096
  40012c:	8fa2001c 	lw	v0,28(sp)
  400130:	00000000 	nop
  400134:	00621021 	addu	v0,v1,v0
  400138:	80420000 	lb	v0,0(v0)
  40013c:	8fa40058 	lw	a0,88(sp)
  400140:	8fa5005c 	lw	a1,92(sp)
  400144:	00403021 	move	a2,v0
  400148:	0c100167 	jal	40059c <getbit>
  40014c:	24070020 	li	a3,32
  400150:	02021025 	or	v0,s0,v0
  400154:	af82801c 	sw	v0,-32740(gp)
  400158:	8f828018 	lw	v0,-32744(gp)
  40015c:	00000000 	nop
  400160:	00021040 	sll	v0,v0,0x1
  400164:	af828018 	sw	v0,-32744(gp)
  400168:	8f908018 	lw	s0,-32744(gp)
  40016c:	3c020040 	lui	v0,0x40
  400170:	24431000 	addiu	v1,v0,4096
  400174:	8fa20020 	lw	v0,32(sp)
  400178:	00000000 	nop
  40017c:	00621021 	addu	v0,v1,v0
  400180:	80420000 	lb	v0,0(v0)
  400184:	8fa40058 	lw	a0,88(sp)
  400188:	8fa5005c 	lw	a1,92(sp)
  40018c:	00403021 	move	a2,v0
  400190:	0c100167 	jal	40059c <getbit>
  400194:	24070020 	li	a3,32
  400198:	02021025 	or	v0,s0,v0
  40019c:	af828018 	sw	v0,-32744(gp)
  4001a0:	8fa2001c 	lw	v0,28(sp)
  4001a4:	00000000 	nop
  4001a8:	2442ffff 	addiu	v0,v0,-1
  4001ac:	afa2001c 	sw	v0,28(sp)
  4001b0:	8fa20020 	lw	v0,32(sp)
  4001b4:	00000000 	nop
  4001b8:	2442ffff 	addiu	v0,v0,-1
  4001bc:	afa20020 	sw	v0,32(sp)
  4001c0:	8fa2001c 	lw	v0,28(sp)
  4001c4:	00000000 	nop
  4001c8:	1c40ffd1 	bgtz	v0,400110 <des+0xf8>
  4001cc:	00000000 	nop
  4001d0:	24020001 	li	v0,1
  4001d4:	0810009b 	j	40026c <des+0x254>
  4001d8:	afa20018 	sw	v0,24(sp)
  4001dc:	3c040040 	lui	a0,0x40
  4001e0:	8fa20018 	lw	v0,24(sp)
  4001e4:	00000000 	nop
  4001e8:	00021080 	sll	v0,v0,0x2
  4001ec:	00021880 	sll	v1,v0,0x2
  4001f0:	00621823 	subu	v1,v1,v0
  4001f4:	248213b0 	addiu	v0,a0,5040
  4001f8:	00621021 	addu	v0,v1,v0
  4001fc:	8c440000 	lw	a0,0(v0)
  400200:	8c430004 	lw	v1,4(v0)
  400204:	8c420008 	lw	v0,8(v0)
  400208:	afa40038 	sw	a0,56(sp)
  40020c:	afa3003c 	sw	v1,60(sp)
  400210:	afa20040 	sw	v0,64(sp)
  400214:	27a20038 	addiu	v0,sp,56
  400218:	8fa40018 	lw	a0,24(sp)
  40021c:	0c100197 	jal	40065c <ks>
  400220:	00402821 	move	a1,v0
  400224:	3c040040 	lui	a0,0x40
  400228:	8fa20018 	lw	v0,24(sp)
  40022c:	00000000 	nop
  400230:	00021080 	sll	v0,v0,0x2
  400234:	00021880 	sll	v1,v0,0x2
  400238:	00621823 	subu	v1,v1,v0
  40023c:	248213b0 	addiu	v0,a0,5040
  400240:	00621021 	addu	v0,v1,v0
  400244:	8fa50038 	lw	a1,56(sp)
  400248:	8fa4003c 	lw	a0,60(sp)
  40024c:	8fa30040 	lw	v1,64(sp)
  400250:	ac450000 	sw	a1,0(v0)
  400254:	ac440004 	sw	a0,4(v0)
  400258:	ac430008 	sw	v1,8(v0)
  40025c:	8fa20018 	lw	v0,24(sp)
  400260:	00000000 	nop
  400264:	24420001 	addiu	v0,v0,1
  400268:	afa20018 	sw	v0,24(sp)
  40026c:	8fa20018 	lw	v0,24(sp)
  400270:	00000000 	nop
  400274:	28420011 	slti	v0,v0,17
  400278:	1440ffd8 	bnez	v0,4001dc <des+0x1c4>
  40027c:	00000000 	nop
  400280:	afa00030 	sw	zero,48(sp)
  400284:	8fa20030 	lw	v0,48(sp)
  400288:	00000000 	nop
  40028c:	afa20034 	sw	v0,52(sp)
  400290:	24020020 	li	v0,32
  400294:	afa2001c 	sw	v0,28(sp)
  400298:	24020040 	li	v0,64
  40029c:	081000d5 	j	400354 <des+0x33c>
  4002a0:	afa20020 	sw	v0,32(sp)
  4002a4:	8fa20034 	lw	v0,52(sp)
  4002a8:	00000000 	nop
  4002ac:	00021040 	sll	v0,v0,0x1
  4002b0:	afa20034 	sw	v0,52(sp)
  4002b4:	8fb00034 	lw	s0,52(sp)
  4002b8:	3c020040 	lui	v0,0x40
  4002bc:	24431318 	addiu	v1,v0,4888
  4002c0:	8fa2001c 	lw	v0,28(sp)
  4002c4:	00000000 	nop
  4002c8:	00621021 	addu	v0,v1,v0
  4002cc:	80420000 	lb	v0,0(v0)
  4002d0:	8fa40050 	lw	a0,80(sp)
  4002d4:	8fa50054 	lw	a1,84(sp)
  4002d8:	00403021 	move	a2,v0
  4002dc:	0c100167 	jal	40059c <getbit>
  4002e0:	24070020 	li	a3,32
  4002e4:	02021025 	or	v0,s0,v0
  4002e8:	afa20034 	sw	v0,52(sp)
  4002ec:	8fa20030 	lw	v0,48(sp)
  4002f0:	00000000 	nop
  4002f4:	00021040 	sll	v0,v0,0x1
  4002f8:	afa20030 	sw	v0,48(sp)
  4002fc:	8fb00030 	lw	s0,48(sp)
  400300:	3c020040 	lui	v0,0x40
  400304:	24431318 	addiu	v1,v0,4888
  400308:	8fa20020 	lw	v0,32(sp)
  40030c:	00000000 	nop
  400310:	00621021 	addu	v0,v1,v0
  400314:	80420000 	lb	v0,0(v0)
  400318:	8fa40050 	lw	a0,80(sp)
  40031c:	8fa50054 	lw	a1,84(sp)
  400320:	00403021 	move	a2,v0
  400324:	0c100167 	jal	40059c <getbit>
  400328:	24070020 	li	a3,32
  40032c:	02021025 	or	v0,s0,v0
  400330:	afa20030 	sw	v0,48(sp)
  400334:	8fa2001c 	lw	v0,28(sp)
  400338:	00000000 	nop
  40033c:	2442ffff 	addiu	v0,v0,-1
  400340:	afa2001c 	sw	v0,28(sp)
  400344:	8fa20020 	lw	v0,32(sp)
  400348:	00000000 	nop
  40034c:	2442ffff 	addiu	v0,v0,-1
  400350:	afa20020 	sw	v0,32(sp)
  400354:	8fa2001c 	lw	v0,28(sp)
  400358:	00000000 	nop
  40035c:	1c40ffd1 	bgtz	v0,4002a4 <des+0x28c>
  400360:	00000000 	nop
  400364:	24020001 	li	v0,1
  400368:	08100107 	j	40041c <des+0x404>
  40036c:	afa20018 	sw	v0,24(sp)
  400370:	8fa30064 	lw	v1,100(sp)
  400374:	24020001 	li	v0,1
  400378:	14620006 	bne	v1,v0,400394 <des+0x37c>
  40037c:	00000000 	nop
  400380:	24030011 	li	v1,17
  400384:	8fa20018 	lw	v0,24(sp)
  400388:	00000000 	nop
  40038c:	081000e7 	j	40039c <des+0x384>
  400390:	00621023 	subu	v0,v1,v0
  400394:	8fa20018 	lw	v0,24(sp)
  400398:	00000000 	nop
  40039c:	afa20028 	sw	v0,40(sp)
  4003a0:	8fa40030 	lw	a0,48(sp)
  4003a4:	3c050040 	lui	a1,0x40
  4003a8:	8fa20028 	lw	v0,40(sp)
  4003ac:	00000000 	nop
  4003b0:	00021080 	sll	v0,v0,0x2
  4003b4:	00021880 	sll	v1,v0,0x2
  4003b8:	00621823 	subu	v1,v1,v0
  4003bc:	24a213b0 	addiu	v0,a1,5040
  4003c0:	00621021 	addu	v0,v1,v0
  4003c4:	27a3002c 	addiu	v1,sp,44
  4003c8:	afa30010 	sw	v1,16(sp)
  4003cc:	8c450000 	lw	a1,0(v0)
  4003d0:	8c460004 	lw	a2,4(v0)
  4003d4:	8c470008 	lw	a3,8(v0)
  4003d8:	0c100254 	jal	400950 <cyfun>
  4003dc:	00000000 	nop
  4003e0:	8fa30034 	lw	v1,52(sp)
  4003e4:	8fa2002c 	lw	v0,44(sp)
  4003e8:	00000000 	nop
  4003ec:	00621026 	xor	v0,v1,v0
  4003f0:	afa2002c 	sw	v0,44(sp)
  4003f4:	8fa20030 	lw	v0,48(sp)
  4003f8:	00000000 	nop
  4003fc:	afa20034 	sw	v0,52(sp)
  400400:	8fa2002c 	lw	v0,44(sp)
  400404:	00000000 	nop
  400408:	afa20030 	sw	v0,48(sp)
  40040c:	8fa20018 	lw	v0,24(sp)
  400410:	00000000 	nop
  400414:	24420001 	addiu	v0,v0,1
  400418:	afa20018 	sw	v0,24(sp)
  40041c:	8fa20018 	lw	v0,24(sp)
  400420:	00000000 	nop
  400424:	28420011 	slti	v0,v0,17
  400428:	1440ffd1 	bnez	v0,400370 <des+0x358>
  40042c:	00000000 	nop
  400430:	8fa20034 	lw	v0,52(sp)
  400434:	00000000 	nop
  400438:	afa2002c 	sw	v0,44(sp)
  40043c:	8fa20030 	lw	v0,48(sp)
  400440:	00000000 	nop
  400444:	afa20034 	sw	v0,52(sp)
  400448:	8fa2002c 	lw	v0,44(sp)
  40044c:	00000000 	nop
  400450:	afa20030 	sw	v0,48(sp)
  400454:	8fa20068 	lw	v0,104(sp)
  400458:	00000000 	nop
  40045c:	ac400000 	sw	zero,0(v0)
  400460:	8fa20068 	lw	v0,104(sp)
  400464:	00000000 	nop
  400468:	8c430000 	lw	v1,0(v0)
  40046c:	8fa20068 	lw	v0,104(sp)
  400470:	00000000 	nop
  400474:	ac430004 	sw	v1,4(v0)
  400478:	24020020 	li	v0,32
  40047c:	afa2001c 	sw	v0,28(sp)
  400480:	24020040 	li	v0,64
  400484:	0810015f 	j	40057c <des+0x564>
  400488:	afa20020 	sw	v0,32(sp)
  40048c:	8fa20068 	lw	v0,104(sp)
  400490:	00000000 	nop
  400494:	8c420004 	lw	v0,4(v0)
  400498:	00000000 	nop
  40049c:	00021840 	sll	v1,v0,0x1
  4004a0:	8fa20068 	lw	v0,104(sp)
  4004a4:	00000000 	nop
  4004a8:	ac430004 	sw	v1,4(v0)
  4004ac:	8fa20068 	lw	v0,104(sp)
  4004b0:	00000000 	nop
  4004b4:	8c500004 	lw	s0,4(v0)
  4004b8:	3c020040 	lui	v0,0x40
  4004bc:	2443135c 	addiu	v1,v0,4956
  4004c0:	8fa2001c 	lw	v0,28(sp)
  4004c4:	00000000 	nop
  4004c8:	00621021 	addu	v0,v1,v0
  4004cc:	80420000 	lb	v0,0(v0)
  4004d0:	8fa40030 	lw	a0,48(sp)
  4004d4:	8fa50034 	lw	a1,52(sp)
  4004d8:	00403021 	move	a2,v0
  4004dc:	0c100167 	jal	40059c <getbit>
  4004e0:	24070020 	li	a3,32
  4004e4:	02021825 	or	v1,s0,v0
  4004e8:	8fa20068 	lw	v0,104(sp)
  4004ec:	00000000 	nop
  4004f0:	ac430004 	sw	v1,4(v0)
  4004f4:	8fa20068 	lw	v0,104(sp)
  4004f8:	00000000 	nop
  4004fc:	8c420000 	lw	v0,0(v0)
  400500:	00000000 	nop
  400504:	00021840 	sll	v1,v0,0x1
  400508:	8fa20068 	lw	v0,104(sp)
  40050c:	00000000 	nop
  400510:	ac430000 	sw	v1,0(v0)
  400514:	8fa20068 	lw	v0,104(sp)
  400518:	00000000 	nop
  40051c:	8c500000 	lw	s0,0(v0)
  400520:	3c020040 	lui	v0,0x40
  400524:	2443135c 	addiu	v1,v0,4956
  400528:	8fa20020 	lw	v0,32(sp)
  40052c:	00000000 	nop
  400530:	00621021 	addu	v0,v1,v0
  400534:	80420000 	lb	v0,0(v0)
  400538:	8fa40030 	lw	a0,48(sp)
  40053c:	8fa50034 	lw	a1,52(sp)
  400540:	00403021 	move	a2,v0
  400544:	0c100167 	jal	40059c <getbit>
  400548:	24070020 	li	a3,32
  40054c:	02021825 	or	v1,s0,v0
  400550:	8fa20068 	lw	v0,104(sp)
  400554:	00000000 	nop
  400558:	ac430000 	sw	v1,0(v0)
  40055c:	8fa2001c 	lw	v0,28(sp)
  400560:	00000000 	nop
  400564:	2442ffff 	addiu	v0,v0,-1
  400568:	afa2001c 	sw	v0,28(sp)
  40056c:	8fa20020 	lw	v0,32(sp)
  400570:	00000000 	nop
  400574:	2442ffff 	addiu	v0,v0,-1
  400578:	afa20020 	sw	v0,32(sp)
  40057c:	8fa2001c 	lw	v0,28(sp)
  400580:	00000000 	nop
  400584:	1c40ffc1 	bgtz	v0,40048c <des+0x474>
  400588:	00000000 	nop
  40058c:	8fbf004c 	lw	ra,76(sp)
  400590:	8fb00048 	lw	s0,72(sp)
  400594:	03e00008 	jr	ra
  400598:	27bd0050 	addiu	sp,sp,80

0040059c <getbit>:
  40059c:	afa40000 	sw	a0,0(sp)
  4005a0:	afa50004 	sw	a1,4(sp)
  4005a4:	afa60008 	sw	a2,8(sp)
  4005a8:	afa7000c 	sw	a3,12(sp)
  4005ac:	8fa30008 	lw	v1,8(sp)
  4005b0:	8fa2000c 	lw	v0,12(sp)
  4005b4:	00000000 	nop
  4005b8:	0043102a 	slt	v0,v0,v1
  4005bc:	14400013 	bnez	v0,40060c <getbit+0x70>
  4005c0:	00000000 	nop
  4005c4:	3c020040 	lui	v0,0x40
  4005c8:	8fa30008 	lw	v1,8(sp)
  4005cc:	00000000 	nop
  4005d0:	00031880 	sll	v1,v1,0x2
  4005d4:	2442147c 	addiu	v0,v0,5244
  4005d8:	00621021 	addu	v0,v1,v0
  4005dc:	8c430000 	lw	v1,0(v0)
  4005e0:	8fa20004 	lw	v0,4(sp)
  4005e4:	00000000 	nop
  4005e8:	00621024 	and	v0,v1,v0
  4005ec:	10400004 	beqz	v0,400600 <getbit+0x64>
  4005f0:	00000000 	nop
  4005f4:	24020001 	li	v0,1
  4005f8:	08100181 	j	400604 <getbit+0x68>
  4005fc:	00000000 	nop
  400600:	00001021 	move	v0,zero
  400604:	08100195 	j	400654 <getbit+0xb8>
  400608:	00000000 	nop
  40060c:	8fa30008 	lw	v1,8(sp)
  400610:	8fa2000c 	lw	v0,12(sp)
  400614:	00000000 	nop
  400618:	00621823 	subu	v1,v1,v0
  40061c:	3c020040 	lui	v0,0x40
  400620:	00031880 	sll	v1,v1,0x2
  400624:	2442147c 	addiu	v0,v0,5244
  400628:	00621021 	addu	v0,v1,v0
  40062c:	8c430000 	lw	v1,0(v0)
  400630:	8fa20000 	lw	v0,0(sp)
  400634:	00000000 	nop
  400638:	00621024 	and	v0,v1,v0
  40063c:	10400004 	beqz	v0,400650 <getbit+0xb4>
  400640:	00000000 	nop
  400644:	24020001 	li	v0,1
  400648:	08100195 	j	400654 <getbit+0xb8>
  40064c:	00000000 	nop
  400650:	00001021 	move	v0,zero
  400654:	03e00008 	jr	ra
  400658:	00000000 	nop

0040065c <ks>:
  40065c:	27bdffd8 	addiu	sp,sp,-40
  400660:	afbf0024 	sw	ra,36(sp)
  400664:	afb00020 	sw	s0,32(sp)
  400668:	afa40028 	sw	a0,40(sp)
  40066c:	afa5002c 	sw	a1,44(sp)
  400670:	8fa30028 	lw	v1,40(sp)
  400674:	24020001 	li	v0,1
  400678:	1062000d 	beq	v1,v0,4006b0 <ks+0x54>
  40067c:	00000000 	nop
  400680:	8fa30028 	lw	v1,40(sp)
  400684:	24020002 	li	v0,2
  400688:	10620009 	beq	v1,v0,4006b0 <ks+0x54>
  40068c:	00000000 	nop
  400690:	8fa30028 	lw	v1,40(sp)
  400694:	24020009 	li	v0,9
  400698:	10620005 	beq	v1,v0,4006b0 <ks+0x54>
  40069c:	00000000 	nop
  4006a0:	8fa30028 	lw	v1,40(sp)
  4006a4:	24020010 	li	v0,16
  4006a8:	14620012 	bne	v1,v0,4006f4 <ks+0x98>
  4006ac:	00000000 	nop
  4006b0:	8f83801c 	lw	v1,-32740(gp)
  4006b4:	8f82801c 	lw	v0,-32740(gp)
  4006b8:	00000000 	nop
  4006bc:	30420001 	andi	v0,v0,0x1
  4006c0:	00021700 	sll	v0,v0,0x1c
  4006c4:	00621025 	or	v0,v1,v0
  4006c8:	00021042 	srl	v0,v0,0x1
  4006cc:	af82801c 	sw	v0,-32740(gp)
  4006d0:	8f838018 	lw	v1,-32744(gp)
  4006d4:	8f828018 	lw	v0,-32744(gp)
  4006d8:	00000000 	nop
  4006dc:	30420001 	andi	v0,v0,0x1
  4006e0:	00021700 	sll	v0,v0,0x1c
  4006e4:	00621025 	or	v0,v1,v0
  4006e8:	00021042 	srl	v0,v0,0x1
  4006ec:	081001d9 	j	400764 <ks+0x108>
  4006f0:	af828018 	sw	v0,-32744(gp)
  4006f4:	24020001 	li	v0,1
  4006f8:	081001d4 	j	400750 <ks+0xf4>
  4006fc:	afa20010 	sw	v0,16(sp)
  400700:	8f83801c 	lw	v1,-32740(gp)
  400704:	8f82801c 	lw	v0,-32740(gp)
  400708:	00000000 	nop
  40070c:	30420001 	andi	v0,v0,0x1
  400710:	00021700 	sll	v0,v0,0x1c
  400714:	00621025 	or	v0,v1,v0
  400718:	00021042 	srl	v0,v0,0x1
  40071c:	af82801c 	sw	v0,-32740(gp)
  400720:	8f838018 	lw	v1,-32744(gp)
  400724:	8f828018 	lw	v0,-32744(gp)
  400728:	00000000 	nop
  40072c:	30420001 	andi	v0,v0,0x1
  400730:	00021700 	sll	v0,v0,0x1c
  400734:	00621025 	or	v0,v1,v0
  400738:	00021042 	srl	v0,v0,0x1
  40073c:	af828018 	sw	v0,-32744(gp)
  400740:	8fa20010 	lw	v0,16(sp)
  400744:	00000000 	nop
  400748:	24420001 	addiu	v0,v0,1
  40074c:	afa20010 	sw	v0,16(sp)
  400750:	8fa20010 	lw	v0,16(sp)
  400754:	00000000 	nop
  400758:	28420003 	slti	v0,v0,3
  40075c:	1440ffe8 	bnez	v0,400700 <ks+0xa4>
  400760:	00000000 	nop
  400764:	8fa2002c 	lw	v0,44(sp)
  400768:	00000000 	nop
  40076c:	ac400000 	sw	zero,0(v0)
  400770:	8fa2002c 	lw	v0,44(sp)
  400774:	00000000 	nop
  400778:	8c430000 	lw	v1,0(v0)
  40077c:	8fa2002c 	lw	v0,44(sp)
  400780:	00000000 	nop
  400784:	ac430004 	sw	v1,4(v0)
  400788:	8fa2002c 	lw	v0,44(sp)
  40078c:	00000000 	nop
  400790:	8c430004 	lw	v1,4(v0)
  400794:	8fa2002c 	lw	v0,44(sp)
  400798:	00000000 	nop
  40079c:	ac430008 	sw	v1,8(v0)
  4007a0:	24020010 	li	v0,16
  4007a4:	afa20014 	sw	v0,20(sp)
  4007a8:	24020020 	li	v0,32
  4007ac:	afa20018 	sw	v0,24(sp)
  4007b0:	24020030 	li	v0,48
  4007b4:	0810024c 	j	400930 <ks+0x2d4>
  4007b8:	afa2001c 	sw	v0,28(sp)
  4007bc:	8fa2002c 	lw	v0,44(sp)
  4007c0:	00000000 	nop
  4007c4:	8c420008 	lw	v0,8(v0)
  4007c8:	00000000 	nop
  4007cc:	00021840 	sll	v1,v0,0x1
  4007d0:	8fa2002c 	lw	v0,44(sp)
  4007d4:	00000000 	nop
  4007d8:	ac430008 	sw	v1,8(v0)
  4007dc:	8fa2002c 	lw	v0,44(sp)
  4007e0:	00000000 	nop
  4007e4:	8c500008 	lw	s0,8(v0)
  4007e8:	3c020040 	lui	v0,0x40
  4007ec:	2443103c 	addiu	v1,v0,4156
  4007f0:	8fa20014 	lw	v0,20(sp)
  4007f4:	00000000 	nop
  4007f8:	00621021 	addu	v0,v1,v0
  4007fc:	80420000 	lb	v0,0(v0)
  400800:	8f848018 	lw	a0,-32744(gp)
  400804:	8f85801c 	lw	a1,-32740(gp)
  400808:	00403021 	move	a2,v0
  40080c:	0c100167 	jal	40059c <getbit>
  400810:	2407001c 	li	a3,28
  400814:	3042ffff 	andi	v0,v0,0xffff
  400818:	02021825 	or	v1,s0,v0
  40081c:	8fa2002c 	lw	v0,44(sp)
  400820:	00000000 	nop
  400824:	ac430008 	sw	v1,8(v0)
  400828:	8fa2002c 	lw	v0,44(sp)
  40082c:	00000000 	nop
  400830:	8c420004 	lw	v0,4(v0)
  400834:	00000000 	nop
  400838:	00021840 	sll	v1,v0,0x1
  40083c:	8fa2002c 	lw	v0,44(sp)
  400840:	00000000 	nop
  400844:	ac430004 	sw	v1,4(v0)
  400848:	8fa2002c 	lw	v0,44(sp)
  40084c:	00000000 	nop
  400850:	8c500004 	lw	s0,4(v0)
  400854:	3c020040 	lui	v0,0x40
  400858:	2443103c 	addiu	v1,v0,4156
  40085c:	8fa20018 	lw	v0,24(sp)
  400860:	00000000 	nop
  400864:	00621021 	addu	v0,v1,v0
  400868:	80420000 	lb	v0,0(v0)
  40086c:	8f848018 	lw	a0,-32744(gp)
  400870:	8f85801c 	lw	a1,-32740(gp)
  400874:	00403021 	move	a2,v0
  400878:	0c100167 	jal	40059c <getbit>
  40087c:	2407001c 	li	a3,28
  400880:	3042ffff 	andi	v0,v0,0xffff
  400884:	02021825 	or	v1,s0,v0
  400888:	8fa2002c 	lw	v0,44(sp)
  40088c:	00000000 	nop
  400890:	ac430004 	sw	v1,4(v0)
  400894:	8fa2002c 	lw	v0,44(sp)
  400898:	00000000 	nop
  40089c:	8c420000 	lw	v0,0(v0)
  4008a0:	00000000 	nop
  4008a4:	00021840 	sll	v1,v0,0x1
  4008a8:	8fa2002c 	lw	v0,44(sp)
  4008ac:	00000000 	nop
  4008b0:	ac430000 	sw	v1,0(v0)
  4008b4:	8fa2002c 	lw	v0,44(sp)
  4008b8:	00000000 	nop
  4008bc:	8c500000 	lw	s0,0(v0)
  4008c0:	3c020040 	lui	v0,0x40
  4008c4:	2443103c 	addiu	v1,v0,4156
  4008c8:	8fa2001c 	lw	v0,28(sp)
  4008cc:	00000000 	nop
  4008d0:	00621021 	addu	v0,v1,v0
  4008d4:	80420000 	lb	v0,0(v0)
  4008d8:	8f848018 	lw	a0,-32744(gp)
  4008dc:	8f85801c 	lw	a1,-32740(gp)
  4008e0:	00403021 	move	a2,v0
  4008e4:	0c100167 	jal	40059c <getbit>
  4008e8:	2407001c 	li	a3,28
  4008ec:	3042ffff 	andi	v0,v0,0xffff
  4008f0:	02021825 	or	v1,s0,v0
  4008f4:	8fa2002c 	lw	v0,44(sp)
  4008f8:	00000000 	nop
  4008fc:	ac430000 	sw	v1,0(v0)
  400900:	8fa20014 	lw	v0,20(sp)
  400904:	00000000 	nop
  400908:	2442ffff 	addiu	v0,v0,-1
  40090c:	afa20014 	sw	v0,20(sp)
  400910:	8fa20018 	lw	v0,24(sp)
  400914:	00000000 	nop
  400918:	2442ffff 	addiu	v0,v0,-1
  40091c:	afa20018 	sw	v0,24(sp)
  400920:	8fa2001c 	lw	v0,28(sp)
  400924:	00000000 	nop
  400928:	2442ffff 	addiu	v0,v0,-1
  40092c:	afa2001c 	sw	v0,28(sp)
  400930:	8fa20014 	lw	v0,20(sp)
  400934:	00000000 	nop
  400938:	1c40ffa0 	bgtz	v0,4007bc <ks+0x160>
  40093c:	00000000 	nop
  400940:	8fbf0024 	lw	ra,36(sp)
  400944:	8fb00020 	lw	s0,32(sp)
  400948:	03e00008 	jr	ra
  40094c:	27bd0028 	addiu	sp,sp,40

00400950 <cyfun>:
  400950:	27bdffb8 	addiu	sp,sp,-72
  400954:	afa40048 	sw	a0,72(sp)
  400958:	afa5004c 	sw	a1,76(sp)
  40095c:	afa60050 	sw	a2,80(sp)
  400960:	afa70054 	sw	a3,84(sp)
  400964:	3c020040 	lui	v0,0x40
  400968:	2442147c 	addiu	v0,v0,5244
  40096c:	afa2001c 	sw	v0,28(sp)
  400970:	afa0002c 	sw	zero,44(sp)
  400974:	8fa2002c 	lw	v0,44(sp)
  400978:	00000000 	nop
  40097c:	afa20030 	sw	v0,48(sp)
  400980:	8fa20030 	lw	v0,48(sp)
  400984:	00000000 	nop
  400988:	afa20034 	sw	v0,52(sp)
  40098c:	24020010 	li	v0,16
  400990:	afa20010 	sw	v0,16(sp)
  400994:	24020020 	li	v0,32
  400998:	afa20014 	sw	v0,20(sp)
  40099c:	24020030 	li	v0,48
  4009a0:	081002c7 	j	400b1c <cyfun+0x1cc>
  4009a4:	afa20018 	sw	v0,24(sp)
  4009a8:	8fa20034 	lw	v0,52(sp)
  4009ac:	00000000 	nop
  4009b0:	00021040 	sll	v0,v0,0x1
  4009b4:	afa20034 	sw	v0,52(sp)
  4009b8:	8fa30034 	lw	v1,52(sp)
  4009bc:	3c020040 	lui	v0,0x40
  4009c0:	24441070 	addiu	a0,v0,4208
  4009c4:	8fa20010 	lw	v0,16(sp)
  4009c8:	00000000 	nop
  4009cc:	00821021 	addu	v0,a0,v0
  4009d0:	80420000 	lb	v0,0(v0)
  4009d4:	00000000 	nop
  4009d8:	00021080 	sll	v0,v0,0x2
  4009dc:	8fa4001c 	lw	a0,28(sp)
  4009e0:	00000000 	nop
  4009e4:	00821021 	addu	v0,a0,v0
  4009e8:	8c440000 	lw	a0,0(v0)
  4009ec:	8fa20048 	lw	v0,72(sp)
  4009f0:	00000000 	nop
  4009f4:	00821024 	and	v0,a0,v0
  4009f8:	10400003 	beqz	v0,400a08 <cyfun+0xb8>
  4009fc:	00000000 	nop
  400a00:	08100283 	j	400a0c <cyfun+0xbc>
  400a04:	24020001 	li	v0,1
  400a08:	00001021 	move	v0,zero
  400a0c:	00621025 	or	v0,v1,v0
  400a10:	afa20034 	sw	v0,52(sp)
  400a14:	8fa20030 	lw	v0,48(sp)
  400a18:	00000000 	nop
  400a1c:	00021040 	sll	v0,v0,0x1
  400a20:	afa20030 	sw	v0,48(sp)
  400a24:	8fa30030 	lw	v1,48(sp)
  400a28:	3c020040 	lui	v0,0x40
  400a2c:	24441070 	addiu	a0,v0,4208
  400a30:	8fa20014 	lw	v0,20(sp)
  400a34:	00000000 	nop
  400a38:	00821021 	addu	v0,a0,v0
  400a3c:	80420000 	lb	v0,0(v0)
  400a40:	00000000 	nop
  400a44:	00021080 	sll	v0,v0,0x2
  400a48:	8fa4001c 	lw	a0,28(sp)
  400a4c:	00000000 	nop
  400a50:	00821021 	addu	v0,a0,v0
  400a54:	8c440000 	lw	a0,0(v0)
  400a58:	8fa20048 	lw	v0,72(sp)
  400a5c:	00000000 	nop
  400a60:	00821024 	and	v0,a0,v0
  400a64:	10400003 	beqz	v0,400a74 <cyfun+0x124>
  400a68:	00000000 	nop
  400a6c:	0810029e 	j	400a78 <cyfun+0x128>
  400a70:	24020001 	li	v0,1
  400a74:	00001021 	move	v0,zero
  400a78:	00621025 	or	v0,v1,v0
  400a7c:	afa20030 	sw	v0,48(sp)
  400a80:	8fa2002c 	lw	v0,44(sp)
  400a84:	00000000 	nop
  400a88:	00021040 	sll	v0,v0,0x1
  400a8c:	afa2002c 	sw	v0,44(sp)
  400a90:	8fa3002c 	lw	v1,44(sp)
  400a94:	3c020040 	lui	v0,0x40
  400a98:	24441070 	addiu	a0,v0,4208
  400a9c:	8fa20018 	lw	v0,24(sp)
  400aa0:	00000000 	nop
  400aa4:	00821021 	addu	v0,a0,v0
  400aa8:	80420000 	lb	v0,0(v0)
  400aac:	00000000 	nop
  400ab0:	00021080 	sll	v0,v0,0x2
  400ab4:	8fa4001c 	lw	a0,28(sp)
  400ab8:	00000000 	nop
  400abc:	00821021 	addu	v0,a0,v0
  400ac0:	8c440000 	lw	a0,0(v0)
  400ac4:	8fa20048 	lw	v0,72(sp)
  400ac8:	00000000 	nop
  400acc:	00821024 	and	v0,a0,v0
  400ad0:	10400003 	beqz	v0,400ae0 <cyfun+0x190>
  400ad4:	00000000 	nop
  400ad8:	081002b9 	j	400ae4 <cyfun+0x194>
  400adc:	24020001 	li	v0,1
  400ae0:	00001021 	move	v0,zero
  400ae4:	00621025 	or	v0,v1,v0
  400ae8:	afa2002c 	sw	v0,44(sp)
  400aec:	8fa20010 	lw	v0,16(sp)
  400af0:	00000000 	nop
  400af4:	2442ffff 	addiu	v0,v0,-1
  400af8:	afa20010 	sw	v0,16(sp)
  400afc:	8fa20014 	lw	v0,20(sp)
  400b00:	00000000 	nop
  400b04:	2442ffff 	addiu	v0,v0,-1
  400b08:	afa20014 	sw	v0,20(sp)
  400b0c:	8fa20018 	lw	v0,24(sp)
  400b10:	00000000 	nop
  400b14:	2442ffff 	addiu	v0,v0,-1
  400b18:	afa20018 	sw	v0,24(sp)
  400b1c:	8fa20010 	lw	v0,16(sp)
  400b20:	00000000 	nop
  400b24:	1c40ffa0 	bgtz	v0,4009a8 <cyfun+0x58>
  400b28:	00000000 	nop
  400b2c:	8fa30034 	lw	v1,52(sp)
  400b30:	8fa20054 	lw	v0,84(sp)
  400b34:	00000000 	nop
  400b38:	00621026 	xor	v0,v1,v0
  400b3c:	afa20034 	sw	v0,52(sp)
  400b40:	8fa30030 	lw	v1,48(sp)
  400b44:	8fa20050 	lw	v0,80(sp)
  400b48:	00000000 	nop
  400b4c:	00621026 	xor	v0,v1,v0
  400b50:	afa20030 	sw	v0,48(sp)
  400b54:	8fa3002c 	lw	v1,44(sp)
  400b58:	8fa2004c 	lw	v0,76(sp)
  400b5c:	00000000 	nop
  400b60:	00621026 	xor	v0,v1,v0
  400b64:	afa2002c 	sw	v0,44(sp)
  400b68:	8fa20030 	lw	v0,48(sp)
  400b6c:	00000000 	nop
  400b70:	00021c00 	sll	v1,v0,0x10
  400b74:	8fa20034 	lw	v0,52(sp)
  400b78:	00000000 	nop
  400b7c:	00621021 	addu	v0,v1,v0
  400b80:	afa20004 	sw	v0,4(sp)
  400b84:	8fa2002c 	lw	v0,44(sp)
  400b88:	00000000 	nop
  400b8c:	00021a00 	sll	v1,v0,0x8
  400b90:	8fa20030 	lw	v0,48(sp)
  400b94:	00000000 	nop
  400b98:	00021202 	srl	v0,v0,0x8
  400b9c:	00621021 	addu	v0,v1,v0
  400ba0:	afa20008 	sw	v0,8(sp)
  400ba4:	24020001 	li	v0,1
  400ba8:	afa20010 	sw	v0,16(sp)
  400bac:	24020005 	li	v0,5
  400bb0:	08100314 	j	400c50 <cyfun+0x300>
  400bb4:	afa20018 	sw	v0,24(sp)
  400bb8:	8fa20004 	lw	v0,4(sp)
  400bbc:	00000000 	nop
  400bc0:	00021600 	sll	v0,v0,0x18
  400bc4:	00021603 	sra	v0,v0,0x18
  400bc8:	3042003f 	andi	v0,v0,0x3f
  400bcc:	00021e00 	sll	v1,v0,0x18
  400bd0:	00031e03 	sra	v1,v1,0x18
  400bd4:	8fa20010 	lw	v0,16(sp)
  400bd8:	00000000 	nop
  400bdc:	03a21021 	addu	v0,sp,v0
  400be0:	a0430038 	sb	v1,56(v0)
  400be4:	8fa20008 	lw	v0,8(sp)
  400be8:	00000000 	nop
  400bec:	00021600 	sll	v0,v0,0x18
  400bf0:	00021603 	sra	v0,v0,0x18
  400bf4:	3042003f 	andi	v0,v0,0x3f
  400bf8:	00021e00 	sll	v1,v0,0x18
  400bfc:	00031e03 	sra	v1,v1,0x18
  400c00:	8fa20018 	lw	v0,24(sp)
  400c04:	00000000 	nop
  400c08:	03a21021 	addu	v0,sp,v0
  400c0c:	a0430038 	sb	v1,56(v0)
  400c10:	8fa20004 	lw	v0,4(sp)
  400c14:	00000000 	nop
  400c18:	00021182 	srl	v0,v0,0x6
  400c1c:	afa20004 	sw	v0,4(sp)
  400c20:	8fa20008 	lw	v0,8(sp)
  400c24:	00000000 	nop
  400c28:	00021182 	srl	v0,v0,0x6
  400c2c:	afa20008 	sw	v0,8(sp)
  400c30:	8fa20010 	lw	v0,16(sp)
  400c34:	00000000 	nop
  400c38:	24420001 	addiu	v0,v0,1
  400c3c:	afa20010 	sw	v0,16(sp)
  400c40:	8fa20018 	lw	v0,24(sp)
  400c44:	00000000 	nop
  400c48:	24420001 	addiu	v0,v0,1
  400c4c:	afa20018 	sw	v0,24(sp)
  400c50:	8fa20010 	lw	v0,16(sp)
  400c54:	00000000 	nop
  400c58:	28420005 	slti	v0,v0,5
  400c5c:	1440ffd6 	bnez	v0,400bb8 <cyfun+0x268>
  400c60:	00000000 	nop
  400c64:	afa00000 	sw	zero,0(sp)
  400c68:	24020008 	li	v0,8
  400c6c:	08100365 	j	400d94 <cyfun+0x444>
  400c70:	afa2000c 	sw	v0,12(sp)
  400c74:	8fa2000c 	lw	v0,12(sp)
  400c78:	00000000 	nop
  400c7c:	03a21021 	addu	v0,sp,v0
  400c80:	80420038 	lb	v0,56(v0)
  400c84:	00000000 	nop
  400c88:	afa20010 	sw	v0,16(sp)
  400c8c:	8fa20010 	lw	v0,16(sp)
  400c90:	00000000 	nop
  400c94:	30420001 	andi	v0,v0,0x1
  400c98:	00021840 	sll	v1,v0,0x1
  400c9c:	8fa20010 	lw	v0,16(sp)
  400ca0:	00000000 	nop
  400ca4:	30420020 	andi	v0,v0,0x20
  400ca8:	00021143 	sra	v0,v0,0x5
  400cac:	00621021 	addu	v0,v1,v0
  400cb0:	afa20020 	sw	v0,32(sp)
  400cb4:	8fa20010 	lw	v0,16(sp)
  400cb8:	00000000 	nop
  400cbc:	30420002 	andi	v0,v0,0x2
  400cc0:	00021880 	sll	v1,v0,0x2
  400cc4:	8fa20010 	lw	v0,16(sp)
  400cc8:	00000000 	nop
  400ccc:	30420004 	andi	v0,v0,0x4
  400cd0:	00621821 	addu	v1,v1,v0
  400cd4:	8fa20010 	lw	v0,16(sp)
  400cd8:	00000000 	nop
  400cdc:	30420008 	andi	v0,v0,0x8
  400ce0:	00021083 	sra	v0,v0,0x2
  400ce4:	00621821 	addu	v1,v1,v0
  400ce8:	8fa20010 	lw	v0,16(sp)
  400cec:	00000000 	nop
  400cf0:	30420010 	andi	v0,v0,0x10
  400cf4:	00021103 	sra	v0,v0,0x4
  400cf8:	00621021 	addu	v0,v1,v0
  400cfc:	afa20024 	sw	v0,36(sp)
  400d00:	3c040040 	lui	a0,0x40
  400d04:	8fa20020 	lw	v0,32(sp)
  400d08:	8fa50024 	lw	a1,36(sp)
  400d0c:	00401821 	move	v1,v0
  400d10:	000318c0 	sll	v1,v1,0x3
  400d14:	00621821 	addu	v1,v1,v0
  400d18:	00a01021 	move	v0,a1
  400d1c:	00021080 	sll	v0,v0,0x2
  400d20:	000228c0 	sll	a1,v0,0x3
  400d24:	00451021 	addu	v0,v0,a1
  400d28:	00621821 	addu	v1,v1,v0
  400d2c:	248210a4 	addiu	v0,a0,4260
  400d30:	00621821 	addu	v1,v1,v0
  400d34:	8fa2000c 	lw	v0,12(sp)
  400d38:	00000000 	nop
  400d3c:	00621021 	addu	v0,v1,v0
  400d40:	80420000 	lb	v0,0(v0)
  400d44:	00000000 	nop
  400d48:	afa20028 	sw	v0,40(sp)
  400d4c:	8fa20000 	lw	v0,0(sp)
  400d50:	00000000 	nop
  400d54:	00021100 	sll	v0,v0,0x4
  400d58:	afa20000 	sw	v0,0(sp)
  400d5c:	3c020040 	lui	v0,0x40
  400d60:	244312e4 	addiu	v1,v0,4836
  400d64:	8fa20028 	lw	v0,40(sp)
  400d68:	00000000 	nop
  400d6c:	00621021 	addu	v0,v1,v0
  400d70:	80420000 	lb	v0,0(v0)
  400d74:	8fa30000 	lw	v1,0(sp)
  400d78:	00000000 	nop
  400d7c:	00621025 	or	v0,v1,v0
  400d80:	afa20000 	sw	v0,0(sp)
  400d84:	8fa2000c 	lw	v0,12(sp)
  400d88:	00000000 	nop
  400d8c:	2442ffff 	addiu	v0,v0,-1
  400d90:	afa2000c 	sw	v0,12(sp)
  400d94:	8fa2000c 	lw	v0,12(sp)
  400d98:	00000000 	nop
  400d9c:	1c40ffb5 	bgtz	v0,400c74 <cyfun+0x324>
  400da0:	00000000 	nop
  400da4:	8fa20058 	lw	v0,88(sp)
  400da8:	00000000 	nop
  400dac:	ac400000 	sw	zero,0(v0)
  400db0:	3c020040 	lui	v0,0x40
  400db4:	2442147c 	addiu	v0,v0,5244
  400db8:	afa2001c 	sw	v0,28(sp)
  400dbc:	24020020 	li	v0,32
  400dc0:	08100399 	j	400e64 <cyfun+0x514>
  400dc4:	afa20010 	sw	v0,16(sp)
  400dc8:	8fa20058 	lw	v0,88(sp)
  400dcc:	00000000 	nop
  400dd0:	8c420000 	lw	v0,0(v0)
  400dd4:	00000000 	nop
  400dd8:	00021840 	sll	v1,v0,0x1
  400ddc:	8fa20058 	lw	v0,88(sp)
  400de0:	00000000 	nop
  400de4:	ac430000 	sw	v1,0(v0)
  400de8:	8fa20058 	lw	v0,88(sp)
  400dec:	00000000 	nop
  400df0:	8c430000 	lw	v1,0(v0)
  400df4:	3c020040 	lui	v0,0x40
  400df8:	244412f4 	addiu	a0,v0,4852
  400dfc:	8fa20010 	lw	v0,16(sp)
  400e00:	00000000 	nop
  400e04:	00821021 	addu	v0,a0,v0
  400e08:	80420000 	lb	v0,0(v0)
  400e0c:	00000000 	nop
  400e10:	00021080 	sll	v0,v0,0x2
  400e14:	8fa4001c 	lw	a0,28(sp)
  400e18:	00000000 	nop
  400e1c:	00821021 	addu	v0,a0,v0
  400e20:	8c440000 	lw	a0,0(v0)
  400e24:	8fa20000 	lw	v0,0(sp)
  400e28:	00000000 	nop
  400e2c:	00821024 	and	v0,a0,v0
  400e30:	10400003 	beqz	v0,400e40 <cyfun+0x4f0>
  400e34:	00000000 	nop
  400e38:	08100391 	j	400e44 <cyfun+0x4f4>
  400e3c:	24020001 	li	v0,1
  400e40:	00001021 	move	v0,zero
  400e44:	00621825 	or	v1,v1,v0
  400e48:	8fa20058 	lw	v0,88(sp)
  400e4c:	00000000 	nop
  400e50:	ac430000 	sw	v1,0(v0)
  400e54:	8fa20010 	lw	v0,16(sp)
  400e58:	00000000 	nop
  400e5c:	2442ffff 	addiu	v0,v0,-1
  400e60:	afa20010 	sw	v0,16(sp)
  400e64:	8fa20010 	lw	v0,16(sp)
  400e68:	00000000 	nop
  400e6c:	1c40ffd6 	bgtz	v0,400dc8 <cyfun+0x478>
  400e70:	00000000 	nop
  400e74:	03e00008 	jr	ra
  400e78:	27bd0048 	addiu	sp,sp,72

00400e7c <main>:
  400e7c:	27bdffb8 	addiu	sp,sp,-72
  400e80:	afbf0044 	sw	ra,68(sp)
  400e84:	24020023 	li	v0,35
  400e88:	afa20024 	sw	v0,36(sp)
  400e8c:	2402001a 	li	v0,26
  400e90:	afa20028 	sw	v0,40(sp)
  400e94:	24020002 	li	v0,2
  400e98:	afa2002c 	sw	v0,44(sp)
  400e9c:	24020010 	li	v0,16
  400ea0:	afa20030 	sw	v0,48(sp)
  400ea4:	8f828010 	lw	v0,-32752(gp)
  400ea8:	00000000 	nop
  400eac:	afa2003c 	sw	v0,60(sp)
  400eb0:	8f828010 	lw	v0,-32752(gp)
  400eb4:	00000000 	nop
  400eb8:	afa20020 	sw	v0,32(sp)
  400ebc:	27a2003c 	addiu	v0,sp,60
  400ec0:	afa20010 	sw	v0,16(sp)
  400ec4:	8fa20020 	lw	v0,32(sp)
  400ec8:	00000000 	nop
  400ecc:	afa20014 	sw	v0,20(sp)
  400ed0:	27a20034 	addiu	v0,sp,52
  400ed4:	afa20018 	sw	v0,24(sp)
  400ed8:	8fa40024 	lw	a0,36(sp)
  400edc:	8fa50028 	lw	a1,40(sp)
  400ee0:	8fa6002c 	lw	a2,44(sp)
  400ee4:	8fa70030 	lw	a3,48(sp)
  400ee8:	0c100006 	jal	400018 <des>
  400eec:	00000000 	nop
  400ef0:	00001021 	move	v0,zero
  400ef4:	8fbf0044 	lw	ra,68(sp)
  400ef8:	27bd0048 	addiu	sp,sp,72
  400efc:	03e00008 	jr	ra
  400f00:	00000000 	nop
