
/tmp/select:     file format elf32-bigmips

SYMBOL TABLE:
00400000 l    d  .reginfo	00000000 .reginfo
00400018 l    d  .text	00000000 .text
0040177c l    d  .data	00000000 .data
00000000 l    d  .pdr	00000000 .pdr
00000000 l    d  .wcet_annot	00000000 .wcet_annot
00000000 l    d  .comment	00000000 .comment
00000000 l    d  .debug_aranges	00000000 .debug_aranges
00000000 l    d  .debug_info	00000000 .debug_info
00000000 l    d  .debug_abbrev	00000000 .debug_abbrev
00000000 l    d  .debug_line	00000000 .debug_line
00000000 l    d  .debug_frame	00000000 .debug_frame
00000000 l    d  .debug_str	00000000 .debug_str
00000000 l    d  .debug_loc	00000000 .debug_loc
00000000 l    d  .gnu.attributes	00000000 .gnu.attributes
00000010 l    d  .mdebug.abi32	00000000 .mdebug.abi32
00000000 l    df *ABS*	00000000 select.c
0040177c g     O .data	00000050 arr
0040177c g       .data	00000000 _fdata
004097c0 g       *ABS*	00000000 _gp
00400018 g     F .text	0000073c select
00400018 g       .text	00000000 _ftext
004017cc g       *ABS*	00000000 __bss_start
00400754 g     F .text	00000028 main
004017cc g       *ABS*	00000000 _edata
004017cc g       *ABS*	00000000 _end
004017cc g       *ABS*	00000000 _fbss



Disassembly of section .text:

00400018 <select>:
  400018:	27bdffd8 	addiu	sp,sp,-40
  40001c:	afa40028 	sw	a0,40(sp)
  400020:	afa5002c 	sw	a1,44(sp)
  400024:	24020001 	li	v0,1
  400028:	afa2000c 	sw	v0,12(sp)
  40002c:	8fa2002c 	lw	v0,44(sp)
  400030:	00000000 	nop
  400034:	afa20004 	sw	v0,4(sp)
  400038:	afa00018 	sw	zero,24(sp)
  40003c:	8fa20018 	lw	v0,24(sp)
  400040:	00000000 	nop
  400044:	081001c6 	j	400718 <select+0x700>
  400048:	afa20014 	sw	v0,20(sp)
  40004c:	8fa2000c 	lw	v0,12(sp)
  400050:	00000000 	nop
  400054:	24430001 	addiu	v1,v0,1
  400058:	8fa20004 	lw	v0,4(sp)
  40005c:	00000000 	nop
  400060:	0062102b 	sltu	v0,v1,v0
  400064:	14400040 	bnez	v0,400168 <select+0x150>
  400068:	00000000 	nop
  40006c:	8fa2000c 	lw	v0,12(sp)
  400070:	00000000 	nop
  400074:	24430001 	addiu	v1,v0,1
  400078:	8fa20004 	lw	v0,4(sp)
  40007c:	00000000 	nop
  400080:	14620036 	bne	v1,v0,40015c <select+0x144>
  400084:	00000000 	nop
  400088:	3c020040 	lui	v0,0x40
  40008c:	8fa30004 	lw	v1,4(sp)
  400090:	00000000 	nop
  400094:	00031880 	sll	v1,v1,0x2
  400098:	2442177c 	addiu	v0,v0,6012
  40009c:	00621021 	addu	v0,v1,v0
  4000a0:	8c430000 	lw	v1,0(v0)
  4000a4:	3c020040 	lui	v0,0x40
  4000a8:	8fa4000c 	lw	a0,12(sp)
  4000ac:	00000000 	nop
  4000b0:	00042080 	sll	a0,a0,0x2
  4000b4:	2442177c 	addiu	v0,v0,6012
  4000b8:	00821021 	addu	v0,a0,v0
  4000bc:	8c420000 	lw	v0,0(v0)
  4000c0:	44830000 	mtc1	v1,$f0
  4000c4:	44821000 	mtc1	v0,$f2
  4000c8:	00000000 	nop
  4000cc:	4602003c 	c.lt.s	$f0,$f2
  4000d0:	00000000 	nop
  4000d4:	45000021 	bc1f	40015c <select+0x144>
  4000d8:	00000000 	nop
  4000dc:	3c020040 	lui	v0,0x40
  4000e0:	8fa3000c 	lw	v1,12(sp)
  4000e4:	00000000 	nop
  4000e8:	00031880 	sll	v1,v1,0x2
  4000ec:	2442177c 	addiu	v0,v0,6012
  4000f0:	00621021 	addu	v0,v1,v0
  4000f4:	8c420000 	lw	v0,0(v0)
  4000f8:	00000000 	nop
  4000fc:	afa20010 	sw	v0,16(sp)
  400100:	3c020040 	lui	v0,0x40
  400104:	8fa30004 	lw	v1,4(sp)
  400108:	00000000 	nop
  40010c:	00031880 	sll	v1,v1,0x2
  400110:	2442177c 	addiu	v0,v0,6012
  400114:	00621021 	addu	v0,v1,v0
  400118:	8c430000 	lw	v1,0(v0)
  40011c:	3c020040 	lui	v0,0x40
  400120:	8fa4000c 	lw	a0,12(sp)
  400124:	00000000 	nop
  400128:	00042080 	sll	a0,a0,0x2
  40012c:	2442177c 	addiu	v0,v0,6012
  400130:	00821021 	addu	v0,a0,v0
  400134:	ac430000 	sw	v1,0(v0)
  400138:	3c020040 	lui	v0,0x40
  40013c:	8fa30004 	lw	v1,4(sp)
  400140:	00000000 	nop
  400144:	00031880 	sll	v1,v1,0x2
  400148:	2442177c 	addiu	v0,v0,6012
  40014c:	00621021 	addu	v0,v1,v0
  400150:	8fa30010 	lw	v1,16(sp)
  400154:	00000000 	nop
  400158:	ac430000 	sw	v1,0(v0)
  40015c:	24020001 	li	v0,1
  400160:	081001c6 	j	400718 <select+0x700>
  400164:	afa20014 	sw	v0,20(sp)
  400168:	8fa20014 	lw	v0,20(sp)
  40016c:	00000000 	nop
  400170:	14400169 	bnez	v0,400718 <select+0x700>
  400174:	00000000 	nop
  400178:	8fa3000c 	lw	v1,12(sp)
  40017c:	8fa20004 	lw	v0,4(sp)
  400180:	00000000 	nop
  400184:	00621021 	addu	v0,v1,v0
  400188:	00021042 	srl	v0,v0,0x1
  40018c:	afa2001c 	sw	v0,28(sp)
  400190:	3c020040 	lui	v0,0x40
  400194:	8fa3001c 	lw	v1,28(sp)
  400198:	00000000 	nop
  40019c:	00031880 	sll	v1,v1,0x2
  4001a0:	2442177c 	addiu	v0,v0,6012
  4001a4:	00621021 	addu	v0,v1,v0
  4001a8:	8c420000 	lw	v0,0(v0)
  4001ac:	00000000 	nop
  4001b0:	afa20010 	sw	v0,16(sp)
  4001b4:	8fa2000c 	lw	v0,12(sp)
  4001b8:	00000000 	nop
  4001bc:	24430001 	addiu	v1,v0,1
  4001c0:	3c020040 	lui	v0,0x40
  4001c4:	00031880 	sll	v1,v1,0x2
  4001c8:	2442177c 	addiu	v0,v0,6012
  4001cc:	00621021 	addu	v0,v1,v0
  4001d0:	8c430000 	lw	v1,0(v0)
  4001d4:	3c020040 	lui	v0,0x40
  4001d8:	8fa4001c 	lw	a0,28(sp)
  4001dc:	00000000 	nop
  4001e0:	00042080 	sll	a0,a0,0x2
  4001e4:	2442177c 	addiu	v0,v0,6012
  4001e8:	00821021 	addu	v0,a0,v0
  4001ec:	ac430000 	sw	v1,0(v0)
  4001f0:	8fa2000c 	lw	v0,12(sp)
  4001f4:	00000000 	nop
  4001f8:	24430001 	addiu	v1,v0,1
  4001fc:	3c020040 	lui	v0,0x40
  400200:	00031880 	sll	v1,v1,0x2
  400204:	2442177c 	addiu	v0,v0,6012
  400208:	00621021 	addu	v0,v1,v0
  40020c:	8fa30010 	lw	v1,16(sp)
  400210:	00000000 	nop
  400214:	ac430000 	sw	v1,0(v0)
  400218:	8fa2000c 	lw	v0,12(sp)
  40021c:	00000000 	nop
  400220:	24430001 	addiu	v1,v0,1
  400224:	3c020040 	lui	v0,0x40
  400228:	00031880 	sll	v1,v1,0x2
  40022c:	2442177c 	addiu	v0,v0,6012
  400230:	00621021 	addu	v0,v1,v0
  400234:	8c430000 	lw	v1,0(v0)
  400238:	3c020040 	lui	v0,0x40
  40023c:	8fa40004 	lw	a0,4(sp)
  400240:	00000000 	nop
  400244:	00042080 	sll	a0,a0,0x2
  400248:	2442177c 	addiu	v0,v0,6012
  40024c:	00821021 	addu	v0,a0,v0
  400250:	8c420000 	lw	v0,0(v0)
  400254:	44830000 	mtc1	v1,$f0
  400258:	44821000 	mtc1	v0,$f2
  40025c:	00000000 	nop
  400260:	4600103c 	c.lt.s	$f2,$f0
  400264:	00000000 	nop
  400268:	45000023 	bc1f	4002f8 <select+0x2e0>
  40026c:	00000000 	nop
  400270:	8fa2000c 	lw	v0,12(sp)
  400274:	00000000 	nop
  400278:	24430001 	addiu	v1,v0,1
  40027c:	3c020040 	lui	v0,0x40
  400280:	00031880 	sll	v1,v1,0x2
  400284:	2442177c 	addiu	v0,v0,6012
  400288:	00621021 	addu	v0,v1,v0
  40028c:	8c420000 	lw	v0,0(v0)
  400290:	00000000 	nop
  400294:	afa20010 	sw	v0,16(sp)
  400298:	8fa2000c 	lw	v0,12(sp)
  40029c:	00000000 	nop
  4002a0:	24440001 	addiu	a0,v0,1
  4002a4:	3c020040 	lui	v0,0x40
  4002a8:	8fa30004 	lw	v1,4(sp)
  4002ac:	00000000 	nop
  4002b0:	00031880 	sll	v1,v1,0x2
  4002b4:	2442177c 	addiu	v0,v0,6012
  4002b8:	00621021 	addu	v0,v1,v0
  4002bc:	8c430000 	lw	v1,0(v0)
  4002c0:	3c020040 	lui	v0,0x40
  4002c4:	00042080 	sll	a0,a0,0x2
  4002c8:	2442177c 	addiu	v0,v0,6012
  4002cc:	00821021 	addu	v0,a0,v0
  4002d0:	ac430000 	sw	v1,0(v0)
  4002d4:	3c020040 	lui	v0,0x40
  4002d8:	8fa30004 	lw	v1,4(sp)
  4002dc:	00000000 	nop
  4002e0:	00031880 	sll	v1,v1,0x2
  4002e4:	2442177c 	addiu	v0,v0,6012
  4002e8:	00621021 	addu	v0,v1,v0
  4002ec:	8fa30010 	lw	v1,16(sp)
  4002f0:	00000000 	nop
  4002f4:	ac430000 	sw	v1,0(v0)
  4002f8:	3c020040 	lui	v0,0x40
  4002fc:	8fa3000c 	lw	v1,12(sp)
  400300:	00000000 	nop
  400304:	00031880 	sll	v1,v1,0x2
  400308:	2442177c 	addiu	v0,v0,6012
  40030c:	00621021 	addu	v0,v1,v0
  400310:	8c430000 	lw	v1,0(v0)
  400314:	3c020040 	lui	v0,0x40
  400318:	8fa40004 	lw	a0,4(sp)
  40031c:	00000000 	nop
  400320:	00042080 	sll	a0,a0,0x2
  400324:	2442177c 	addiu	v0,v0,6012
  400328:	00821021 	addu	v0,a0,v0
  40032c:	8c420000 	lw	v0,0(v0)
  400330:	44830000 	mtc1	v1,$f0
  400334:	44821000 	mtc1	v0,$f2
  400338:	00000000 	nop
  40033c:	4600103c 	c.lt.s	$f2,$f0
  400340:	00000000 	nop
  400344:	45000021 	bc1f	4003cc <select+0x3b4>
  400348:	00000000 	nop
  40034c:	3c020040 	lui	v0,0x40
  400350:	8fa3000c 	lw	v1,12(sp)
  400354:	00000000 	nop
  400358:	00031880 	sll	v1,v1,0x2
  40035c:	2442177c 	addiu	v0,v0,6012
  400360:	00621021 	addu	v0,v1,v0
  400364:	8c420000 	lw	v0,0(v0)
  400368:	00000000 	nop
  40036c:	afa20010 	sw	v0,16(sp)
  400370:	3c020040 	lui	v0,0x40
  400374:	8fa30004 	lw	v1,4(sp)
  400378:	00000000 	nop
  40037c:	00031880 	sll	v1,v1,0x2
  400380:	2442177c 	addiu	v0,v0,6012
  400384:	00621021 	addu	v0,v1,v0
  400388:	8c430000 	lw	v1,0(v0)
  40038c:	3c020040 	lui	v0,0x40
  400390:	8fa4000c 	lw	a0,12(sp)
  400394:	00000000 	nop
  400398:	00042080 	sll	a0,a0,0x2
  40039c:	2442177c 	addiu	v0,v0,6012
  4003a0:	00821021 	addu	v0,a0,v0
  4003a4:	ac430000 	sw	v1,0(v0)
  4003a8:	3c020040 	lui	v0,0x40
  4003ac:	8fa30004 	lw	v1,4(sp)
  4003b0:	00000000 	nop
  4003b4:	00031880 	sll	v1,v1,0x2
  4003b8:	2442177c 	addiu	v0,v0,6012
  4003bc:	00621021 	addu	v0,v1,v0
  4003c0:	8fa30010 	lw	v1,16(sp)
  4003c4:	00000000 	nop
  4003c8:	ac430000 	sw	v1,0(v0)
  4003cc:	8fa2000c 	lw	v0,12(sp)
  4003d0:	00000000 	nop
  4003d4:	24430001 	addiu	v1,v0,1
  4003d8:	3c020040 	lui	v0,0x40
  4003dc:	00031880 	sll	v1,v1,0x2
  4003e0:	2442177c 	addiu	v0,v0,6012
  4003e4:	00621021 	addu	v0,v1,v0
  4003e8:	8c430000 	lw	v1,0(v0)
  4003ec:	3c020040 	lui	v0,0x40
  4003f0:	8fa4000c 	lw	a0,12(sp)
  4003f4:	00000000 	nop
  4003f8:	00042080 	sll	a0,a0,0x2
  4003fc:	2442177c 	addiu	v0,v0,6012
  400400:	00821021 	addu	v0,a0,v0
  400404:	8c420000 	lw	v0,0(v0)
  400408:	44830000 	mtc1	v1,$f0
  40040c:	44821000 	mtc1	v0,$f2
  400410:	00000000 	nop
  400414:	4600103c 	c.lt.s	$f2,$f0
  400418:	00000000 	nop
  40041c:	45000023 	bc1f	4004ac <select+0x494>
  400420:	00000000 	nop
  400424:	8fa2000c 	lw	v0,12(sp)
  400428:	00000000 	nop
  40042c:	24430001 	addiu	v1,v0,1
  400430:	3c020040 	lui	v0,0x40
  400434:	00031880 	sll	v1,v1,0x2
  400438:	2442177c 	addiu	v0,v0,6012
  40043c:	00621021 	addu	v0,v1,v0
  400440:	8c420000 	lw	v0,0(v0)
  400444:	00000000 	nop
  400448:	afa20010 	sw	v0,16(sp)
  40044c:	8fa2000c 	lw	v0,12(sp)
  400450:	00000000 	nop
  400454:	24440001 	addiu	a0,v0,1
  400458:	3c020040 	lui	v0,0x40
  40045c:	8fa3000c 	lw	v1,12(sp)
  400460:	00000000 	nop
  400464:	00031880 	sll	v1,v1,0x2
  400468:	2442177c 	addiu	v0,v0,6012
  40046c:	00621021 	addu	v0,v1,v0
  400470:	8c430000 	lw	v1,0(v0)
  400474:	3c020040 	lui	v0,0x40
  400478:	00042080 	sll	a0,a0,0x2
  40047c:	2442177c 	addiu	v0,v0,6012
  400480:	00821021 	addu	v0,a0,v0
  400484:	ac430000 	sw	v1,0(v0)
  400488:	3c020040 	lui	v0,0x40
  40048c:	8fa3000c 	lw	v1,12(sp)
  400490:	00000000 	nop
  400494:	00031880 	sll	v1,v1,0x2
  400498:	2442177c 	addiu	v0,v0,6012
  40049c:	00621021 	addu	v0,v1,v0
  4004a0:	8fa30010 	lw	v1,16(sp)
  4004a4:	00000000 	nop
  4004a8:	ac430000 	sw	v1,0(v0)
  4004ac:	8fa2000c 	lw	v0,12(sp)
  4004b0:	00000000 	nop
  4004b4:	24420001 	addiu	v0,v0,1
  4004b8:	afa20000 	sw	v0,0(sp)
  4004bc:	8fa20004 	lw	v0,4(sp)
  4004c0:	00000000 	nop
  4004c4:	afa20008 	sw	v0,8(sp)
  4004c8:	3c020040 	lui	v0,0x40
  4004cc:	8fa3000c 	lw	v1,12(sp)
  4004d0:	00000000 	nop
  4004d4:	00031880 	sll	v1,v1,0x2
  4004d8:	2442177c 	addiu	v0,v0,6012
  4004dc:	00621021 	addu	v0,v1,v0
  4004e0:	8c420000 	lw	v0,0(v0)
  4004e4:	00000000 	nop
  4004e8:	08100198 	j	400660 <select+0x648>
  4004ec:	afa20020 	sw	v0,32(sp)
  4004f0:	8fa20000 	lw	v0,0(sp)
  4004f4:	00000000 	nop
  4004f8:	24420001 	addiu	v0,v0,1
  4004fc:	08100145 	j	400514 <select+0x4fc>
  400500:	afa20000 	sw	v0,0(sp)
  400504:	8fa20000 	lw	v0,0(sp)
  400508:	00000000 	nop
  40050c:	24420001 	addiu	v0,v0,1
  400510:	afa20000 	sw	v0,0(sp)
  400514:	3c020040 	lui	v0,0x40
  400518:	8fa30000 	lw	v1,0(sp)
  40051c:	00000000 	nop
  400520:	00031880 	sll	v1,v1,0x2
  400524:	2442177c 	addiu	v0,v0,6012
  400528:	00621021 	addu	v0,v1,v0
  40052c:	8c430000 	lw	v1,0(v0)
  400530:	8fa20020 	lw	v0,32(sp)
  400534:	44830000 	mtc1	v1,$f0
  400538:	44821000 	mtc1	v0,$f2
  40053c:	00000000 	nop
  400540:	4602003c 	c.lt.s	$f0,$f2
  400544:	00000000 	nop
  400548:	4501ffee 	bc1t	400504 <select+0x4ec>
  40054c:	00000000 	nop
  400550:	8fa20008 	lw	v0,8(sp)
  400554:	00000000 	nop
  400558:	2442ffff 	addiu	v0,v0,-1
  40055c:	0810015d 	j	400574 <select+0x55c>
  400560:	afa20008 	sw	v0,8(sp)
  400564:	8fa20008 	lw	v0,8(sp)
  400568:	00000000 	nop
  40056c:	2442ffff 	addiu	v0,v0,-1
  400570:	afa20008 	sw	v0,8(sp)
  400574:	3c020040 	lui	v0,0x40
  400578:	8fa30008 	lw	v1,8(sp)
  40057c:	00000000 	nop
  400580:	00031880 	sll	v1,v1,0x2
  400584:	2442177c 	addiu	v0,v0,6012
  400588:	00621021 	addu	v0,v1,v0
  40058c:	8c430000 	lw	v1,0(v0)
  400590:	8fa20020 	lw	v0,32(sp)
  400594:	44830000 	mtc1	v1,$f0
  400598:	44821000 	mtc1	v0,$f2
  40059c:	00000000 	nop
  4005a0:	4600103c 	c.lt.s	$f2,$f0
  4005a4:	00000000 	nop
  4005a8:	4501ffee 	bc1t	400564 <select+0x54c>
  4005ac:	00000000 	nop
  4005b0:	8fa30008 	lw	v1,8(sp)
  4005b4:	8fa20000 	lw	v0,0(sp)
  4005b8:	00000000 	nop
  4005bc:	0062102b 	sltu	v0,v1,v0
  4005c0:	10400003 	beqz	v0,4005d0 <select+0x5b8>
  4005c4:	00000000 	nop
  4005c8:	24020001 	li	v0,1
  4005cc:	afa20018 	sw	v0,24(sp)
  4005d0:	8fa20018 	lw	v0,24(sp)
  4005d4:	00000000 	nop
  4005d8:	1440000a 	bnez	v0,400604 <select+0x5ec>
  4005dc:	00000000 	nop
  4005e0:	3c020040 	lui	v0,0x40
  4005e4:	8fa30000 	lw	v1,0(sp)
  4005e8:	00000000 	nop
  4005ec:	00031880 	sll	v1,v1,0x2
  4005f0:	2442177c 	addiu	v0,v0,6012
  4005f4:	00621021 	addu	v0,v1,v0
  4005f8:	8c420000 	lw	v0,0(v0)
  4005fc:	00000000 	nop
  400600:	afa20010 	sw	v0,16(sp)
  400604:	3c020040 	lui	v0,0x40
  400608:	8fa30008 	lw	v1,8(sp)
  40060c:	00000000 	nop
  400610:	00031880 	sll	v1,v1,0x2
  400614:	2442177c 	addiu	v0,v0,6012
  400618:	00621021 	addu	v0,v1,v0
  40061c:	8c430000 	lw	v1,0(v0)
  400620:	3c020040 	lui	v0,0x40
  400624:	8fa40000 	lw	a0,0(sp)
  400628:	00000000 	nop
  40062c:	00042080 	sll	a0,a0,0x2
  400630:	2442177c 	addiu	v0,v0,6012
  400634:	00821021 	addu	v0,a0,v0
  400638:	ac430000 	sw	v1,0(v0)
  40063c:	3c020040 	lui	v0,0x40
  400640:	8fa30008 	lw	v1,8(sp)
  400644:	00000000 	nop
  400648:	00031880 	sll	v1,v1,0x2
  40064c:	2442177c 	addiu	v0,v0,6012
  400650:	00621021 	addu	v0,v1,v0
  400654:	8fa30010 	lw	v1,16(sp)
  400658:	00000000 	nop
  40065c:	ac430000 	sw	v1,0(v0)
  400660:	8fa20018 	lw	v0,24(sp)
  400664:	00000000 	nop
  400668:	1040ffa1 	beqz	v0,4004f0 <select+0x4d8>
  40066c:	00000000 	nop
  400670:	3c020040 	lui	v0,0x40
  400674:	8fa30008 	lw	v1,8(sp)
  400678:	00000000 	nop
  40067c:	00031880 	sll	v1,v1,0x2
  400680:	2442177c 	addiu	v0,v0,6012
  400684:	00621021 	addu	v0,v1,v0
  400688:	8c430000 	lw	v1,0(v0)
  40068c:	3c020040 	lui	v0,0x40
  400690:	8fa4000c 	lw	a0,12(sp)
  400694:	00000000 	nop
  400698:	00042080 	sll	a0,a0,0x2
  40069c:	2442177c 	addiu	v0,v0,6012
  4006a0:	00821021 	addu	v0,a0,v0
  4006a4:	ac430000 	sw	v1,0(v0)
  4006a8:	3c020040 	lui	v0,0x40
  4006ac:	8fa30008 	lw	v1,8(sp)
  4006b0:	00000000 	nop
  4006b4:	00031880 	sll	v1,v1,0x2
  4006b8:	2442177c 	addiu	v0,v0,6012
  4006bc:	00621021 	addu	v0,v1,v0
  4006c0:	8fa30020 	lw	v1,32(sp)
  4006c4:	00000000 	nop
  4006c8:	ac430000 	sw	v1,0(v0)
  4006cc:	8fa30008 	lw	v1,8(sp)
  4006d0:	8fa20028 	lw	v0,40(sp)
  4006d4:	00000000 	nop
  4006d8:	0062102b 	sltu	v0,v1,v0
  4006dc:	14400005 	bnez	v0,4006f4 <select+0x6dc>
  4006e0:	00000000 	nop
  4006e4:	8fa20008 	lw	v0,8(sp)
  4006e8:	00000000 	nop
  4006ec:	2442ffff 	addiu	v0,v0,-1
  4006f0:	afa20004 	sw	v0,4(sp)
  4006f4:	8fa30008 	lw	v1,8(sp)
  4006f8:	8fa20028 	lw	v0,40(sp)
  4006fc:	00000000 	nop
  400700:	0043102b 	sltu	v0,v0,v1
  400704:	14400004 	bnez	v0,400718 <select+0x700>
  400708:	00000000 	nop
  40070c:	8fa20000 	lw	v0,0(sp)
  400710:	00000000 	nop
  400714:	afa2000c 	sw	v0,12(sp)
  400718:	8fa20014 	lw	v0,20(sp)
  40071c:	00000000 	nop
  400720:	1040fe4a 	beqz	v0,40004c <select+0x34>
  400724:	00000000 	nop
  400728:	3c020040 	lui	v0,0x40
  40072c:	8fa30028 	lw	v1,40(sp)
  400730:	00000000 	nop
  400734:	00031880 	sll	v1,v1,0x2
  400738:	2442177c 	addiu	v0,v0,6012
  40073c:	00621021 	addu	v0,v1,v0
  400740:	8c420000 	lw	v0,0(v0)
  400744:	00000000 	nop
  400748:	44820000 	mtc1	v0,$f0
  40074c:	03e00008 	jr	ra
  400750:	27bd0028 	addiu	sp,sp,40

00400754 <main>:
  400754:	27bdffe8 	addiu	sp,sp,-24
  400758:	afbf0014 	sw	ra,20(sp)
  40075c:	2404000a 	li	a0,10
  400760:	24050014 	li	a1,20
  400764:	0c100006 	jal	400018 <select>
  400768:	00000000 	nop
  40076c:	8fbf0014 	lw	ra,20(sp)
  400770:	27bd0018 	addiu	sp,sp,24
  400774:	03e00008 	jr	ra
  400778:	00000000 	nop
